
SAMI_0.elf:     file format elf32-littlearm

Sections:
Idx Name          Size      VMA       LMA       File off  Algn
  0 .isr_vector   00000188  08000000  08000000  00010000  2**0
                  CONTENTS, ALLOC, LOAD, READONLY, DATA
  1 .text         000093cc  08000190  08000190  00010190  2**4
                  CONTENTS, ALLOC, LOAD, READONLY, CODE
  2 .rodata       0000107c  0800955c  0800955c  0001955c  2**2
                  CONTENTS, ALLOC, LOAD, READONLY, DATA
  3 .ARM.extab    00000000  0800a5d8  0800a5d8  0002009c  2**0
                  CONTENTS
  4 .ARM          00000008  0800a5d8  0800a5d8  0001a5d8  2**2
                  CONTENTS, ALLOC, LOAD, READONLY, DATA
  5 .preinit_array 00000000  0800a5e0  0800a5e0  0002009c  2**0
                  CONTENTS, ALLOC, LOAD, DATA
  6 .init_array   00000004  0800a5e0  0800a5e0  0001a5e0  2**2
                  CONTENTS, ALLOC, LOAD, DATA
  7 .fini_array   00000004  0800a5e4  0800a5e4  0001a5e4  2**2
                  CONTENTS, ALLOC, LOAD, DATA
  8 .data         0000009c  20000000  0800a5e8  00020000  2**2
                  CONTENTS, ALLOC, LOAD, DATA
  9 .bss          000039ac  2000009c  0800a684  0002009c  2**2
                  ALLOC
 10 ._user_heap_stack 00005800  20003a48  0800a684  00023a48  2**0
                  ALLOC
 11 .ARM.attributes 00000030  00000000  00000000  0002009c  2**0
                  CONTENTS, READONLY
 12 .comment      0000007b  00000000  00000000  000200cc  2**0
                  CONTENTS, READONLY
 13 .debug_frame  0000053c  00000000  00000000  00020148  2**2
                  CONTENTS, READONLY, DEBUGGING

Disassembly of section .text:

08000190 <__do_global_dtors_aux>:
 8000190:	b510      	push	{r4, lr}
 8000192:	4c05      	ldr	r4, [pc, #20]	; (80001a8 <__do_global_dtors_aux+0x18>)
 8000194:	7823      	ldrb	r3, [r4, #0]
 8000196:	b933      	cbnz	r3, 80001a6 <__do_global_dtors_aux+0x16>
 8000198:	4b04      	ldr	r3, [pc, #16]	; (80001ac <__do_global_dtors_aux+0x1c>)
 800019a:	b113      	cbz	r3, 80001a2 <__do_global_dtors_aux+0x12>
 800019c:	4804      	ldr	r0, [pc, #16]	; (80001b0 <__do_global_dtors_aux+0x20>)
 800019e:	f3af 8000 	nop.w
 80001a2:	2301      	movs	r3, #1
 80001a4:	7023      	strb	r3, [r4, #0]
 80001a6:	bd10      	pop	{r4, pc}
 80001a8:	2000009c 	.word	0x2000009c
 80001ac:	00000000 	.word	0x00000000
 80001b0:	08009544 	.word	0x08009544

080001b4 <frame_dummy>:
 80001b4:	b508      	push	{r3, lr}
 80001b6:	4b03      	ldr	r3, [pc, #12]	; (80001c4 <frame_dummy+0x10>)
 80001b8:	b11b      	cbz	r3, 80001c2 <frame_dummy+0xe>
 80001ba:	4903      	ldr	r1, [pc, #12]	; (80001c8 <frame_dummy+0x14>)
 80001bc:	4803      	ldr	r0, [pc, #12]	; (80001cc <frame_dummy+0x18>)
 80001be:	f3af 8000 	nop.w
 80001c2:	bd08      	pop	{r3, pc}
 80001c4:	00000000 	.word	0x00000000
 80001c8:	200000a0 	.word	0x200000a0
 80001cc:	08009544 	.word	0x08009544

080001d0 <strcmp>:
 80001d0:	f810 2b01 	ldrb.w	r2, [r0], #1
 80001d4:	f811 3b01 	ldrb.w	r3, [r1], #1
 80001d8:	2a01      	cmp	r2, #1
 80001da:	bf28      	it	cs
 80001dc:	429a      	cmpcs	r2, r3
 80001de:	d0f7      	beq.n	80001d0 <strcmp>
 80001e0:	1ad0      	subs	r0, r2, r3
 80001e2:	4770      	bx	lr

080001e4 <strlen>:
 80001e4:	4603      	mov	r3, r0
 80001e6:	f813 2b01 	ldrb.w	r2, [r3], #1
 80001ea:	2a00      	cmp	r2, #0
 80001ec:	d1fb      	bne.n	80001e6 <strlen+0x2>
 80001ee:	1a18      	subs	r0, r3, r0
 80001f0:	3801      	subs	r0, #1
 80001f2:	4770      	bx	lr
	...

08000200 <memchr>:
 8000200:	f001 01ff 	and.w	r1, r1, #255	; 0xff
 8000204:	2a10      	cmp	r2, #16
 8000206:	db2b      	blt.n	8000260 <memchr+0x60>
 8000208:	f010 0f07 	tst.w	r0, #7
 800020c:	d008      	beq.n	8000220 <memchr+0x20>
 800020e:	f810 3b01 	ldrb.w	r3, [r0], #1
 8000212:	3a01      	subs	r2, #1
 8000214:	428b      	cmp	r3, r1
 8000216:	d02d      	beq.n	8000274 <memchr+0x74>
 8000218:	f010 0f07 	tst.w	r0, #7
 800021c:	b342      	cbz	r2, 8000270 <memchr+0x70>
 800021e:	d1f6      	bne.n	800020e <memchr+0xe>
 8000220:	b4f0      	push	{r4, r5, r6, r7}
 8000222:	ea41 2101 	orr.w	r1, r1, r1, lsl #8
 8000226:	ea41 4101 	orr.w	r1, r1, r1, lsl #16
 800022a:	f022 0407 	bic.w	r4, r2, #7
 800022e:	f07f 0700 	mvns.w	r7, #0
 8000232:	2300      	movs	r3, #0
 8000234:	e8f0 5602 	ldrd	r5, r6, [r0], #8
 8000238:	3c08      	subs	r4, #8
 800023a:	ea85 0501 	eor.w	r5, r5, r1
 800023e:	ea86 0601 	eor.w	r6, r6, r1
 8000242:	fa85 f547 	uadd8	r5, r5, r7
 8000246:	faa3 f587 	sel	r5, r3, r7
 800024a:	fa86 f647 	uadd8	r6, r6, r7
 800024e:	faa5 f687 	sel	r6, r5, r7
 8000252:	b98e      	cbnz	r6, 8000278 <memchr+0x78>
 8000254:	d1ee      	bne.n	8000234 <memchr+0x34>
 8000256:	bcf0      	pop	{r4, r5, r6, r7}
 8000258:	f001 01ff 	and.w	r1, r1, #255	; 0xff
 800025c:	f002 0207 	and.w	r2, r2, #7
 8000260:	b132      	cbz	r2, 8000270 <memchr+0x70>
 8000262:	f810 3b01 	ldrb.w	r3, [r0], #1
 8000266:	3a01      	subs	r2, #1
 8000268:	ea83 0301 	eor.w	r3, r3, r1
 800026c:	b113      	cbz	r3, 8000274 <memchr+0x74>
 800026e:	d1f8      	bne.n	8000262 <memchr+0x62>
 8000270:	2000      	movs	r0, #0
 8000272:	4770      	bx	lr
 8000274:	3801      	subs	r0, #1
 8000276:	4770      	bx	lr
 8000278:	2d00      	cmp	r5, #0
 800027a:	bf06      	itte	eq
 800027c:	4635      	moveq	r5, r6
 800027e:	3803      	subeq	r0, #3
 8000280:	3807      	subne	r0, #7
 8000282:	f015 0f01 	tst.w	r5, #1
 8000286:	d107      	bne.n	8000298 <memchr+0x98>
 8000288:	3001      	adds	r0, #1
 800028a:	f415 7f80 	tst.w	r5, #256	; 0x100
 800028e:	bf02      	ittt	eq
 8000290:	3001      	addeq	r0, #1
 8000292:	f415 3fc0 	tsteq.w	r5, #98304	; 0x18000
 8000296:	3001      	addeq	r0, #1
 8000298:	bcf0      	pop	{r4, r5, r6, r7}
 800029a:	3801      	subs	r0, #1
 800029c:	4770      	bx	lr
 800029e:	bf00      	nop

080002a0 <__aeabi_uldivmod>:
 80002a0:	b953      	cbnz	r3, 80002b8 <__aeabi_uldivmod+0x18>
 80002a2:	b94a      	cbnz	r2, 80002b8 <__aeabi_uldivmod+0x18>
 80002a4:	2900      	cmp	r1, #0
 80002a6:	bf08      	it	eq
 80002a8:	2800      	cmpeq	r0, #0
 80002aa:	bf1c      	itt	ne
 80002ac:	f04f 31ff 	movne.w	r1, #4294967295
 80002b0:	f04f 30ff 	movne.w	r0, #4294967295
 80002b4:	f000 b972 	b.w	800059c <__aeabi_idiv0>
 80002b8:	f1ad 0c08 	sub.w	ip, sp, #8
 80002bc:	e96d ce04 	strd	ip, lr, [sp, #-16]!
 80002c0:	f000 f806 	bl	80002d0 <__udivmoddi4>
 80002c4:	f8dd e004 	ldr.w	lr, [sp, #4]
 80002c8:	e9dd 2302 	ldrd	r2, r3, [sp, #8]
 80002cc:	b004      	add	sp, #16
 80002ce:	4770      	bx	lr

080002d0 <__udivmoddi4>:
 80002d0:	e92d 47f0 	stmdb	sp!, {r4, r5, r6, r7, r8, r9, sl, lr}
 80002d4:	9e08      	ldr	r6, [sp, #32]
 80002d6:	4604      	mov	r4, r0
 80002d8:	4688      	mov	r8, r1
 80002da:	2b00      	cmp	r3, #0
 80002dc:	d14b      	bne.n	8000376 <__udivmoddi4+0xa6>
 80002de:	428a      	cmp	r2, r1
 80002e0:	4615      	mov	r5, r2
 80002e2:	d967      	bls.n	80003b4 <__udivmoddi4+0xe4>
 80002e4:	fab2 f282 	clz	r2, r2
 80002e8:	b14a      	cbz	r2, 80002fe <__udivmoddi4+0x2e>
 80002ea:	f1c2 0720 	rsb	r7, r2, #32
 80002ee:	fa01 f302 	lsl.w	r3, r1, r2
 80002f2:	fa20 f707 	lsr.w	r7, r0, r7
 80002f6:	4095      	lsls	r5, r2
 80002f8:	ea47 0803 	orr.w	r8, r7, r3
 80002fc:	4094      	lsls	r4, r2
 80002fe:	ea4f 4e15 	mov.w	lr, r5, lsr #16
 8000302:	0c23      	lsrs	r3, r4, #16
 8000304:	fbb8 f7fe 	udiv	r7, r8, lr
 8000308:	fa1f fc85 	uxth.w	ip, r5
 800030c:	fb0e 8817 	mls	r8, lr, r7, r8
 8000310:	ea43 4308 	orr.w	r3, r3, r8, lsl #16
 8000314:	fb07 f10c 	mul.w	r1, r7, ip
 8000318:	4299      	cmp	r1, r3
 800031a:	d909      	bls.n	8000330 <__udivmoddi4+0x60>
 800031c:	18eb      	adds	r3, r5, r3
 800031e:	f107 30ff 	add.w	r0, r7, #4294967295
 8000322:	f080 811b 	bcs.w	800055c <__udivmoddi4+0x28c>
 8000326:	4299      	cmp	r1, r3
 8000328:	f240 8118 	bls.w	800055c <__udivmoddi4+0x28c>
 800032c:	3f02      	subs	r7, #2
 800032e:	442b      	add	r3, r5
 8000330:	1a5b      	subs	r3, r3, r1
 8000332:	b2a4      	uxth	r4, r4
 8000334:	fbb3 f0fe 	udiv	r0, r3, lr
 8000338:	fb0e 3310 	mls	r3, lr, r0, r3
 800033c:	ea44 4403 	orr.w	r4, r4, r3, lsl #16
 8000340:	fb00 fc0c 	mul.w	ip, r0, ip
 8000344:	45a4      	cmp	ip, r4
 8000346:	d909      	bls.n	800035c <__udivmoddi4+0x8c>
 8000348:	192c      	adds	r4, r5, r4
 800034a:	f100 33ff 	add.w	r3, r0, #4294967295
 800034e:	f080 8107 	bcs.w	8000560 <__udivmoddi4+0x290>
 8000352:	45a4      	cmp	ip, r4
 8000354:	f240 8104 	bls.w	8000560 <__udivmoddi4+0x290>
 8000358:	3802      	subs	r0, #2
 800035a:	442c      	add	r4, r5
 800035c:	ea40 4007 	orr.w	r0, r0, r7, lsl #16
 8000360:	eba4 040c 	sub.w	r4, r4, ip
 8000364:	2700      	movs	r7, #0
 8000366:	b11e      	cbz	r6, 8000370 <__udivmoddi4+0xa0>
 8000368:	40d4      	lsrs	r4, r2
 800036a:	2300      	movs	r3, #0
 800036c:	e9c6 4300 	strd	r4, r3, [r6]
 8000370:	4639      	mov	r1, r7
 8000372:	e8bd 87f0 	ldmia.w	sp!, {r4, r5, r6, r7, r8, r9, sl, pc}
 8000376:	428b      	cmp	r3, r1
 8000378:	d909      	bls.n	800038e <__udivmoddi4+0xbe>
 800037a:	2e00      	cmp	r6, #0
 800037c:	f000 80eb 	beq.w	8000556 <__udivmoddi4+0x286>
 8000380:	2700      	movs	r7, #0
 8000382:	e9c6 0100 	strd	r0, r1, [r6]
 8000386:	4638      	mov	r0, r7
 8000388:	4639      	mov	r1, r7
 800038a:	e8bd 87f0 	ldmia.w	sp!, {r4, r5, r6, r7, r8, r9, sl, pc}
 800038e:	fab3 f783 	clz	r7, r3
 8000392:	2f00      	cmp	r7, #0
 8000394:	d147      	bne.n	8000426 <__udivmoddi4+0x156>
 8000396:	428b      	cmp	r3, r1
 8000398:	d302      	bcc.n	80003a0 <__udivmoddi4+0xd0>
 800039a:	4282      	cmp	r2, r0
 800039c:	f200 80fa 	bhi.w	8000594 <__udivmoddi4+0x2c4>
 80003a0:	1a84      	subs	r4, r0, r2
 80003a2:	eb61 0303 	sbc.w	r3, r1, r3
 80003a6:	2001      	movs	r0, #1
 80003a8:	4698      	mov	r8, r3
 80003aa:	2e00      	cmp	r6, #0
 80003ac:	d0e0      	beq.n	8000370 <__udivmoddi4+0xa0>
 80003ae:	e9c6 4800 	strd	r4, r8, [r6]
 80003b2:	e7dd      	b.n	8000370 <__udivmoddi4+0xa0>
 80003b4:	b902      	cbnz	r2, 80003b8 <__udivmoddi4+0xe8>
 80003b6:	deff      	udf	#255	; 0xff
 80003b8:	fab2 f282 	clz	r2, r2
 80003bc:	2a00      	cmp	r2, #0
 80003be:	f040 808f 	bne.w	80004e0 <__udivmoddi4+0x210>
 80003c2:	1b49      	subs	r1, r1, r5
 80003c4:	ea4f 4e15 	mov.w	lr, r5, lsr #16
 80003c8:	fa1f f885 	uxth.w	r8, r5
 80003cc:	2701      	movs	r7, #1
 80003ce:	fbb1 fcfe 	udiv	ip, r1, lr
 80003d2:	0c23      	lsrs	r3, r4, #16
 80003d4:	fb0e 111c 	mls	r1, lr, ip, r1
 80003d8:	ea43 4301 	orr.w	r3, r3, r1, lsl #16
 80003dc:	fb08 f10c 	mul.w	r1, r8, ip
 80003e0:	4299      	cmp	r1, r3
 80003e2:	d907      	bls.n	80003f4 <__udivmoddi4+0x124>
 80003e4:	18eb      	adds	r3, r5, r3
 80003e6:	f10c 30ff 	add.w	r0, ip, #4294967295
 80003ea:	d202      	bcs.n	80003f2 <__udivmoddi4+0x122>
 80003ec:	4299      	cmp	r1, r3
 80003ee:	f200 80cd 	bhi.w	800058c <__udivmoddi4+0x2bc>
 80003f2:	4684      	mov	ip, r0
 80003f4:	1a59      	subs	r1, r3, r1
 80003f6:	b2a3      	uxth	r3, r4
 80003f8:	fbb1 f0fe 	udiv	r0, r1, lr
 80003fc:	fb0e 1410 	mls	r4, lr, r0, r1
 8000400:	ea43 4404 	orr.w	r4, r3, r4, lsl #16
 8000404:	fb08 f800 	mul.w	r8, r8, r0
 8000408:	45a0      	cmp	r8, r4
 800040a:	d907      	bls.n	800041c <__udivmoddi4+0x14c>
 800040c:	192c      	adds	r4, r5, r4
 800040e:	f100 33ff 	add.w	r3, r0, #4294967295
 8000412:	d202      	bcs.n	800041a <__udivmoddi4+0x14a>
 8000414:	45a0      	cmp	r8, r4
 8000416:	f200 80b6 	bhi.w	8000586 <__udivmoddi4+0x2b6>
 800041a:	4618      	mov	r0, r3
 800041c:	eba4 0408 	sub.w	r4, r4, r8
 8000420:	ea40 400c 	orr.w	r0, r0, ip, lsl #16
 8000424:	e79f      	b.n	8000366 <__udivmoddi4+0x96>
 8000426:	f1c7 0c20 	rsb	ip, r7, #32
 800042a:	40bb      	lsls	r3, r7
 800042c:	fa22 fe0c 	lsr.w	lr, r2, ip
 8000430:	ea4e 0e03 	orr.w	lr, lr, r3
 8000434:	fa01 f407 	lsl.w	r4, r1, r7
 8000438:	fa20 f50c 	lsr.w	r5, r0, ip
 800043c:	fa21 f30c 	lsr.w	r3, r1, ip
 8000440:	ea4f 481e 	mov.w	r8, lr, lsr #16
 8000444:	4325      	orrs	r5, r4
 8000446:	fbb3 f9f8 	udiv	r9, r3, r8
 800044a:	0c2c      	lsrs	r4, r5, #16
 800044c:	fb08 3319 	mls	r3, r8, r9, r3
 8000450:	fa1f fa8e 	uxth.w	sl, lr
 8000454:	ea44 4303 	orr.w	r3, r4, r3, lsl #16
 8000458:	fb09 f40a 	mul.w	r4, r9, sl
 800045c:	429c      	cmp	r4, r3
 800045e:	fa02 f207 	lsl.w	r2, r2, r7
 8000462:	fa00 f107 	lsl.w	r1, r0, r7
 8000466:	d90b      	bls.n	8000480 <__udivmoddi4+0x1b0>
 8000468:	eb1e 0303 	adds.w	r3, lr, r3
 800046c:	f109 30ff 	add.w	r0, r9, #4294967295
 8000470:	f080 8087 	bcs.w	8000582 <__udivmoddi4+0x2b2>
 8000474:	429c      	cmp	r4, r3
 8000476:	f240 8084 	bls.w	8000582 <__udivmoddi4+0x2b2>
 800047a:	f1a9 0902 	sub.w	r9, r9, #2
 800047e:	4473      	add	r3, lr
 8000480:	1b1b      	subs	r3, r3, r4
 8000482:	b2ad      	uxth	r5, r5
 8000484:	fbb3 f0f8 	udiv	r0, r3, r8
 8000488:	fb08 3310 	mls	r3, r8, r0, r3
 800048c:	ea45 4403 	orr.w	r4, r5, r3, lsl #16
 8000490:	fb00 fa0a 	mul.w	sl, r0, sl
 8000494:	45a2      	cmp	sl, r4
 8000496:	d908      	bls.n	80004aa <__udivmoddi4+0x1da>
 8000498:	eb1e 0404 	adds.w	r4, lr, r4
 800049c:	f100 33ff 	add.w	r3, r0, #4294967295
 80004a0:	d26b      	bcs.n	800057a <__udivmoddi4+0x2aa>
 80004a2:	45a2      	cmp	sl, r4
 80004a4:	d969      	bls.n	800057a <__udivmoddi4+0x2aa>
 80004a6:	3802      	subs	r0, #2
 80004a8:	4474      	add	r4, lr
 80004aa:	ea40 4009 	orr.w	r0, r0, r9, lsl #16
 80004ae:	fba0 8902 	umull	r8, r9, r0, r2
 80004b2:	eba4 040a 	sub.w	r4, r4, sl
 80004b6:	454c      	cmp	r4, r9
 80004b8:	46c2      	mov	sl, r8
 80004ba:	464b      	mov	r3, r9
 80004bc:	d354      	bcc.n	8000568 <__udivmoddi4+0x298>
 80004be:	d051      	beq.n	8000564 <__udivmoddi4+0x294>
 80004c0:	2e00      	cmp	r6, #0
 80004c2:	d069      	beq.n	8000598 <__udivmoddi4+0x2c8>
 80004c4:	ebb1 050a 	subs.w	r5, r1, sl
 80004c8:	eb64 0403 	sbc.w	r4, r4, r3
 80004cc:	fa04 fc0c 	lsl.w	ip, r4, ip
 80004d0:	40fd      	lsrs	r5, r7
 80004d2:	40fc      	lsrs	r4, r7
 80004d4:	ea4c 0505 	orr.w	r5, ip, r5
 80004d8:	e9c6 5400 	strd	r5, r4, [r6]
 80004dc:	2700      	movs	r7, #0
 80004de:	e747      	b.n	8000370 <__udivmoddi4+0xa0>
 80004e0:	f1c2 0320 	rsb	r3, r2, #32
 80004e4:	fa20 f703 	lsr.w	r7, r0, r3
 80004e8:	4095      	lsls	r5, r2
 80004ea:	fa01 f002 	lsl.w	r0, r1, r2
 80004ee:	fa21 f303 	lsr.w	r3, r1, r3
 80004f2:	ea4f 4e15 	mov.w	lr, r5, lsr #16
 80004f6:	4338      	orrs	r0, r7
 80004f8:	0c01      	lsrs	r1, r0, #16
 80004fa:	fbb3 f7fe 	udiv	r7, r3, lr
 80004fe:	fa1f f885 	uxth.w	r8, r5
 8000502:	fb0e 3317 	mls	r3, lr, r7, r3
 8000506:	ea41 4103 	orr.w	r1, r1, r3, lsl #16
 800050a:	fb07 f308 	mul.w	r3, r7, r8
 800050e:	428b      	cmp	r3, r1
 8000510:	fa04 f402 	lsl.w	r4, r4, r2
 8000514:	d907      	bls.n	8000526 <__udivmoddi4+0x256>
 8000516:	1869      	adds	r1, r5, r1
 8000518:	f107 3cff 	add.w	ip, r7, #4294967295
 800051c:	d22f      	bcs.n	800057e <__udivmoddi4+0x2ae>
 800051e:	428b      	cmp	r3, r1
 8000520:	d92d      	bls.n	800057e <__udivmoddi4+0x2ae>
 8000522:	3f02      	subs	r7, #2
 8000524:	4429      	add	r1, r5
 8000526:	1acb      	subs	r3, r1, r3
 8000528:	b281      	uxth	r1, r0
 800052a:	fbb3 f0fe 	udiv	r0, r3, lr
 800052e:	fb0e 3310 	mls	r3, lr, r0, r3
 8000532:	ea41 4103 	orr.w	r1, r1, r3, lsl #16
 8000536:	fb00 f308 	mul.w	r3, r0, r8
 800053a:	428b      	cmp	r3, r1
 800053c:	d907      	bls.n	800054e <__udivmoddi4+0x27e>
 800053e:	1869      	adds	r1, r5, r1
 8000540:	f100 3cff 	add.w	ip, r0, #4294967295
 8000544:	d217      	bcs.n	8000576 <__udivmoddi4+0x2a6>
 8000546:	428b      	cmp	r3, r1
 8000548:	d915      	bls.n	8000576 <__udivmoddi4+0x2a6>
 800054a:	3802      	subs	r0, #2
 800054c:	4429      	add	r1, r5
 800054e:	1ac9      	subs	r1, r1, r3
 8000550:	ea40 4707 	orr.w	r7, r0, r7, lsl #16
 8000554:	e73b      	b.n	80003ce <__udivmoddi4+0xfe>
 8000556:	4637      	mov	r7, r6
 8000558:	4630      	mov	r0, r6
 800055a:	e709      	b.n	8000370 <__udivmoddi4+0xa0>
 800055c:	4607      	mov	r7, r0
 800055e:	e6e7      	b.n	8000330 <__udivmoddi4+0x60>
 8000560:	4618      	mov	r0, r3
 8000562:	e6fb      	b.n	800035c <__udivmoddi4+0x8c>
 8000564:	4541      	cmp	r1, r8
 8000566:	d2ab      	bcs.n	80004c0 <__udivmoddi4+0x1f0>
 8000568:	ebb8 0a02 	subs.w	sl, r8, r2
 800056c:	eb69 020e 	sbc.w	r2, r9, lr
 8000570:	3801      	subs	r0, #1
 8000572:	4613      	mov	r3, r2
 8000574:	e7a4      	b.n	80004c0 <__udivmoddi4+0x1f0>
 8000576:	4660      	mov	r0, ip
 8000578:	e7e9      	b.n	800054e <__udivmoddi4+0x27e>
 800057a:	4618      	mov	r0, r3
 800057c:	e795      	b.n	80004aa <__udivmoddi4+0x1da>
 800057e:	4667      	mov	r7, ip
 8000580:	e7d1      	b.n	8000526 <__udivmoddi4+0x256>
 8000582:	4681      	mov	r9, r0
 8000584:	e77c      	b.n	8000480 <__udivmoddi4+0x1b0>
 8000586:	3802      	subs	r0, #2
 8000588:	442c      	add	r4, r5
 800058a:	e747      	b.n	800041c <__udivmoddi4+0x14c>
 800058c:	f1ac 0c02 	sub.w	ip, ip, #2
 8000590:	442b      	add	r3, r5
 8000592:	e72f      	b.n	80003f4 <__udivmoddi4+0x124>
 8000594:	4638      	mov	r0, r7
 8000596:	e708      	b.n	80003aa <__udivmoddi4+0xda>
 8000598:	4637      	mov	r7, r6
 800059a:	e6e9      	b.n	8000370 <__udivmoddi4+0xa0>

0800059c <__aeabi_idiv0>:
 800059c:	4770      	bx	lr
 800059e:	bf00      	nop

080005a0 <BUFFER_Init>:
 80005a0:	b570      	push	{r4, r5, r6, lr}
 80005a2:	460d      	mov	r5, r1
 80005a4:	4616      	mov	r6, r2
 80005a6:	4604      	mov	r4, r0
 80005a8:	b178      	cbz	r0, 80005ca <BUFFER_Init+0x2a>
 80005aa:	2214      	movs	r2, #20
 80005ac:	2100      	movs	r1, #0
 80005ae:	3004      	adds	r0, #4
 80005b0:	f008 fb44 	bl	8008c3c <memset>
 80005b4:	230a      	movs	r3, #10
 80005b6:	6025      	str	r5, [r4, #0]
 80005b8:	60e6      	str	r6, [r4, #12]
 80005ba:	7463      	strb	r3, [r4, #17]
 80005bc:	b95e      	cbnz	r6, 80005d6 <BUFFER_Init+0x36>
 80005be:	4628      	mov	r0, r5
 80005c0:	f008 fb12 	bl	8008be8 <malloc>
 80005c4:	60e0      	str	r0, [r4, #12]
 80005c6:	b910      	cbnz	r0, 80005ce <BUFFER_Init+0x2e>
 80005c8:	6020      	str	r0, [r4, #0]
 80005ca:	2001      	movs	r0, #1
 80005cc:	e008      	b.n	80005e0 <BUFFER_Init+0x40>
 80005ce:	7c23      	ldrb	r3, [r4, #16]
 80005d0:	f043 0302 	orr.w	r3, r3, #2
 80005d4:	7423      	strb	r3, [r4, #16]
 80005d6:	7c23      	ldrb	r3, [r4, #16]
 80005d8:	f043 0301 	orr.w	r3, r3, #1
 80005dc:	7423      	strb	r3, [r4, #16]
 80005de:	2000      	movs	r0, #0
 80005e0:	bd70      	pop	{r4, r5, r6, pc}

080005e2 <BUFFER_GetFree>:
 80005e2:	b128      	cbz	r0, 80005f0 <BUFFER_GetFree+0xe>
 80005e4:	e9d0 1301 	ldrd	r1, r3, [r0, #4]
 80005e8:	4299      	cmp	r1, r3
 80005ea:	d102      	bne.n	80005f2 <BUFFER_GetFree+0x10>
 80005ec:	6802      	ldr	r2, [r0, #0]
 80005ee:	1e50      	subs	r0, r2, #1
 80005f0:	4770      	bx	lr
 80005f2:	bf34      	ite	cc
 80005f4:	1a5a      	subcc	r2, r3, r1
 80005f6:	2200      	movcs	r2, #0
 80005f8:	4299      	cmp	r1, r3
 80005fa:	bf82      	ittt	hi
 80005fc:	6800      	ldrhi	r0, [r0, #0]
 80005fe:	181b      	addhi	r3, r3, r0
 8000600:	1a5a      	subhi	r2, r3, r1
 8000602:	e7f4      	b.n	80005ee <BUFFER_GetFree+0xc>

08000604 <BUFFER_Write>:
 8000604:	e92d 41f0 	stmdb	sp!, {r4, r5, r6, r7, r8, lr}
 8000608:	460f      	mov	r7, r1
 800060a:	4690      	mov	r8, r2
 800060c:	4604      	mov	r4, r0
 800060e:	b918      	cbnz	r0, 8000618 <BUFFER_Write+0x14>
 8000610:	2600      	movs	r6, #0
 8000612:	4630      	mov	r0, r6
 8000614:	e8bd 81f0 	ldmia.w	sp!, {r4, r5, r6, r7, r8, pc}
 8000618:	2a00      	cmp	r2, #0
 800061a:	d0f9      	beq.n	8000610 <BUFFER_Write+0xc>
 800061c:	e9d0 5300 	ldrd	r5, r3, [r0]
 8000620:	42ab      	cmp	r3, r5
 8000622:	bf24      	itt	cs
 8000624:	2300      	movcs	r3, #0
 8000626:	6043      	strcs	r3, [r0, #4]
 8000628:	f7ff ffdb 	bl	80005e2 <BUFFER_GetFree>
 800062c:	4580      	cmp	r8, r0
 800062e:	4606      	mov	r6, r0
 8000630:	d920      	bls.n	8000674 <BUFFER_Write+0x70>
 8000632:	2800      	cmp	r0, #0
 8000634:	d0ec      	beq.n	8000610 <BUFFER_Write+0xc>
 8000636:	6863      	ldr	r3, [r4, #4]
 8000638:	68e0      	ldr	r0, [r4, #12]
 800063a:	1aed      	subs	r5, r5, r3
 800063c:	42b5      	cmp	r5, r6
 800063e:	bf28      	it	cs
 8000640:	4635      	movcs	r5, r6
 8000642:	4418      	add	r0, r3
 8000644:	462a      	mov	r2, r5
 8000646:	4639      	mov	r1, r7
 8000648:	f008 faed 	bl	8008c26 <memcpy>
 800064c:	6863      	ldr	r3, [r4, #4]
 800064e:	ebb6 0805 	subs.w	r8, r6, r5
 8000652:	442b      	add	r3, r5
 8000654:	6063      	str	r3, [r4, #4]
 8000656:	d006      	beq.n	8000666 <BUFFER_Write+0x62>
 8000658:	4642      	mov	r2, r8
 800065a:	1979      	adds	r1, r7, r5
 800065c:	68e0      	ldr	r0, [r4, #12]
 800065e:	f008 fae2 	bl	8008c26 <memcpy>
 8000662:	f8c4 8004 	str.w	r8, [r4, #4]
 8000666:	e9d4 3200 	ldrd	r3, r2, [r4]
 800066a:	429a      	cmp	r2, r3
 800066c:	bf24      	itt	cs
 800066e:	2300      	movcs	r3, #0
 8000670:	6063      	strcs	r3, [r4, #4]
 8000672:	e7ce      	b.n	8000612 <BUFFER_Write+0xe>
 8000674:	4646      	mov	r6, r8
 8000676:	e7de      	b.n	8000636 <BUFFER_Write+0x32>

08000678 <BUFFER_WriteToTop>:
 8000678:	b570      	push	{r4, r5, r6, lr}
 800067a:	460d      	mov	r5, r1
 800067c:	4616      	mov	r6, r2
 800067e:	4604      	mov	r4, r0
 8000680:	b908      	cbnz	r0, 8000686 <BUFFER_WriteToTop+0xe>
 8000682:	2000      	movs	r0, #0
 8000684:	bd70      	pop	{r4, r5, r6, pc}
 8000686:	2a00      	cmp	r2, #0
 8000688:	d0fb      	beq.n	8000682 <BUFFER_WriteToTop+0xa>
 800068a:	e9d0 3200 	ldrd	r3, r2, [r0]
 800068e:	429a      	cmp	r2, r3
 8000690:	bf24      	itt	cs
 8000692:	2200      	movcs	r2, #0
 8000694:	6042      	strcs	r2, [r0, #4]
 8000696:	6882      	ldr	r2, [r0, #8]
 8000698:	4293      	cmp	r3, r2
 800069a:	bf9c      	itt	ls
 800069c:	2300      	movls	r3, #0
 800069e:	6083      	strls	r3, [r0, #8]
 80006a0:	f7ff ff9f 	bl	80005e2 <BUFFER_GetFree>
 80006a4:	4286      	cmp	r6, r0
 80006a6:	d911      	bls.n	80006cc <BUFFER_WriteToTop+0x54>
 80006a8:	2800      	cmp	r0, #0
 80006aa:	d0ea      	beq.n	8000682 <BUFFER_WriteToTop+0xa>
 80006ac:	1e41      	subs	r1, r0, #1
 80006ae:	4429      	add	r1, r5
 80006b0:	1a42      	subs	r2, r0, r1
 80006b2:	42d1      	cmn	r1, r2
 80006b4:	d0e6      	beq.n	8000684 <BUFFER_WriteToTop+0xc>
 80006b6:	68a3      	ldr	r3, [r4, #8]
 80006b8:	b903      	cbnz	r3, 80006bc <BUFFER_WriteToTop+0x44>
 80006ba:	6823      	ldr	r3, [r4, #0]
 80006bc:	3b01      	subs	r3, #1
 80006be:	60a3      	str	r3, [r4, #8]
 80006c0:	e9d4 3502 	ldrd	r3, r5, [r4, #8]
 80006c4:	f811 6901 	ldrb.w	r6, [r1], #-1
 80006c8:	54ee      	strb	r6, [r5, r3]
 80006ca:	e7f2      	b.n	80006b2 <BUFFER_WriteToTop+0x3a>
 80006cc:	4630      	mov	r0, r6
 80006ce:	e7ed      	b.n	80006ac <BUFFER_WriteToTop+0x34>

080006d0 <BUFFER_GetFull>:
 80006d0:	4602      	mov	r2, r0
 80006d2:	b158      	cbz	r0, 80006ec <BUFFER_GetFull+0x1c>
 80006d4:	e9d0 3101 	ldrd	r3, r1, [r0, #4]
 80006d8:	428b      	cmp	r3, r1
 80006da:	bf8c      	ite	hi
 80006dc:	1a58      	subhi	r0, r3, r1
 80006de:	2000      	movls	r0, #0
 80006e0:	428b      	cmp	r3, r1
 80006e2:	d203      	bcs.n	80006ec <BUFFER_GetFull+0x1c>
 80006e4:	6810      	ldr	r0, [r2, #0]
 80006e6:	4403      	add	r3, r0
 80006e8:	1a58      	subs	r0, r3, r1
 80006ea:	4770      	bx	lr
 80006ec:	4770      	bx	lr

080006ee <BUFFER_Read>:
 80006ee:	e92d 41f0 	stmdb	sp!, {r4, r5, r6, r7, r8, lr}
 80006f2:	460f      	mov	r7, r1
 80006f4:	4690      	mov	r8, r2
 80006f6:	4604      	mov	r4, r0
 80006f8:	b918      	cbnz	r0, 8000702 <BUFFER_Read+0x14>
 80006fa:	2600      	movs	r6, #0
 80006fc:	4630      	mov	r0, r6
 80006fe:	e8bd 81f0 	ldmia.w	sp!, {r4, r5, r6, r7, r8, pc}
 8000702:	2a00      	cmp	r2, #0
 8000704:	d0f9      	beq.n	80006fa <BUFFER_Read+0xc>
 8000706:	6883      	ldr	r3, [r0, #8]
 8000708:	6805      	ldr	r5, [r0, #0]
 800070a:	42ab      	cmp	r3, r5
 800070c:	bf24      	itt	cs
 800070e:	2300      	movcs	r3, #0
 8000710:	6083      	strcs	r3, [r0, #8]
 8000712:	f7ff ffdd 	bl	80006d0 <BUFFER_GetFull>
 8000716:	4580      	cmp	r8, r0
 8000718:	4606      	mov	r6, r0
 800071a:	d920      	bls.n	800075e <BUFFER_Read+0x70>
 800071c:	2800      	cmp	r0, #0
 800071e:	d0ec      	beq.n	80006fa <BUFFER_Read+0xc>
 8000720:	68a3      	ldr	r3, [r4, #8]
 8000722:	68e1      	ldr	r1, [r4, #12]
 8000724:	1aed      	subs	r5, r5, r3
 8000726:	42b5      	cmp	r5, r6
 8000728:	bf28      	it	cs
 800072a:	4635      	movcs	r5, r6
 800072c:	4419      	add	r1, r3
 800072e:	462a      	mov	r2, r5
 8000730:	4638      	mov	r0, r7
 8000732:	f008 fa78 	bl	8008c26 <memcpy>
 8000736:	68a3      	ldr	r3, [r4, #8]
 8000738:	ebb6 0805 	subs.w	r8, r6, r5
 800073c:	442b      	add	r3, r5
 800073e:	60a3      	str	r3, [r4, #8]
 8000740:	d006      	beq.n	8000750 <BUFFER_Read+0x62>
 8000742:	4642      	mov	r2, r8
 8000744:	68e1      	ldr	r1, [r4, #12]
 8000746:	1978      	adds	r0, r7, r5
 8000748:	f008 fa6d 	bl	8008c26 <memcpy>
 800074c:	f8c4 8008 	str.w	r8, [r4, #8]
 8000750:	6823      	ldr	r3, [r4, #0]
 8000752:	68a2      	ldr	r2, [r4, #8]
 8000754:	429a      	cmp	r2, r3
 8000756:	bf24      	itt	cs
 8000758:	2300      	movcs	r3, #0
 800075a:	60a3      	strcs	r3, [r4, #8]
 800075c:	e7ce      	b.n	80006fc <BUFFER_Read+0xe>
 800075e:	4646      	mov	r6, r8
 8000760:	e7de      	b.n	8000720 <BUFFER_Read+0x32>

08000762 <BUFFER_Reset>:
 8000762:	b110      	cbz	r0, 800076a <BUFFER_Reset+0x8>
 8000764:	2300      	movs	r3, #0
 8000766:	e9c0 3301 	strd	r3, r3, [r0, #4]
 800076a:	4770      	bx	lr

0800076c <BUFFER_FindElement>:
 800076c:	b538      	push	{r3, r4, r5, lr}
 800076e:	460d      	mov	r5, r1
 8000770:	4604      	mov	r4, r0
 8000772:	b128      	cbz	r0, 8000780 <BUFFER_FindElement+0x14>
 8000774:	f7ff ffac 	bl	80006d0 <BUFFER_GetFull>
 8000778:	68a2      	ldr	r2, [r4, #8]
 800077a:	2300      	movs	r3, #0
 800077c:	4283      	cmp	r3, r0
 800077e:	d102      	bne.n	8000786 <BUFFER_FindElement+0x1a>
 8000780:	f04f 30ff 	mov.w	r0, #4294967295
 8000784:	e008      	b.n	8000798 <BUFFER_FindElement+0x2c>
 8000786:	6821      	ldr	r1, [r4, #0]
 8000788:	4291      	cmp	r1, r2
 800078a:	bf98      	it	ls
 800078c:	2200      	movls	r2, #0
 800078e:	68e1      	ldr	r1, [r4, #12]
 8000790:	5c89      	ldrb	r1, [r1, r2]
 8000792:	42a9      	cmp	r1, r5
 8000794:	d101      	bne.n	800079a <BUFFER_FindElement+0x2e>
 8000796:	4618      	mov	r0, r3
 8000798:	bd38      	pop	{r3, r4, r5, pc}
 800079a:	3201      	adds	r2, #1
 800079c:	3301      	adds	r3, #1
 800079e:	e7ed      	b.n	800077c <BUFFER_FindElement+0x10>

080007a0 <BUFFER_Find>:
 80007a0:	e92d 4ff8 	stmdb	sp!, {r3, r4, r5, r6, r7, r8, r9, sl, fp, lr}
 80007a4:	4688      	mov	r8, r1
 80007a6:	4691      	mov	r9, r2
 80007a8:	4607      	mov	r7, r0
 80007aa:	b138      	cbz	r0, 80007bc <BUFFER_Find+0x1c>
 80007ac:	f7ff ff90 	bl	80006d0 <BUFFER_GetFull>
 80007b0:	4548      	cmp	r0, r9
 80007b2:	d303      	bcc.n	80007bc <BUFFER_Find+0x1c>
 80007b4:	2600      	movs	r6, #0
 80007b6:	68bb      	ldr	r3, [r7, #8]
 80007b8:	4634      	mov	r4, r6
 80007ba:	b910      	cbnz	r0, 80007c2 <BUFFER_Find+0x22>
 80007bc:	f04f 30ff 	mov.w	r0, #4294967295
 80007c0:	e02d      	b.n	800081e <BUFFER_Find+0x7e>
 80007c2:	6839      	ldr	r1, [r7, #0]
 80007c4:	f8d7 e00c 	ldr.w	lr, [r7, #12]
 80007c8:	f898 2000 	ldrb.w	r2, [r8]
 80007cc:	4299      	cmp	r1, r3
 80007ce:	bf98      	it	ls
 80007d0:	2300      	movls	r3, #0
 80007d2:	f100 3cff 	add.w	ip, r0, #4294967295
 80007d6:	f81e 5003 	ldrb.w	r5, [lr, r3]
 80007da:	4295      	cmp	r5, r2
 80007dc:	bf08      	it	eq
 80007de:	2601      	moveq	r6, #1
 80007e0:	3301      	adds	r3, #1
 80007e2:	1c62      	adds	r2, r4, #1
 80007e4:	b15e      	cbz	r6, 80007fe <BUFFER_Find+0x5e>
 80007e6:	2501      	movs	r5, #1
 80007e8:	e00e      	b.n	8000808 <BUFFER_Find+0x68>
 80007ea:	4299      	cmp	r1, r3
 80007ec:	bf98      	it	ls
 80007ee:	2300      	movls	r3, #0
 80007f0:	f818 a005 	ldrb.w	sl, [r8, r5]
 80007f4:	f81e b003 	ldrb.w	fp, [lr, r3]
 80007f8:	45d3      	cmp	fp, sl
 80007fa:	d003      	beq.n	8000804 <BUFFER_Find+0x64>
 80007fc:	192a      	adds	r2, r5, r4
 80007fe:	4614      	mov	r4, r2
 8000800:	4660      	mov	r0, ip
 8000802:	e7da      	b.n	80007ba <BUFFER_Find+0x1a>
 8000804:	3301      	adds	r3, #1
 8000806:	3501      	adds	r5, #1
 8000808:	454d      	cmp	r5, r9
 800080a:	eba0 0c05 	sub.w	ip, r0, r5
 800080e:	d204      	bcs.n	800081a <BUFFER_Find+0x7a>
 8000810:	42a8      	cmp	r0, r5
 8000812:	d1ea      	bne.n	80007ea <BUFFER_Find+0x4a>
 8000814:	f04f 0c00 	mov.w	ip, #0
 8000818:	e7f1      	b.n	80007fe <BUFFER_Find+0x5e>
 800081a:	d1f0      	bne.n	80007fe <BUFFER_Find+0x5e>
 800081c:	4620      	mov	r0, r4
 800081e:	e8bd 8ff8 	ldmia.w	sp!, {r3, r4, r5, r6, r7, r8, r9, sl, fp, pc}

08000822 <BUFFER_WriteString>:
 8000822:	b538      	push	{r3, r4, r5, lr}
 8000824:	4605      	mov	r5, r0
 8000826:	4608      	mov	r0, r1
 8000828:	460c      	mov	r4, r1
 800082a:	f7ff fcdb 	bl	80001e4 <strlen>
 800082e:	4621      	mov	r1, r4
 8000830:	4602      	mov	r2, r0
 8000832:	4628      	mov	r0, r5
 8000834:	e8bd 4038 	ldmia.w	sp!, {r3, r4, r5, lr}
 8000838:	f7ff bee4 	b.w	8000604 <BUFFER_Write>

0800083c <BUFFER_ReadString>:
 800083c:	e92d 41f3 	stmdb	sp!, {r0, r1, r4, r5, r6, r7, r8, lr}
 8000840:	4688      	mov	r8, r1
 8000842:	4617      	mov	r7, r2
 8000844:	4606      	mov	r6, r0
 8000846:	b398      	cbz	r0, 80008b0 <BUFFER_ReadString+0x74>
 8000848:	f7ff fecb 	bl	80005e2 <BUFFER_GetFree>
 800084c:	4605      	mov	r5, r0
 800084e:	4630      	mov	r0, r6
 8000850:	f7ff ff3e 	bl	80006d0 <BUFFER_GetFull>
 8000854:	4604      	mov	r4, r0
 8000856:	b310      	cbz	r0, 800089e <BUFFER_ReadString+0x62>
 8000858:	7c71      	ldrb	r1, [r6, #17]
 800085a:	4630      	mov	r0, r6
 800085c:	f7ff ff86 	bl	800076c <BUFFER_FindElement>
 8000860:	2800      	cmp	r0, #0
 8000862:	da02      	bge.n	800086a <BUFFER_ReadString+0x2e>
 8000864:	b115      	cbz	r5, 800086c <BUFFER_ReadString+0x30>
 8000866:	42bc      	cmp	r4, r7
 8000868:	d322      	bcc.n	80008b0 <BUFFER_ReadString+0x74>
 800086a:	2500      	movs	r5, #0
 800086c:	3f01      	subs	r7, #1
 800086e:	e00f      	b.n	8000890 <BUFFER_ReadString+0x54>
 8000870:	2201      	movs	r2, #1
 8000872:	f10d 0107 	add.w	r1, sp, #7
 8000876:	4630      	mov	r0, r6
 8000878:	f7ff ff39 	bl	80006ee <BUFFER_Read>
 800087c:	f89d 3007 	ldrb.w	r3, [sp, #7]
 8000880:	f808 3005 	strb.w	r3, [r8, r5]
 8000884:	7c71      	ldrb	r1, [r6, #17]
 8000886:	4299      	cmp	r1, r3
 8000888:	f105 0201 	add.w	r2, r5, #1
 800088c:	d00b      	beq.n	80008a6 <BUFFER_ReadString+0x6a>
 800088e:	4615      	mov	r5, r2
 8000890:	42af      	cmp	r7, r5
 8000892:	463c      	mov	r4, r7
 8000894:	d8ec      	bhi.n	8000870 <BUFFER_ReadString+0x34>
 8000896:	d106      	bne.n	80008a6 <BUFFER_ReadString+0x6a>
 8000898:	2300      	movs	r3, #0
 800089a:	f808 3005 	strb.w	r3, [r8, r5]
 800089e:	4620      	mov	r0, r4
 80008a0:	b002      	add	sp, #8
 80008a2:	e8bd 81f0 	ldmia.w	sp!, {r4, r5, r6, r7, r8, pc}
 80008a6:	1c6c      	adds	r4, r5, #1
 80008a8:	2300      	movs	r3, #0
 80008aa:	f808 3004 	strb.w	r3, [r8, r4]
 80008ae:	e7f6      	b.n	800089e <BUFFER_ReadString+0x62>
 80008b0:	2400      	movs	r4, #0
 80008b2:	e7f4      	b.n	800089e <BUFFER_ReadString+0x62>

080008b4 <ParseNumber>:
 80008b4:	b5f0      	push	{r4, r5, r6, r7, lr}
 80008b6:	7803      	ldrb	r3, [r0, #0]
 80008b8:	2b2d      	cmp	r3, #45	; 0x2d
 80008ba:	d115      	bne.n	80008e8 <ParseNumber+0x34>
 80008bc:	3001      	adds	r0, #1
 80008be:	2501      	movs	r5, #1
 80008c0:	1e43      	subs	r3, r0, #1
 80008c2:	462a      	mov	r2, r5
 80008c4:	2000      	movs	r0, #0
 80008c6:	270a      	movs	r7, #10
 80008c8:	e003      	b.n	80008d2 <ParseNumber+0x1e>
 80008ca:	3201      	adds	r2, #1
 80008cc:	fb07 4000 	mla	r0, r7, r0, r4
 80008d0:	b2d2      	uxtb	r2, r2
 80008d2:	f813 4f01 	ldrb.w	r4, [r3, #1]!
 80008d6:	3c30      	subs	r4, #48	; 0x30
 80008d8:	b2e6      	uxtb	r6, r4
 80008da:	2e09      	cmp	r6, #9
 80008dc:	d9f5      	bls.n	80008ca <ParseNumber+0x16>
 80008de:	b101      	cbz	r1, 80008e2 <ParseNumber+0x2e>
 80008e0:	700a      	strb	r2, [r1, #0]
 80008e2:	b105      	cbz	r5, 80008e6 <ParseNumber+0x32>
 80008e4:	4240      	negs	r0, r0
 80008e6:	bdf0      	pop	{r4, r5, r6, r7, pc}
 80008e8:	2500      	movs	r5, #0
 80008ea:	e7e9      	b.n	80008c0 <ParseNumber+0xc>

080008ec <EscapeStringAndSend>:
 80008ec:	b573      	push	{r0, r1, r4, r5, r6, lr}
 80008ee:	ad02      	add	r5, sp, #8
 80008f0:	235c      	movs	r3, #92	; 0x5c
 80008f2:	f805 3d01 	strb.w	r3, [r5, #-1]!
 80008f6:	4604      	mov	r4, r0
 80008f8:	4626      	mov	r6, r4
 80008fa:	f814 3b01 	ldrb.w	r3, [r4], #1
 80008fe:	b90b      	cbnz	r3, 8000904 <EscapeStringAndSend+0x18>
 8000900:	b002      	add	sp, #8
 8000902:	bd70      	pop	{r4, r5, r6, pc}
 8000904:	2b2c      	cmp	r3, #44	; 0x2c
 8000906:	d003      	beq.n	8000910 <EscapeStringAndSend+0x24>
 8000908:	2b22      	cmp	r3, #34	; 0x22
 800090a:	d001      	beq.n	8000910 <EscapeStringAndSend+0x24>
 800090c:	2b5c      	cmp	r3, #92	; 0x5c
 800090e:	d103      	bne.n	8000918 <EscapeStringAndSend+0x2c>
 8000910:	2101      	movs	r1, #1
 8000912:	4628      	mov	r0, r5
 8000914:	f001 fa70 	bl	8001df8 <ESP8266_LL_USARTSend>
 8000918:	2101      	movs	r1, #1
 800091a:	4630      	mov	r0, r6
 800091c:	f001 fa6c 	bl	8001df8 <ESP8266_LL_USARTSend>
 8000920:	e7ea      	b.n	80008f8 <EscapeStringAndSend+0xc>
	...

08000924 <ParseIP>:
 8000924:	e92d 41f0 	stmdb	sp!, {r4, r5, r6, r7, r8, lr}
 8000928:	b086      	sub	sp, #24
 800092a:	4615      	mov	r5, r2
 800092c:	460f      	mov	r7, r1
 800092e:	4603      	mov	r3, r0
 8000930:	aa02      	add	r2, sp, #8
 8000932:	f100 0608 	add.w	r6, r0, #8
 8000936:	6818      	ldr	r0, [r3, #0]
 8000938:	6859      	ldr	r1, [r3, #4]
 800093a:	4614      	mov	r4, r2
 800093c:	c403      	stmia	r4!, {r0, r1}
 800093e:	3308      	adds	r3, #8
 8000940:	42b3      	cmp	r3, r6
 8000942:	4622      	mov	r2, r4
 8000944:	d1f7      	bne.n	8000936 <ParseIP+0x12>
 8000946:	6818      	ldr	r0, [r3, #0]
 8000948:	6020      	str	r0, [r4, #0]
 800094a:	8899      	ldrh	r1, [r3, #4]
 800094c:	799b      	ldrb	r3, [r3, #6]
 800094e:	71a3      	strb	r3, [r4, #6]
 8000950:	80a1      	strh	r1, [r4, #4]
 8000952:	a802      	add	r0, sp, #8
 8000954:	2400      	movs	r4, #0
 8000956:	4911      	ldr	r1, [pc, #68]	; (800099c <ParseIP+0x78>)
 8000958:	f88d 4017 	strb.w	r4, [sp, #23]
 800095c:	f008 fa7a 	bl	8008e54 <strtok>
 8000960:	f8df 8038 	ldr.w	r8, [pc, #56]	; 800099c <ParseIP+0x78>
 8000964:	1e7e      	subs	r6, r7, #1
 8000966:	3703      	adds	r7, #3
 8000968:	b920      	cbnz	r0, 8000974 <ParseIP+0x50>
 800096a:	b105      	cbz	r5, 800096e <ParseIP+0x4a>
 800096c:	702c      	strb	r4, [r5, #0]
 800096e:	b006      	add	sp, #24
 8000970:	e8bd 81f0 	ldmia.w	sp!, {r4, r5, r6, r7, r8, pc}
 8000974:	f10d 0107 	add.w	r1, sp, #7
 8000978:	f7ff ff9c 	bl	80008b4 <ParseNumber>
 800097c:	f89d 3007 	ldrb.w	r3, [sp, #7]
 8000980:	f806 0f01 	strb.w	r0, [r6, #1]!
 8000984:	441c      	add	r4, r3
 8000986:	42be      	cmp	r6, r7
 8000988:	b2e4      	uxtb	r4, r4
 800098a:	d0ee      	beq.n	800096a <ParseIP+0x46>
 800098c:	3401      	adds	r4, #1
 800098e:	4641      	mov	r1, r8
 8000990:	2000      	movs	r0, #0
 8000992:	b2e4      	uxtb	r4, r4
 8000994:	f008 fa5e 	bl	8008e54 <strtok>
 8000998:	e7e6      	b.n	8000968 <ParseIP+0x44>
 800099a:	bf00      	nop
 800099c:	08009700 	.word	0x08009700

080009a0 <ParseCIPSTA>:
 80009a0:	b538      	push	{r3, r4, r5, lr}
 80009a2:	220e      	movs	r2, #14
 80009a4:	4604      	mov	r4, r0
 80009a6:	4858      	ldr	r0, [pc, #352]	; (8000b08 <ParseCIPSTA+0x168>)
 80009a8:	460d      	mov	r5, r1
 80009aa:	f008 fa27 	bl	8008dfc <strncmp>
 80009ae:	2800      	cmp	r0, #0
 80009b0:	d04d      	beq.n	8000a4e <ParseCIPSTA+0xae>
 80009b2:	2213      	movs	r2, #19
 80009b4:	4629      	mov	r1, r5
 80009b6:	4855      	ldr	r0, [pc, #340]	; (8000b0c <ParseCIPSTA+0x16c>)
 80009b8:	f008 fa20 	bl	8008dfc <strncmp>
 80009bc:	2800      	cmp	r0, #0
 80009be:	d057      	beq.n	8000a70 <ParseCIPSTA+0xd0>
 80009c0:	2213      	movs	r2, #19
 80009c2:	4629      	mov	r1, r5
 80009c4:	4852      	ldr	r0, [pc, #328]	; (8000b10 <ParseCIPSTA+0x170>)
 80009c6:	f008 fa19 	bl	8008dfc <strncmp>
 80009ca:	2800      	cmp	r0, #0
 80009cc:	d05f      	beq.n	8000a8e <ParseCIPSTA+0xee>
 80009ce:	220a      	movs	r2, #10
 80009d0:	4629      	mov	r1, r5
 80009d2:	4850      	ldr	r0, [pc, #320]	; (8000b14 <ParseCIPSTA+0x174>)
 80009d4:	f008 fa12 	bl	8008dfc <strncmp>
 80009d8:	2800      	cmp	r0, #0
 80009da:	d047      	beq.n	8000a6c <ParseCIPSTA+0xcc>
 80009dc:	220f      	movs	r2, #15
 80009de:	4629      	mov	r1, r5
 80009e0:	484d      	ldr	r0, [pc, #308]	; (8000b18 <ParseCIPSTA+0x178>)
 80009e2:	f008 fa0b 	bl	8008dfc <strncmp>
 80009e6:	2800      	cmp	r0, #0
 80009e8:	d04f      	beq.n	8000a8a <ParseCIPSTA+0xea>
 80009ea:	220f      	movs	r2, #15
 80009ec:	4629      	mov	r1, r5
 80009ee:	484b      	ldr	r0, [pc, #300]	; (8000b1c <ParseCIPSTA+0x17c>)
 80009f0:	f008 fa04 	bl	8008dfc <strncmp>
 80009f4:	2800      	cmp	r0, #0
 80009f6:	d057      	beq.n	8000aa8 <ParseCIPSTA+0x108>
 80009f8:	220d      	movs	r2, #13
 80009fa:	4629      	mov	r1, r5
 80009fc:	4848      	ldr	r0, [pc, #288]	; (8000b20 <ParseCIPSTA+0x180>)
 80009fe:	f008 f9fd 	bl	8008dfc <strncmp>
 8000a02:	2800      	cmp	r0, #0
 8000a04:	d052      	beq.n	8000aac <ParseCIPSTA+0x10c>
 8000a06:	2212      	movs	r2, #18
 8000a08:	4629      	mov	r1, r5
 8000a0a:	4846      	ldr	r0, [pc, #280]	; (8000b24 <ParseCIPSTA+0x184>)
 8000a0c:	f008 f9f6 	bl	8008dfc <strncmp>
 8000a10:	2800      	cmp	r0, #0
 8000a12:	d05a      	beq.n	8000aca <ParseCIPSTA+0x12a>
 8000a14:	2212      	movs	r2, #18
 8000a16:	4629      	mov	r1, r5
 8000a18:	4843      	ldr	r0, [pc, #268]	; (8000b28 <ParseCIPSTA+0x188>)
 8000a1a:	f008 f9ef 	bl	8008dfc <strncmp>
 8000a1e:	2800      	cmp	r0, #0
 8000a20:	d062      	beq.n	8000ae8 <ParseCIPSTA+0x148>
 8000a22:	2209      	movs	r2, #9
 8000a24:	4629      	mov	r1, r5
 8000a26:	4841      	ldr	r0, [pc, #260]	; (8000b2c <ParseCIPSTA+0x18c>)
 8000a28:	f008 f9e8 	bl	8008dfc <strncmp>
 8000a2c:	2800      	cmp	r0, #0
 8000a2e:	d04a      	beq.n	8000ac6 <ParseCIPSTA+0x126>
 8000a30:	220e      	movs	r2, #14
 8000a32:	4629      	mov	r1, r5
 8000a34:	483e      	ldr	r0, [pc, #248]	; (8000b30 <ParseCIPSTA+0x190>)
 8000a36:	f008 f9e1 	bl	8008dfc <strncmp>
 8000a3a:	2800      	cmp	r0, #0
 8000a3c:	d052      	beq.n	8000ae4 <ParseCIPSTA+0x144>
 8000a3e:	220e      	movs	r2, #14
 8000a40:	4629      	mov	r1, r5
 8000a42:	483c      	ldr	r0, [pc, #240]	; (8000b34 <ParseCIPSTA+0x194>)
 8000a44:	f008 f9da 	bl	8008dfc <strncmp>
 8000a48:	2800      	cmp	r0, #0
 8000a4a:	d05a      	beq.n	8000b02 <ParseCIPSTA+0x162>
 8000a4c:	bd38      	pop	{r3, r4, r5, pc}
 8000a4e:	200e      	movs	r0, #14
 8000a50:	3002      	adds	r0, #2
 8000a52:	2200      	movs	r2, #0
 8000a54:	f104 01f8 	add.w	r1, r4, #248	; 0xf8
 8000a58:	4428      	add	r0, r5
 8000a5a:	f7ff ff63 	bl	8000924 <ParseIP>
 8000a5e:	f894 31f0 	ldrb.w	r3, [r4, #496]	; 0x1f0
 8000a62:	f043 0301 	orr.w	r3, r3, #1
 8000a66:	f884 31f0 	strb.w	r3, [r4, #496]	; 0x1f0
 8000a6a:	e7ef      	b.n	8000a4c <ParseCIPSTA+0xac>
 8000a6c:	200a      	movs	r0, #10
 8000a6e:	e7ef      	b.n	8000a50 <ParseCIPSTA+0xb0>
 8000a70:	2013      	movs	r0, #19
 8000a72:	3002      	adds	r0, #2
 8000a74:	2200      	movs	r2, #0
 8000a76:	f504 7180 	add.w	r1, r4, #256	; 0x100
 8000a7a:	4428      	add	r0, r5
 8000a7c:	f7ff ff52 	bl	8000924 <ParseIP>
 8000a80:	f894 31f0 	ldrb.w	r3, [r4, #496]	; 0x1f0
 8000a84:	f043 0302 	orr.w	r3, r3, #2
 8000a88:	e7ed      	b.n	8000a66 <ParseCIPSTA+0xc6>
 8000a8a:	200f      	movs	r0, #15
 8000a8c:	e7f1      	b.n	8000a72 <ParseCIPSTA+0xd2>
 8000a8e:	2013      	movs	r0, #19
 8000a90:	3002      	adds	r0, #2
 8000a92:	2200      	movs	r2, #0
 8000a94:	f104 01fc 	add.w	r1, r4, #252	; 0xfc
 8000a98:	4428      	add	r0, r5
 8000a9a:	f7ff ff43 	bl	8000924 <ParseIP>
 8000a9e:	f894 31f0 	ldrb.w	r3, [r4, #496]	; 0x1f0
 8000aa2:	f043 0304 	orr.w	r3, r3, #4
 8000aa6:	e7de      	b.n	8000a66 <ParseCIPSTA+0xc6>
 8000aa8:	200f      	movs	r0, #15
 8000aaa:	e7f1      	b.n	8000a90 <ParseCIPSTA+0xf0>
 8000aac:	200d      	movs	r0, #13
 8000aae:	3002      	adds	r0, #2
 8000ab0:	2200      	movs	r2, #0
 8000ab2:	f504 7185 	add.w	r1, r4, #266	; 0x10a
 8000ab6:	4428      	add	r0, r5
 8000ab8:	f7ff ff34 	bl	8000924 <ParseIP>
 8000abc:	f894 31f0 	ldrb.w	r3, [r4, #496]	; 0x1f0
 8000ac0:	f043 0310 	orr.w	r3, r3, #16
 8000ac4:	e7cf      	b.n	8000a66 <ParseCIPSTA+0xc6>
 8000ac6:	2009      	movs	r0, #9
 8000ac8:	e7f1      	b.n	8000aae <ParseCIPSTA+0x10e>
 8000aca:	2012      	movs	r0, #18
 8000acc:	3002      	adds	r0, #2
 8000ace:	2200      	movs	r2, #0
 8000ad0:	f504 7189 	add.w	r1, r4, #274	; 0x112
 8000ad4:	4428      	add	r0, r5
 8000ad6:	f7ff ff25 	bl	8000924 <ParseIP>
 8000ada:	f894 31f0 	ldrb.w	r3, [r4, #496]	; 0x1f0
 8000ade:	f043 0320 	orr.w	r3, r3, #32
 8000ae2:	e7c0      	b.n	8000a66 <ParseCIPSTA+0xc6>
 8000ae4:	200e      	movs	r0, #14
 8000ae6:	e7f1      	b.n	8000acc <ParseCIPSTA+0x12c>
 8000ae8:	2012      	movs	r0, #18
 8000aea:	3002      	adds	r0, #2
 8000aec:	2200      	movs	r2, #0
 8000aee:	f504 7187 	add.w	r1, r4, #270	; 0x10e
 8000af2:	4428      	add	r0, r5
 8000af4:	f7ff ff16 	bl	8000924 <ParseIP>
 8000af8:	f894 31f0 	ldrb.w	r3, [r4, #496]	; 0x1f0
 8000afc:	f043 0340 	orr.w	r3, r3, #64	; 0x40
 8000b00:	e7b1      	b.n	8000a66 <ParseCIPSTA+0xc6>
 8000b02:	200e      	movs	r0, #14
 8000b04:	e7f1      	b.n	8000aea <ParseCIPSTA+0x14a>
 8000b06:	bf00      	nop
 8000b08:	08009642 	.word	0x08009642
 8000b0c:	08009651 	.word	0x08009651
 8000b10:	08009665 	.word	0x08009665
 8000b14:	08009679 	.word	0x08009679
 8000b18:	08009684 	.word	0x08009684
 8000b1c:	08009694 	.word	0x08009694
 8000b20:	080096a4 	.word	0x080096a4
 8000b24:	080096b2 	.word	0x080096b2
 8000b28:	080096c5 	.word	0x080096c5
 8000b2c:	080096d8 	.word	0x080096d8
 8000b30:	080096e2 	.word	0x080096e2
 8000b34:	080096f1 	.word	0x080096f1

08000b38 <ParseMAC>:
 8000b38:	e92d 43f8 	stmdb	sp!, {r3, r4, r5, r6, r7, r8, r9, lr}
 8000b3c:	460d      	mov	r5, r1
 8000b3e:	4922      	ldr	r1, [pc, #136]	; (8000bc8 <ParseMAC+0x90>)
 8000b40:	f8df 8084 	ldr.w	r8, [pc, #132]	; 8000bc8 <ParseMAC+0x90>
 8000b44:	4616      	mov	r6, r2
 8000b46:	f008 f985 	bl	8008e54 <strtok>
 8000b4a:	1e6f      	subs	r7, r5, #1
 8000b4c:	2400      	movs	r4, #0
 8000b4e:	3505      	adds	r5, #5
 8000b50:	b3b0      	cbz	r0, 8000bc0 <ParseMAC+0x88>
 8000b52:	4686      	mov	lr, r0
 8000b54:	2100      	movs	r1, #0
 8000b56:	e00b      	b.n	8000b70 <ParseMAC+0x38>
 8000b58:	2b09      	cmp	r3, #9
 8000b5a:	ea4f 1101 	mov.w	r1, r1, lsl #4
 8000b5e:	d906      	bls.n	8000b6e <ParseMAC+0x36>
 8000b60:	f1a2 0361 	sub.w	r3, r2, #97	; 0x61
 8000b64:	2b05      	cmp	r3, #5
 8000b66:	d822      	bhi.n	8000bae <ParseMAC+0x76>
 8000b68:	f1a2 0357 	sub.w	r3, r2, #87	; 0x57
 8000b6c:	b2db      	uxtb	r3, r3
 8000b6e:	4419      	add	r1, r3
 8000b70:	ebae 0c00 	sub.w	ip, lr, r0
 8000b74:	f81e 2b01 	ldrb.w	r2, [lr], #1
 8000b78:	f1a2 0330 	sub.w	r3, r2, #48	; 0x30
 8000b7c:	b2db      	uxtb	r3, r3
 8000b7e:	2b09      	cmp	r3, #9
 8000b80:	fa5f fc8c 	uxtb.w	ip, ip
 8000b84:	d9e8      	bls.n	8000b58 <ParseMAC+0x20>
 8000b86:	f022 0920 	bic.w	r9, r2, #32
 8000b8a:	f1a9 0941 	sub.w	r9, r9, #65	; 0x41
 8000b8e:	f1b9 0f05 	cmp.w	r9, #5
 8000b92:	d9e1      	bls.n	8000b58 <ParseMAC+0x20>
 8000b94:	f807 1f01 	strb.w	r1, [r7, #1]!
 8000b98:	4464      	add	r4, ip
 8000b9a:	42af      	cmp	r7, r5
 8000b9c:	b2e4      	uxtb	r4, r4
 8000b9e:	d00f      	beq.n	8000bc0 <ParseMAC+0x88>
 8000ba0:	3401      	adds	r4, #1
 8000ba2:	4641      	mov	r1, r8
 8000ba4:	2000      	movs	r0, #0
 8000ba6:	b2e4      	uxtb	r4, r4
 8000ba8:	f008 f954 	bl	8008e54 <strtok>
 8000bac:	e7d0      	b.n	8000b50 <ParseMAC+0x18>
 8000bae:	f1a2 0341 	sub.w	r3, r2, #65	; 0x41
 8000bb2:	2b05      	cmp	r3, #5
 8000bb4:	d802      	bhi.n	8000bbc <ParseMAC+0x84>
 8000bb6:	f1a2 0337 	sub.w	r3, r2, #55	; 0x37
 8000bba:	e7d7      	b.n	8000b6c <ParseMAC+0x34>
 8000bbc:	2300      	movs	r3, #0
 8000bbe:	e7d6      	b.n	8000b6e <ParseMAC+0x36>
 8000bc0:	b106      	cbz	r6, 8000bc4 <ParseMAC+0x8c>
 8000bc2:	7034      	strb	r4, [r6, #0]
 8000bc4:	e8bd 83f8 	ldmia.w	sp!, {r3, r4, r5, r6, r7, r8, r9, pc}
 8000bc8:	080097c3 	.word	0x080097c3

08000bcc <Int2String>:
 8000bcc:	460a      	mov	r2, r1
 8000bce:	4901      	ldr	r1, [pc, #4]	; (8000bd4 <Int2String+0x8>)
 8000bd0:	f008 b8f4 	b.w	8008dbc <siprintf>
 8000bd4:	0800963f 	.word	0x0800963f

08000bd8 <ESP8266_TimeUpdate>:
 8000bd8:	6903      	ldr	r3, [r0, #16]
 8000bda:	4419      	add	r1, r3
 8000bdc:	6101      	str	r1, [r0, #16]
 8000bde:	4770      	bx	lr

08000be0 <ESP8266_DataReceived>:
 8000be0:	b508      	push	{r3, lr}
 8000be2:	460a      	mov	r2, r1
 8000be4:	4601      	mov	r1, r0
 8000be6:	4802      	ldr	r0, [pc, #8]	; (8000bf0 <ESP8266_DataReceived+0x10>)
 8000be8:	f7ff fd0c 	bl	8000604 <BUFFER_Write>
 8000bec:	b280      	uxth	r0, r0
 8000bee:	bd08      	pop	{r3, pc}
 8000bf0:	20001da4 	.word	0x20001da4

08000bf4 <ESP8266_Callback_ServerConnectionActive>:
 8000bf4:	4770      	bx	lr

08000bf6 <ESP8266_Callback_ServerConnectionClosed>:
 8000bf6:	4770      	bx	lr

08000bf8 <ESP8266_Callback_ServerConnectionDataReceived>:
 8000bf8:	4770      	bx	lr

08000bfa <ESP8266_Callback_ServerConnectionSendData>:
 8000bfa:	2000      	movs	r0, #0
 8000bfc:	4770      	bx	lr

08000bfe <ESP8266_Callback_ServerConnectionDataSent>:
 8000bfe:	4770      	bx	lr

08000c00 <ESP8266_Callback_ServerConnectionDataSentError>:
 8000c00:	4770      	bx	lr

08000c02 <CallConnectionCallbacks>:
 8000c02:	e92d 41f0 	stmdb	sp!, {r4, r5, r6, r7, r8, lr}
 8000c06:	2400      	movs	r4, #0
 8000c08:	4605      	mov	r5, r0
 8000c0a:	262c      	movs	r6, #44	; 0x2c
 8000c0c:	4627      	mov	r7, r4
 8000c0e:	f100 081c 	add.w	r8, r0, #28
 8000c12:	fb06 5304 	mla	r3, r6, r4, r5
 8000c16:	f893 3044 	ldrb.w	r3, [r3, #68]	; 0x44
 8000c1a:	07d9      	lsls	r1, r3, #31
 8000c1c:	d51d      	bpl.n	8000c5a <CallConnectionCallbacks+0x58>
 8000c1e:	071a      	lsls	r2, r3, #28
 8000c20:	d51b      	bpl.n	8000c5a <CallConnectionCallbacks+0x58>
 8000c22:	079b      	lsls	r3, r3, #30
 8000c24:	d401      	bmi.n	8000c2a <CallConnectionCallbacks+0x28>
 8000c26:	686b      	ldr	r3, [r5, #4]
 8000c28:	b9bb      	cbnz	r3, 8000c5a <CallConnectionCallbacks+0x58>
 8000c2a:	fb06 f104 	mul.w	r1, r6, r4
 8000c2e:	186b      	adds	r3, r5, r1
 8000c30:	4628      	mov	r0, r5
 8000c32:	f893 2044 	ldrb.w	r2, [r3, #68]	; 0x44
 8000c36:	f8b3 c034 	ldrh.w	ip, [r3, #52]	; 0x34
 8000c3a:	f36f 02c3 	bfc	r2, #3, #1
 8000c3e:	f883 2044 	strb.w	r2, [r3, #68]	; 0x44
 8000c42:	6b1a      	ldr	r2, [r3, #48]	; 0x30
 8000c44:	f802 700c 	strb.w	r7, [r2, ip]
 8000c48:	f893 2044 	ldrb.w	r2, [r3, #68]	; 0x44
 8000c4c:	f012 0f02 	tst.w	r2, #2
 8000c50:	4441      	add	r1, r8
 8000c52:	6b1a      	ldr	r2, [r3, #48]	; 0x30
 8000c54:	d006      	beq.n	8000c64 <CallConnectionCallbacks+0x62>
 8000c56:	f001 fac4 	bl	80021e2 <ESP8266_Callback_ClientConnectionDataReceived>
 8000c5a:	3401      	adds	r4, #1
 8000c5c:	2c05      	cmp	r4, #5
 8000c5e:	d1d8      	bne.n	8000c12 <CallConnectionCallbacks+0x10>
 8000c60:	e8bd 81f0 	ldmia.w	sp!, {r4, r5, r6, r7, r8, pc}
 8000c64:	f7ff ffc8 	bl	8000bf8 <ESP8266_Callback_ServerConnectionDataReceived>
 8000c68:	e7f7      	b.n	8000c5a <CallConnectionCallbacks+0x58>

08000c6a <ESP8266_Callback_PingFinished>:
 8000c6a:	4770      	bx	lr

08000c6c <ESP8266_Callback_ConnectedStationsDetected>:
 8000c6c:	4770      	bx	lr
	...

08000c70 <ParseReceived>:
 8000c70:	e92d 4ff7 	stmdb	sp!, {r0, r1, r2, r4, r5, r6, r7, r8, r9, sl, fp, lr}
 8000c74:	2a02      	cmp	r2, #2
 8000c76:	461f      	mov	r7, r3
 8000c78:	6903      	ldr	r3, [r0, #16]
 8000c7a:	6143      	str	r3, [r0, #20]
 8000c7c:	4604      	mov	r4, r0
 8000c7e:	460d      	mov	r5, r1
 8000c80:	4616      	mov	r6, r2
 8000c82:	d109      	bne.n	8000c98 <ParseReceived+0x28>
 8000c84:	780b      	ldrb	r3, [r1, #0]
 8000c86:	2b0d      	cmp	r3, #13
 8000c88:	d106      	bne.n	8000c98 <ParseReceived+0x28>
 8000c8a:	784b      	ldrb	r3, [r1, #1]
 8000c8c:	2b0a      	cmp	r3, #10
 8000c8e:	d103      	bne.n	8000c98 <ParseReceived+0x28>
 8000c90:	2000      	movs	r0, #0
 8000c92:	b003      	add	sp, #12
 8000c94:	e8bd 8ff0 	ldmia.w	sp!, {r4, r5, r6, r7, r8, r9, sl, fp, pc}
 8000c98:	4974      	ldr	r1, [pc, #464]	; (8000e6c <ParseReceived+0x1fc>)
 8000c9a:	f8d4 9004 	ldr.w	r9, [r4, #4]
 8000c9e:	4628      	mov	r0, r5
 8000ca0:	f7ff fa96 	bl	80001d0 <strcmp>
 8000ca4:	4680      	mov	r8, r0
 8000ca6:	f1b9 0f00 	cmp.w	r9, #0
 8000caa:	d037      	beq.n	8000d1c <ParseReceived+0xac>
 8000cac:	b3b7      	cbz	r7, 8000d1c <ParseReceived+0xac>
 8000cae:	4970      	ldr	r1, [pc, #448]	; (8000e70 <ParseReceived+0x200>)
 8000cb0:	4628      	mov	r0, r5
 8000cb2:	f7ff fa8d 	bl	80001d0 <strcmp>
 8000cb6:	b388      	cbz	r0, 8000d1c <ParseReceived+0xac>
 8000cb8:	496e      	ldr	r1, [pc, #440]	; (8000e74 <ParseReceived+0x204>)
 8000cba:	4628      	mov	r0, r5
 8000cbc:	f7ff fa88 	bl	80001d0 <strcmp>
 8000cc0:	b360      	cbz	r0, 8000d1c <ParseReceived+0xac>
 8000cc2:	496d      	ldr	r1, [pc, #436]	; (8000e78 <ParseReceived+0x208>)
 8000cc4:	4628      	mov	r0, r5
 8000cc6:	f7ff fa83 	bl	80001d0 <strcmp>
 8000cca:	b338      	cbz	r0, 8000d1c <ParseReceived+0xac>
 8000ccc:	496b      	ldr	r1, [pc, #428]	; (8000e7c <ParseReceived+0x20c>)
 8000cce:	1c68      	adds	r0, r5, #1
 8000cd0:	f7ff fa7e 	bl	80001d0 <strcmp>
 8000cd4:	b310      	cbz	r0, 8000d1c <ParseReceived+0xac>
 8000cd6:	496a      	ldr	r1, [pc, #424]	; (8000e80 <ParseReceived+0x210>)
 8000cd8:	4628      	mov	r0, r5
 8000cda:	f7ff fa79 	bl	80001d0 <strcmp>
 8000cde:	b1e8      	cbz	r0, 8000d1c <ParseReceived+0xac>
 8000ce0:	f1b8 0f00 	cmp.w	r8, #0
 8000ce4:	d01d      	beq.n	8000d22 <ParseReceived+0xb2>
 8000ce6:	4967      	ldr	r1, [pc, #412]	; (8000e84 <ParseReceived+0x214>)
 8000ce8:	4628      	mov	r0, r5
 8000cea:	f7ff fa71 	bl	80001d0 <strcmp>
 8000cee:	b1d8      	cbz	r0, 8000d28 <ParseReceived+0xb8>
 8000cf0:	2205      	movs	r2, #5
 8000cf2:	4965      	ldr	r1, [pc, #404]	; (8000e88 <ParseReceived+0x218>)
 8000cf4:	4628      	mov	r0, r5
 8000cf6:	f008 f881 	bl	8008dfc <strncmp>
 8000cfa:	b1a8      	cbz	r0, 8000d28 <ParseReceived+0xb8>
 8000cfc:	f8d4 8008 	ldr.w	r8, [r4, #8]
 8000d00:	4640      	mov	r0, r8
 8000d02:	f7ff fa6f 	bl	80001e4 <strlen>
 8000d06:	4641      	mov	r1, r8
 8000d08:	4602      	mov	r2, r0
 8000d0a:	4628      	mov	r0, r5
 8000d0c:	f008 f876 	bl	8008dfc <strncmp>
 8000d10:	b150      	cbz	r0, 8000d28 <ParseReceived+0xb8>
 8000d12:	4629      	mov	r1, r5
 8000d14:	485d      	ldr	r0, [pc, #372]	; (8000e8c <ParseReceived+0x21c>)
 8000d16:	f7ff fd84 	bl	8000822 <BUFFER_WriteString>
 8000d1a:	e7b9      	b.n	8000c90 <ParseReceived+0x20>
 8000d1c:	f1b8 0f00 	cmp.w	r8, #0
 8000d20:	d102      	bne.n	8000d28 <ParseReceived+0xb8>
 8000d22:	4620      	mov	r0, r4
 8000d24:	f001 fa50 	bl	80021c8 <ESP8266_Callback_DeviceReady>
 8000d28:	4959      	ldr	r1, [pc, #356]	; (8000e90 <ParseReceived+0x220>)
 8000d2a:	4628      	mov	r0, r5
 8000d2c:	f7ff fa50 	bl	80001d0 <strcmp>
 8000d30:	b910      	cbnz	r0, 8000d38 <ParseReceived+0xc8>
 8000d32:	4620      	mov	r0, r4
 8000d34:	f001 fa49 	bl	80021ca <ESP8266_Callback_WatchdogReset>
 8000d38:	4620      	mov	r0, r4
 8000d3a:	f7ff ff62 	bl	8000c02 <CallConnectionCallbacks>
 8000d3e:	4955      	ldr	r1, [pc, #340]	; (8000e94 <ParseReceived+0x224>)
 8000d40:	4628      	mov	r0, r5
 8000d42:	f7ff fa45 	bl	80001d0 <strcmp>
 8000d46:	bb40      	cbnz	r0, 8000d9a <ParseReceived+0x12a>
 8000d48:	f894 31f1 	ldrb.w	r3, [r4, #497]	; 0x1f1
 8000d4c:	f043 0304 	orr.w	r3, r3, #4
 8000d50:	f884 31f1 	strb.w	r3, [r4, #497]	; 0x1f1
 8000d54:	4620      	mov	r0, r4
 8000d56:	f001 fa3a 	bl	80021ce <ESP8266_Callback_WifiConnected>
 8000d5a:	4946      	ldr	r1, [pc, #280]	; (8000e74 <ParseReceived+0x204>)
 8000d5c:	4628      	mov	r0, r5
 8000d5e:	f008 f85f 	bl	8008e20 <strstr>
 8000d62:	4680      	mov	r8, r0
 8000d64:	2800      	cmp	r0, #0
 8000d66:	d05c      	beq.n	8000e22 <ParseReceived+0x1b2>
 8000d68:	2500      	movs	r5, #0
 8000d6a:	6065      	str	r5, [r4, #4]
 8000d6c:	262c      	movs	r6, #44	; 0x2c
 8000d6e:	f104 071c 	add.w	r7, r4, #28
 8000d72:	fb06 f105 	mul.w	r1, r6, r5
 8000d76:	1862      	adds	r2, r4, r1
 8000d78:	3240      	adds	r2, #64	; 0x40
 8000d7a:	7913      	ldrb	r3, [r2, #4]
 8000d7c:	0758      	lsls	r0, r3, #29
 8000d7e:	d508      	bpl.n	8000d92 <ParseReceived+0x122>
 8000d80:	f36f 0382 	bfc	r3, #2, #1
 8000d84:	7113      	strb	r3, [r2, #4]
 8000d86:	079b      	lsls	r3, r3, #30
 8000d88:	4439      	add	r1, r7
 8000d8a:	4620      	mov	r0, r4
 8000d8c:	d546      	bpl.n	8000e1c <ParseReceived+0x1ac>
 8000d8e:	f001 fa26 	bl	80021de <ESP8266_Callback_ClientConnectionDataSent>
 8000d92:	3501      	adds	r5, #1
 8000d94:	2d05      	cmp	r5, #5
 8000d96:	d1ec      	bne.n	8000d72 <ParseReceived+0x102>
 8000d98:	e77a      	b.n	8000c90 <ParseReceived+0x20>
 8000d9a:	493f      	ldr	r1, [pc, #252]	; (8000e98 <ParseReceived+0x228>)
 8000d9c:	4628      	mov	r0, r5
 8000d9e:	f7ff fa17 	bl	80001d0 <strcmp>
 8000da2:	4680      	mov	r8, r0
 8000da4:	bb08      	cbnz	r0, 8000dea <ParseReceived+0x17a>
 8000da6:	f894 31f1 	ldrb.w	r3, [r4, #497]	; 0x1f1
 8000daa:	f360 0382 	bfi	r3, r0, #2, #1
 8000dae:	f360 03c3 	bfi	r3, r0, #3, #1
 8000db2:	4601      	mov	r1, r0
 8000db4:	f884 31f1 	strb.w	r3, [r4, #497]	; 0x1f1
 8000db8:	221a      	movs	r2, #26
 8000dba:	f504 70b0 	add.w	r0, r4, #352	; 0x160
 8000dbe:	f007 ff3d 	bl	8008c3c <memset>
 8000dc2:	212c      	movs	r1, #44	; 0x2c
 8000dc4:	fb01 4308 	mla	r3, r1, r8, r4
 8000dc8:	f108 0801 	add.w	r8, r8, #1
 8000dcc:	f893 2044 	ldrb.w	r2, [r3, #68]	; 0x44
 8000dd0:	f002 02bc 	and.w	r2, r2, #188	; 0xbc
 8000dd4:	f36f 1245 	bfc	r2, #5, #1
 8000dd8:	f1b8 0f05 	cmp.w	r8, #5
 8000ddc:	f883 2044 	strb.w	r2, [r3, #68]	; 0x44
 8000de0:	d1f0      	bne.n	8000dc4 <ParseReceived+0x154>
 8000de2:	4620      	mov	r0, r4
 8000de4:	f001 f9f2 	bl	80021cc <ESP8266_Callback_WifiDisconnected>
 8000de8:	e7b7      	b.n	8000d5a <ParseReceived+0xea>
 8000dea:	492c      	ldr	r1, [pc, #176]	; (8000e9c <ParseReceived+0x22c>)
 8000dec:	4628      	mov	r0, r5
 8000dee:	f7ff f9ef 	bl	80001d0 <strcmp>
 8000df2:	b948      	cbnz	r0, 8000e08 <ParseReceived+0x198>
 8000df4:	f894 31f1 	ldrb.w	r3, [r4, #497]	; 0x1f1
 8000df8:	f043 0308 	orr.w	r3, r3, #8
 8000dfc:	f884 31f1 	strb.w	r3, [r4, #497]	; 0x1f1
 8000e00:	4620      	mov	r0, r4
 8000e02:	f001 f9e6 	bl	80021d2 <ESP8266_Callback_WifiGotIP>
 8000e06:	e7a8      	b.n	8000d5a <ParseReceived+0xea>
 8000e08:	4925      	ldr	r1, [pc, #148]	; (8000ea0 <ParseReceived+0x230>)
 8000e0a:	4628      	mov	r0, r5
 8000e0c:	f7ff f9e0 	bl	80001d0 <strcmp>
 8000e10:	2800      	cmp	r0, #0
 8000e12:	d1a2      	bne.n	8000d5a <ParseReceived+0xea>
 8000e14:	4620      	mov	r0, r4
 8000e16:	f001 f9de 	bl	80021d6 <ESP8266_Callback_DHCPTimeout>
 8000e1a:	e79e      	b.n	8000d5a <ParseReceived+0xea>
 8000e1c:	f7ff feef 	bl	8000bfe <ESP8266_Callback_ServerConnectionDataSent>
 8000e20:	e7b7      	b.n	8000d92 <ParseReceived+0x122>
 8000e22:	4915      	ldr	r1, [pc, #84]	; (8000e78 <ParseReceived+0x208>)
 8000e24:	4628      	mov	r0, r5
 8000e26:	f007 fffb 	bl	8008e20 <strstr>
 8000e2a:	2800      	cmp	r0, #0
 8000e2c:	d03a      	beq.n	8000ea4 <ParseReceived+0x234>
 8000e2e:	f8c4 8004 	str.w	r8, [r4, #4]
 8000e32:	262c      	movs	r6, #44	; 0x2c
 8000e34:	f104 071c 	add.w	r7, r4, #28
 8000e38:	fb06 f108 	mul.w	r1, r6, r8
 8000e3c:	1862      	adds	r2, r4, r1
 8000e3e:	3240      	adds	r2, #64	; 0x40
 8000e40:	7913      	ldrb	r3, [r2, #4]
 8000e42:	0758      	lsls	r0, r3, #29
 8000e44:	d508      	bpl.n	8000e58 <ParseReceived+0x1e8>
 8000e46:	f36f 0382 	bfc	r3, #2, #1
 8000e4a:	079d      	lsls	r5, r3, #30
 8000e4c:	7113      	strb	r3, [r2, #4]
 8000e4e:	4439      	add	r1, r7
 8000e50:	4620      	mov	r0, r4
 8000e52:	d507      	bpl.n	8000e64 <ParseReceived+0x1f4>
 8000e54:	f001 f9c4 	bl	80021e0 <ESP8266_Callback_ClientConnectionDataSentError>
 8000e58:	f108 0801 	add.w	r8, r8, #1
 8000e5c:	f1b8 0f05 	cmp.w	r8, #5
 8000e60:	d1ea      	bne.n	8000e38 <ParseReceived+0x1c8>
 8000e62:	e715      	b.n	8000c90 <ParseReceived+0x20>
 8000e64:	f7ff fecc 	bl	8000c00 <ESP8266_Callback_ServerConnectionDataSentError>
 8000e68:	e7f6      	b.n	8000e58 <ParseReceived+0x1e8>
 8000e6a:	bf00      	nop
 8000e6c:	08009702 	.word	0x08009702
 8000e70:	0800970f 	.word	0x0800970f
 8000e74:	0800970a 	.word	0x0800970a
 8000e78:	08009714 	.word	0x08009714
 8000e7c:	08009720 	.word	0x08009720
 8000e80:	0800972b 	.word	0x0800972b
 8000e84:	08009733 	.word	0x08009733
 8000e88:	0800973f 	.word	0x0800973f
 8000e8c:	2000198c 	.word	0x2000198c
 8000e90:	08009745 	.word	0x08009745
 8000e94:	08009751 	.word	0x08009751
 8000e98:	08009762 	.word	0x08009762
 8000e9c:	08009774 	.word	0x08009774
 8000ea0:	08009782 	.word	0x08009782
 8000ea4:	2e0a      	cmp	r6, #10
 8000ea6:	f240 80c8 	bls.w	800103a <ParseReceived+0x3ca>
 8000eaa:	f1a6 080a 	sub.w	r8, r6, #10
 8000eae:	44a8      	add	r8, r5
 8000eb0:	220a      	movs	r2, #10
 8000eb2:	49b3      	ldr	r1, [pc, #716]	; (8001180 <ParseReceived+0x510>)
 8000eb4:	4640      	mov	r0, r8
 8000eb6:	f007 fea7 	bl	8008c08 <memcmp>
 8000eba:	2800      	cmp	r0, #0
 8000ebc:	f040 80bd 	bne.w	800103a <ParseReceived+0x3ca>
 8000ec0:	f818 3c01 	ldrb.w	r3, [r8, #-1]
 8000ec4:	f1a3 0230 	sub.w	r2, r3, #48	; 0x30
 8000ec8:	232c      	movs	r3, #44	; 0x2c
 8000eca:	4353      	muls	r3, r2
 8000ecc:	f103 011c 	add.w	r1, r3, #28
 8000ed0:	4423      	add	r3, r4
 8000ed2:	4421      	add	r1, r4
 8000ed4:	f893 0044 	ldrb.w	r0, [r3, #68]	; 0x44
 8000ed8:	f040 0001 	orr.w	r0, r0, #1
 8000edc:	f883 0044 	strb.w	r0, [r3, #68]	; 0x44
 8000ee0:	f818 0c01 	ldrb.w	r0, [r8, #-1]
 8000ee4:	3830      	subs	r0, #48	; 0x30
 8000ee6:	7718      	strb	r0, [r3, #28]
 8000ee8:	f8c4 11ec 	str.w	r1, [r4, #492]	; 0x1ec
 8000eec:	f893 3044 	ldrb.w	r3, [r3, #68]	; 0x44
 8000ef0:	0798      	lsls	r0, r3, #30
 8000ef2:	d402      	bmi.n	8000efa <ParseReceived+0x28a>
 8000ef4:	4620      	mov	r0, r4
 8000ef6:	f7ff fe7d 	bl	8000bf4 <ESP8266_Callback_ServerConnectionActive>
 8000efa:	2205      	movs	r2, #5
 8000efc:	49a1      	ldr	r1, [pc, #644]	; (8001184 <ParseReceived+0x514>)
 8000efe:	4628      	mov	r0, r5
 8000f00:	f007 ff7c 	bl	8008dfc <strncmp>
 8000f04:	4681      	mov	r9, r0
 8000f06:	2800      	cmp	r0, #0
 8000f08:	f040 8112 	bne.w	8001130 <ParseReceived+0x4c0>
 8000f0c:	2301      	movs	r3, #1
 8000f0e:	f884 314a 	strb.w	r3, [r4, #330]	; 0x14a
 8000f12:	f884 7151 	strb.w	r7, [r4, #337]	; 0x151
 8000f16:	796f      	ldrb	r7, [r5, #5]
 8000f18:	4b9b      	ldr	r3, [pc, #620]	; (8001188 <ParseReceived+0x518>)
 8000f1a:	3f30      	subs	r7, #48	; 0x30
 8000f1c:	b2ff      	uxtb	r7, r7
 8000f1e:	f04f 082c 	mov.w	r8, #44	; 0x2c
 8000f22:	fb08 4807 	mla	r8, r8, r7, r4
 8000f26:	f884 7150 	strb.w	r7, [r4, #336]	; 0x150
 8000f2a:	f10d 0107 	add.w	r1, sp, #7
 8000f2e:	f8c8 3030 	str.w	r3, [r8, #48]	; 0x30
 8000f32:	f888 701c 	strb.w	r7, [r8, #28]
 8000f36:	1de8      	adds	r0, r5, #7
 8000f38:	f7ff fcbc 	bl	80008b4 <ParseNumber>
 8000f3c:	f108 0840 	add.w	r8, r8, #64	; 0x40
 8000f40:	f848 0c18 	str.w	r0, [r8, #-24]
 8000f44:	f858 2c14 	ldr.w	r2, [r8, #-20]
 8000f48:	f898 3004 	ldrb.w	r3, [r8, #4]
 8000f4c:	2a00      	cmp	r2, #0
 8000f4e:	f040 80ea 	bne.w	8001126 <ParseReceived+0x4b6>
 8000f52:	f362 1345 	bfi	r3, r2, #5, #1
 8000f56:	b2db      	uxtb	r3, r3
 8000f58:	f043 0340 	orr.w	r3, r3, #64	; 0x40
 8000f5c:	212c      	movs	r1, #44	; 0x2c
 8000f5e:	f888 3004 	strb.w	r3, [r8, #4]
 8000f62:	fb01 4907 	mla	r9, r1, r7, r4
 8000f66:	e9d9 020a 	ldrd	r0, r2, [r9, #40]	; 0x28
 8000f6a:	4402      	add	r2, r0
 8000f6c:	f8c9 202c 	str.w	r2, [r9, #44]	; 0x2c
 8000f70:	f8d4 31e4 	ldr.w	r3, [r4, #484]	; 0x1e4
 8000f74:	f89d 8007 	ldrb.w	r8, [sp, #7]
 8000f78:	4403      	add	r3, r0
 8000f7a:	f108 0a08 	add.w	sl, r8, #8
 8000f7e:	4649      	mov	r1, r9
 8000f80:	f8c4 31e4 	str.w	r3, [r4, #484]	; 0x1e4
 8000f84:	f10d 0207 	add.w	r2, sp, #7
 8000f88:	3120      	adds	r1, #32
 8000f8a:	eb05 000a 	add.w	r0, r5, sl
 8000f8e:	f7ff fcc9 	bl	8000924 <ParseIP>
 8000f92:	f89d 8007 	ldrb.w	r8, [sp, #7]
 8000f96:	f108 0801 	add.w	r8, r8, #1
 8000f9a:	44d0      	add	r8, sl
 8000f9c:	f10d 0107 	add.w	r1, sp, #7
 8000fa0:	eb05 0008 	add.w	r0, r5, r8
 8000fa4:	f7ff fc86 	bl	80008b4 <ParseNumber>
 8000fa8:	f8a9 001e 	strh.w	r0, [r9, #30]
 8000fac:	f815 3008 	ldrb.w	r3, [r5, r8]
 8000fb0:	2b3a      	cmp	r3, #58	; 0x3a
 8000fb2:	f108 0101 	add.w	r1, r8, #1
 8000fb6:	d002      	beq.n	8000fbe <ParseReceived+0x34e>
 8000fb8:	45b0      	cmp	r8, r6
 8000fba:	f0c0 80b7 	bcc.w	800112c <ParseReceived+0x4bc>
 8000fbe:	f04f 092c 	mov.w	r9, #44	; 0x2c
 8000fc2:	fb09 4307 	mla	r3, r9, r7, r4
 8000fc6:	fa1f fb81 	uxth.w	fp, r1
 8000fca:	6a98      	ldr	r0, [r3, #40]	; 0x28
 8000fcc:	1a73      	subs	r3, r6, r1
 8000fce:	4283      	cmp	r3, r0
 8000fd0:	bf86      	itte	hi
 8000fd2:	4458      	addhi	r0, fp
 8000fd4:	fa1f f880 	uxthhi.w	r8, r0
 8000fd8:	46b0      	movls	r8, r6
 8000fda:	fb09 4907 	mla	r9, r9, r7, r4
 8000fde:	eba8 0a01 	sub.w	sl, r8, r1
 8000fe2:	4652      	mov	r2, sl
 8000fe4:	4429      	add	r1, r5
 8000fe6:	f8d9 0030 	ldr.w	r0, [r9, #48]	; 0x30
 8000fea:	f007 fe1c 	bl	8008c26 <memcpy>
 8000fee:	f8d9 2028 	ldr.w	r2, [r9, #40]	; 0x28
 8000ff2:	4592      	cmp	sl, r2
 8000ff4:	bf88      	it	hi
 8000ff6:	f8d9 1030 	ldrhi.w	r1, [r9, #48]	; 0x30
 8000ffa:	eba8 030b 	sub.w	r3, r8, fp
 8000ffe:	b29b      	uxth	r3, r3
 8001000:	bf84      	itt	hi
 8001002:	2000      	movhi	r0, #0
 8001004:	5488      	strbhi	r0, [r1, r2]
 8001006:	f8a4 314e 	strh.w	r3, [r4, #334]	; 0x14e
 800100a:	f8a4 314c 	strh.w	r3, [r4, #332]	; 0x14c
 800100e:	232c      	movs	r3, #44	; 0x2c
 8001010:	fb03 4707 	mla	r7, r3, r7, r4
 8001014:	fa1f fa8a 	uxth.w	sl, sl
 8001018:	6abb      	ldr	r3, [r7, #40]	; 0x28
 800101a:	4553      	cmp	r3, sl
 800101c:	d80a      	bhi.n	8001034 <ParseReceived+0x3c4>
 800101e:	2300      	movs	r3, #0
 8001020:	f884 314a 	strb.w	r3, [r4, #330]	; 0x14a
 8001024:	f897 3044 	ldrb.w	r3, [r7, #68]	; 0x44
 8001028:	f8a7 b034 	strh.w	fp, [r7, #52]	; 0x34
 800102c:	f043 0318 	orr.w	r3, r3, #24
 8001030:	f887 3044 	strb.w	r3, [r7, #68]	; 0x44
 8001034:	eba6 0008 	sub.w	r0, r6, r8
 8001038:	e62b      	b.n	8000c92 <ParseReceived+0x22>
 800103a:	4954      	ldr	r1, [pc, #336]	; (800118c <ParseReceived+0x51c>)
 800103c:	4628      	mov	r0, r5
 800103e:	f007 feef 	bl	8008e20 <strstr>
 8001042:	2800      	cmp	r0, #0
 8001044:	f47f af59 	bne.w	8000efa <ParseReceived+0x28a>
 8001048:	2e09      	cmp	r6, #9
 800104a:	f67f af56 	bls.w	8000efa <ParseReceived+0x28a>
 800104e:	f1a6 0809 	sub.w	r8, r6, #9
 8001052:	44a8      	add	r8, r5
 8001054:	2209      	movs	r2, #9
 8001056:	494e      	ldr	r1, [pc, #312]	; (8001190 <ParseReceived+0x520>)
 8001058:	4640      	mov	r0, r8
 800105a:	f007 fdd5 	bl	8008c08 <memcmp>
 800105e:	bb88      	cbnz	r0, 80010c4 <ParseReceived+0x454>
 8001060:	45a8      	cmp	r8, r5
 8001062:	d02f      	beq.n	80010c4 <ParseReceived+0x454>
 8001064:	1c6b      	adds	r3, r5, #1
 8001066:	4598      	cmp	r8, r3
 8001068:	d125      	bne.n	80010b6 <ParseReceived+0x446>
 800106a:	f818 1c01 	ldrb.w	r1, [r8, #-1]
 800106e:	f1a1 0330 	sub.w	r3, r1, #48	; 0x30
 8001072:	212c      	movs	r1, #44	; 0x2c
 8001074:	4359      	muls	r1, r3
 8001076:	1862      	adds	r2, r4, r1
 8001078:	f892 e044 	ldrb.w	lr, [r2, #68]	; 0x44
 800107c:	4673      	mov	r3, lr
 800107e:	f360 0300 	bfi	r3, r0, #0, #1
 8001082:	f360 0341 	bfi	r3, r0, #1, #1
 8001086:	f360 1386 	bfi	r3, r0, #6, #1
 800108a:	f360 1345 	bfi	r3, r0, #5, #1
 800108e:	f01e 0f01 	tst.w	lr, #1
 8001092:	f3ce 0c40 	ubfx	ip, lr, #1, #1
 8001096:	f882 3044 	strb.w	r3, [r2, #68]	; 0x44
 800109a:	f43f af2e 	beq.w	8000efa <ParseReceived+0x28a>
 800109e:	311c      	adds	r1, #28
 80010a0:	4421      	add	r1, r4
 80010a2:	4620      	mov	r0, r4
 80010a4:	f1bc 0f00 	cmp.w	ip, #0
 80010a8:	d002      	beq.n	80010b0 <ParseReceived+0x440>
 80010aa:	f001 f89b 	bl	80021e4 <ESP8266_Callback_ClientConnectionClosed>
 80010ae:	e724      	b.n	8000efa <ParseReceived+0x28a>
 80010b0:	f7ff fda1 	bl	8000bf6 <ESP8266_Callback_ServerConnectionClosed>
 80010b4:	e721      	b.n	8000efa <ParseReceived+0x28a>
 80010b6:	220a      	movs	r2, #10
 80010b8:	f108 31ff 	add.w	r1, r8, #4294967295
 80010bc:	4835      	ldr	r0, [pc, #212]	; (8001194 <ParseReceived+0x524>)
 80010be:	f7ff faa1 	bl	8000604 <BUFFER_Write>
 80010c2:	e71a      	b.n	8000efa <ParseReceived+0x28a>
 80010c4:	2e10      	cmp	r6, #16
 80010c6:	f67f af18 	bls.w	8000efa <ParseReceived+0x28a>
 80010ca:	f1a6 000f 	sub.w	r0, r6, #15
 80010ce:	4932      	ldr	r1, [pc, #200]	; (8001198 <ParseReceived+0x528>)
 80010d0:	4428      	add	r0, r5
 80010d2:	f007 fea5 	bl	8008e20 <strstr>
 80010d6:	2800      	cmp	r0, #0
 80010d8:	f43f af0f 	beq.w	8000efa <ParseReceived+0x28a>
 80010dc:	f810 1c01 	ldrb.w	r1, [r0, #-1]
 80010e0:	232c      	movs	r3, #44	; 0x2c
 80010e2:	3930      	subs	r1, #48	; 0x30
 80010e4:	fb03 4e01 	mla	lr, r3, r1, r4
 80010e8:	f89e 2044 	ldrb.w	r2, [lr, #68]	; 0x44
 80010ec:	f002 02bc 	and.w	r2, r2, #188	; 0xbc
 80010f0:	f36f 1245 	bfc	r2, #5, #1
 80010f4:	f88e 2044 	strb.w	r2, [lr, #68]	; 0x44
 80010f8:	f810 2c01 	ldrb.w	r2, [r0, #-1]
 80010fc:	3a30      	subs	r2, #48	; 0x30
 80010fe:	f88e 201c 	strb.w	r2, [lr, #28]
 8001102:	f89e 2044 	ldrb.w	r2, [lr, #68]	; 0x44
 8001106:	0792      	lsls	r2, r2, #30
 8001108:	f57f aef7 	bpl.w	8000efa <ParseReceived+0x28a>
 800110c:	6862      	ldr	r2, [r4, #4]
 800110e:	2a0a      	cmp	r2, #10
 8001110:	bf08      	it	eq
 8001112:	2200      	moveq	r2, #0
 8001114:	fb03 4101 	mla	r1, r3, r1, r4
 8001118:	bf08      	it	eq
 800111a:	6062      	streq	r2, [r4, #4]
 800111c:	311c      	adds	r1, #28
 800111e:	4620      	mov	r0, r4
 8001120:	f001 f85b 	bl	80021da <ESP8266_Callback_ClientConnectionError>
 8001124:	e6e9      	b.n	8000efa <ParseReceived+0x28a>
 8001126:	f369 1386 	bfi	r3, r9, #6, #1
 800112a:	e717      	b.n	8000f5c <ParseReceived+0x2ec>
 800112c:	4688      	mov	r8, r1
 800112e:	e73d      	b.n	8000fac <ParseReceived+0x33c>
 8001130:	6863      	ldr	r3, [r4, #4]
 8001132:	3b01      	subs	r3, #1
 8001134:	2b20      	cmp	r3, #32
 8001136:	d84c      	bhi.n	80011d2 <ParseReceived+0x562>
 8001138:	e8df f013 	tbh	[pc, r3, lsl #1]
 800113c:	004b00b3 	.word	0x004b00b3
 8001140:	004b0030 	.word	0x004b0030
 8001144:	00b3014b 	.word	0x00b3014b
 8001148:	015800b3 	.word	0x015800b3
 800114c:	016a00b3 	.word	0x016a00b3
 8001150:	00be00b3 	.word	0x00be00b3
 8001154:	00b3004b 	.word	0x00b3004b
 8001158:	00b30195 	.word	0x00b30195
 800115c:	01bc00b3 	.word	0x01bc00b3
 8001160:	00b30072 	.word	0x00b30072
 8001164:	012800b3 	.word	0x012800b3
 8001168:	01df013e 	.word	0x01df013e
 800116c:	00b301ef 	.word	0x00b301ef
 8001170:	004b01fd 	.word	0x004b01fd
 8001174:	00b3004b 	.word	0x00b3004b
 8001178:	00b300b3 	.word	0x00b300b3
 800117c:	00b3      	.short	0x00b3
 800117e:	bf00      	nop
 8001180:	08009720 	.word	0x08009720
 8001184:	0800973f 	.word	0x0800973f
 8001188:	200000b8 	.word	0x200000b8
 800118c:	0800978f 	.word	0x0800978f
 8001190:	080097a3 	.word	0x080097a3
 8001194:	2000198c 	.word	0x2000198c
 8001198:	080097ad 	.word	0x080097ad
 800119c:	2207      	movs	r2, #7
 800119e:	49b9      	ldr	r1, [pc, #740]	; (8001484 <ParseReceived+0x814>)
 80011a0:	4628      	mov	r0, r5
 80011a2:	f007 fe2b 	bl	8008dfc <strncmp>
 80011a6:	b928      	cbnz	r0, 80011b4 <ParseReceived+0x544>
 80011a8:	4bb7      	ldr	r3, [pc, #732]	; (8001488 <ParseReceived+0x818>)
 80011aa:	60a3      	str	r3, [r4, #8]
 80011ac:	79eb      	ldrb	r3, [r5, #7]
 80011ae:	3b30      	subs	r3, #48	; 0x30
 80011b0:	f884 317a 	strb.w	r3, [r4, #378]	; 0x17a
 80011b4:	49b5      	ldr	r1, [pc, #724]	; (800148c <ParseReceived+0x81c>)
 80011b6:	4628      	mov	r0, r5
 80011b8:	f7ff f80a 	bl	80001d0 <strcmp>
 80011bc:	b900      	cbnz	r0, 80011c0 <ParseReceived+0x550>
 80011be:	6060      	str	r0, [r4, #4]
 80011c0:	49b1      	ldr	r1, [pc, #708]	; (8001488 <ParseReceived+0x818>)
 80011c2:	4628      	mov	r0, r5
 80011c4:	f7ff f804 	bl	80001d0 <strcmp>
 80011c8:	b918      	cbnz	r0, 80011d2 <ParseReceived+0x562>
 80011ca:	6060      	str	r0, [r4, #4]
 80011cc:	4620      	mov	r0, r4
 80011ce:	f000 ffff 	bl	80021d0 <ESP8266_Callback_WifiConnectFailed>
 80011d2:	49ae      	ldr	r1, [pc, #696]	; (800148c <ParseReceived+0x81c>)
 80011d4:	4628      	mov	r0, r5
 80011d6:	f7fe fffb 	bl	80001d0 <strcmp>
 80011da:	b960      	cbnz	r0, 80011f6 <ParseReceived+0x586>
 80011dc:	f894 31f1 	ldrb.w	r3, [r4, #497]	; 0x1f1
 80011e0:	f043 0302 	orr.w	r3, r3, #2
 80011e4:	f884 31f1 	strb.w	r3, [r4, #497]	; 0x1f1
 80011e8:	6863      	ldr	r3, [r4, #4]
 80011ea:	2b08      	cmp	r3, #8
 80011ec:	d003      	beq.n	80011f6 <ParseReceived+0x586>
 80011ee:	6863      	ldr	r3, [r4, #4]
 80011f0:	2b1d      	cmp	r3, #29
 80011f2:	bf18      	it	ne
 80011f4:	6060      	strne	r0, [r4, #4]
 80011f6:	49a6      	ldr	r1, [pc, #664]	; (8001490 <ParseReceived+0x820>)
 80011f8:	4628      	mov	r0, r5
 80011fa:	f7fe ffe9 	bl	80001d0 <strcmp>
 80011fe:	b130      	cbz	r0, 800120e <ParseReceived+0x59e>
 8001200:	49a4      	ldr	r1, [pc, #656]	; (8001494 <ParseReceived+0x824>)
 8001202:	4628      	mov	r0, r5
 8001204:	f7fe ffe4 	bl	80001d0 <strcmp>
 8001208:	2800      	cmp	r0, #0
 800120a:	f47f ad41 	bne.w	8000c90 <ParseReceived+0x20>
 800120e:	f894 31f1 	ldrb.w	r3, [r4, #497]	; 0x1f1
 8001212:	2000      	movs	r0, #0
 8001214:	f36f 0341 	bfc	r3, #1, #1
 8001218:	f884 31f1 	strb.w	r3, [r4, #497]	; 0x1f1
 800121c:	6060      	str	r0, [r4, #4]
 800121e:	e538      	b.n	8000c92 <ParseReceived+0x22>
 8001220:	220b      	movs	r2, #11
 8001222:	499d      	ldr	r1, [pc, #628]	; (8001498 <ParseReceived+0x828>)
 8001224:	4628      	mov	r0, r5
 8001226:	f007 fde9 	bl	8008dfc <strncmp>
 800122a:	bbd0      	cbnz	r0, 80012a2 <ParseReceived+0x632>
 800122c:	499b      	ldr	r1, [pc, #620]	; (800149c <ParseReceived+0x82c>)
 800122e:	4628      	mov	r0, r5
 8001230:	f007 fdf6 	bl	8008e20 <strstr>
 8001234:	b3a8      	cbz	r0, 80012a2 <ParseReceived+0x632>
 8001236:	4629      	mov	r1, r5
 8001238:	f811 3b01 	ldrb.w	r3, [r1], #1
 800123c:	b38b      	cbz	r3, 80012a2 <ParseReceived+0x632>
 800123e:	2b22      	cmp	r3, #34	; 0x22
 8001240:	d1fa      	bne.n	8001238 <ParseReceived+0x5c8>
 8001242:	460b      	mov	r3, r1
 8001244:	1a5a      	subs	r2, r3, r1
 8001246:	461e      	mov	r6, r3
 8001248:	f813 0b01 	ldrb.w	r0, [r3], #1
 800124c:	fa54 f282 	uxtab	r2, r4, r2
 8001250:	b138      	cbz	r0, 8001262 <ParseReceived+0x5f2>
 8001252:	2822      	cmp	r0, #34	; 0x22
 8001254:	d12d      	bne.n	80012b2 <ParseReceived+0x642>
 8001256:	781f      	ldrb	r7, [r3, #0]
 8001258:	2f2c      	cmp	r7, #44	; 0x2c
 800125a:	d12a      	bne.n	80012b2 <ParseReceived+0x642>
 800125c:	785f      	ldrb	r7, [r3, #1]
 800125e:	2f22      	cmp	r7, #34	; 0x22
 8001260:	d127      	bne.n	80012b2 <ParseReceived+0x642>
 8001262:	2300      	movs	r3, #0
 8001264:	3603      	adds	r6, #3
 8001266:	f882 3160 	strb.w	r3, [r2, #352]	; 0x160
 800126a:	4630      	mov	r0, r6
 800126c:	f10d 0207 	add.w	r2, sp, #7
 8001270:	f504 71b8 	add.w	r1, r4, #368	; 0x170
 8001274:	f7ff fc60 	bl	8000b38 <ParseMAC>
 8001278:	f89d 3007 	ldrb.w	r3, [sp, #7]
 800127c:	3302      	adds	r3, #2
 800127e:	441e      	add	r6, r3
 8001280:	f10d 0107 	add.w	r1, sp, #7
 8001284:	4630      	mov	r0, r6
 8001286:	f7ff fb15 	bl	80008b4 <ParseNumber>
 800128a:	f884 0176 	strb.w	r0, [r4, #374]	; 0x176
 800128e:	f89d 0007 	ldrb.w	r0, [sp, #7]
 8001292:	3001      	adds	r0, #1
 8001294:	f10d 0107 	add.w	r1, sp, #7
 8001298:	4430      	add	r0, r6
 800129a:	f7ff fb0b 	bl	80008b4 <ParseNumber>
 800129e:	f8a4 0178 	strh.w	r0, [r4, #376]	; 0x178
 80012a2:	497a      	ldr	r1, [pc, #488]	; (800148c <ParseReceived+0x81c>)
 80012a4:	4628      	mov	r0, r5
 80012a6:	f7fe ff93 	bl	80001d0 <strcmp>
 80012aa:	2800      	cmp	r0, #0
 80012ac:	d1a3      	bne.n	80011f6 <ParseReceived+0x586>
 80012ae:	6060      	str	r0, [r4, #4]
 80012b0:	e78f      	b.n	80011d2 <ParseReceived+0x562>
 80012b2:	f882 0160 	strb.w	r0, [r2, #352]	; 0x160
 80012b6:	e7c5      	b.n	8001244 <ParseReceived+0x5d4>
 80012b8:	2206      	movs	r2, #6
 80012ba:	4979      	ldr	r1, [pc, #484]	; (80014a0 <ParseReceived+0x830>)
 80012bc:	4628      	mov	r0, r5
 80012be:	f007 fd9d 	bl	8008dfc <strncmp>
 80012c2:	2800      	cmp	r0, #0
 80012c4:	d1ed      	bne.n	80012a2 <ParseReceived+0x632>
 80012c6:	462b      	mov	r3, r5
 80012c8:	461a      	mov	r2, r3
 80012ca:	f813 1b01 	ldrb.w	r1, [r3], #1
 80012ce:	2900      	cmp	r1, #0
 80012d0:	d0e7      	beq.n	80012a2 <ParseReceived+0x632>
 80012d2:	293a      	cmp	r1, #58	; 0x3a
 80012d4:	4618      	mov	r0, r3
 80012d6:	d1f7      	bne.n	80012c8 <ParseReceived+0x658>
 80012d8:	2300      	movs	r3, #0
 80012da:	f884 311e 	strb.w	r3, [r4, #286]	; 0x11e
 80012de:	7853      	ldrb	r3, [r2, #1]
 80012e0:	2b22      	cmp	r3, #34	; 0x22
 80012e2:	d100      	bne.n	80012e6 <ParseReceived+0x676>
 80012e4:	1c90      	adds	r0, r2, #2
 80012e6:	4603      	mov	r3, r0
 80012e8:	1a1a      	subs	r2, r3, r0
 80012ea:	4619      	mov	r1, r3
 80012ec:	f813 6b01 	ldrb.w	r6, [r3], #1
 80012f0:	fa54 f282 	uxtab	r2, r4, r2
 80012f4:	b13e      	cbz	r6, 8001306 <ParseReceived+0x696>
 80012f6:	2e22      	cmp	r6, #34	; 0x22
 80012f8:	d142      	bne.n	8001380 <ParseReceived+0x710>
 80012fa:	781f      	ldrb	r7, [r3, #0]
 80012fc:	2f2c      	cmp	r7, #44	; 0x2c
 80012fe:	d13f      	bne.n	8001380 <ParseReceived+0x710>
 8001300:	785f      	ldrb	r7, [r3, #1]
 8001302:	2f22      	cmp	r7, #34	; 0x22
 8001304:	d13c      	bne.n	8001380 <ParseReceived+0x710>
 8001306:	2300      	movs	r3, #0
 8001308:	3103      	adds	r1, #3
 800130a:	f882 311e 	strb.w	r3, [r2, #286]	; 0x11e
 800130e:	460b      	mov	r3, r1
 8001310:	1a5a      	subs	r2, r3, r1
 8001312:	461e      	mov	r6, r3
 8001314:	f813 0b01 	ldrb.w	r0, [r3], #1
 8001318:	fa54 f282 	uxtab	r2, r4, r2
 800131c:	b120      	cbz	r0, 8001328 <ParseReceived+0x6b8>
 800131e:	2822      	cmp	r0, #34	; 0x22
 8001320:	d131      	bne.n	8001386 <ParseReceived+0x716>
 8001322:	781f      	ldrb	r7, [r3, #0]
 8001324:	2f2c      	cmp	r7, #44	; 0x2c
 8001326:	d12e      	bne.n	8001386 <ParseReceived+0x716>
 8001328:	2300      	movs	r3, #0
 800132a:	3602      	adds	r6, #2
 800132c:	f882 3132 	strb.w	r3, [r2, #306]	; 0x132
 8001330:	f10d 0107 	add.w	r1, sp, #7
 8001334:	4630      	mov	r0, r6
 8001336:	f7ff fabd 	bl	80008b4 <ParseNumber>
 800133a:	f89d 3007 	ldrb.w	r3, [sp, #7]
 800133e:	f884 0147 	strb.w	r0, [r4, #327]	; 0x147
 8001342:	3301      	adds	r3, #1
 8001344:	441e      	add	r6, r3
 8001346:	f10d 0107 	add.w	r1, sp, #7
 800134a:	4630      	mov	r0, r6
 800134c:	f7ff fab2 	bl	80008b4 <ParseNumber>
 8001350:	f89d 3007 	ldrb.w	r3, [sp, #7]
 8001354:	f884 0146 	strb.w	r0, [r4, #326]	; 0x146
 8001358:	3301      	adds	r3, #1
 800135a:	441e      	add	r6, r3
 800135c:	f10d 0107 	add.w	r1, sp, #7
 8001360:	4630      	mov	r0, r6
 8001362:	f7ff faa7 	bl	80008b4 <ParseNumber>
 8001366:	f884 0148 	strb.w	r0, [r4, #328]	; 0x148
 800136a:	f89d 0007 	ldrb.w	r0, [sp, #7]
 800136e:	3001      	adds	r0, #1
 8001370:	f10d 0107 	add.w	r1, sp, #7
 8001374:	4430      	add	r0, r6
 8001376:	f7ff fa9d 	bl	80008b4 <ParseNumber>
 800137a:	f884 0149 	strb.w	r0, [r4, #329]	; 0x149
 800137e:	e790      	b.n	80012a2 <ParseReceived+0x632>
 8001380:	f882 611e 	strb.w	r6, [r2, #286]	; 0x11e
 8001384:	e7b0      	b.n	80012e8 <ParseReceived+0x678>
 8001386:	f882 0132 	strb.w	r0, [r2, #306]	; 0x132
 800138a:	e7c1      	b.n	8001310 <ParseReceived+0x6a0>
 800138c:	2207      	movs	r2, #7
 800138e:	4945      	ldr	r1, [pc, #276]	; (80014a4 <ParseReceived+0x834>)
 8001390:	4628      	mov	r0, r5
 8001392:	f007 fd33 	bl	8008dfc <strncmp>
 8001396:	b918      	cbnz	r0, 80013a0 <ParseReceived+0x730>
 8001398:	4629      	mov	r1, r5
 800139a:	4620      	mov	r0, r4
 800139c:	f7ff fb00 	bl	80009a0 <ParseCIPSTA>
 80013a0:	493a      	ldr	r1, [pc, #232]	; (800148c <ParseReceived+0x81c>)
 80013a2:	4628      	mov	r0, r5
 80013a4:	f7fe ff14 	bl	80001d0 <strcmp>
 80013a8:	2800      	cmp	r0, #0
 80013aa:	f47f af24 	bne.w	80011f6 <ParseReceived+0x586>
 80013ae:	6060      	str	r0, [r4, #4]
 80013b0:	4620      	mov	r0, r4
 80013b2:	f000 ff0f 	bl	80021d4 <ESP8266_Callback_WifiIPSet>
 80013b6:	e70c      	b.n	80011d2 <ParseReceived+0x562>
 80013b8:	2206      	movs	r2, #6
 80013ba:	493b      	ldr	r1, [pc, #236]	; (80014a8 <ParseReceived+0x838>)
 80013bc:	4628      	mov	r0, r5
 80013be:	f007 fd1d 	bl	8008dfc <strncmp>
 80013c2:	2800      	cmp	r0, #0
 80013c4:	f47f af6d 	bne.w	80012a2 <ParseReceived+0x632>
 80013c8:	4629      	mov	r1, r5
 80013ca:	4620      	mov	r0, r4
 80013cc:	f7ff fae8 	bl	80009a0 <ParseCIPSTA>
 80013d0:	e767      	b.n	80012a2 <ParseReceived+0x632>
 80013d2:	492e      	ldr	r1, [pc, #184]	; (800148c <ParseReceived+0x81c>)
 80013d4:	4628      	mov	r0, r5
 80013d6:	f7fe fefb 	bl	80001d0 <strcmp>
 80013da:	2800      	cmp	r0, #0
 80013dc:	f47f af0b 	bne.w	80011f6 <ParseReceived+0x586>
 80013e0:	f894 311c 	ldrb.w	r3, [r4, #284]	; 0x11c
 80013e4:	6060      	str	r0, [r4, #4]
 80013e6:	f884 311d 	strb.w	r3, [r4, #285]	; 0x11d
 80013ea:	e6f2      	b.n	80011d2 <ParseReceived+0x562>
 80013ec:	4927      	ldr	r1, [pc, #156]	; (800148c <ParseReceived+0x81c>)
 80013ee:	4628      	mov	r0, r5
 80013f0:	f7fe feee 	bl	80001d0 <strcmp>
 80013f4:	2800      	cmp	r0, #0
 80013f6:	f47f aefe 	bne.w	80011f6 <ParseReceived+0x586>
 80013fa:	231d      	movs	r3, #29
 80013fc:	6063      	str	r3, [r4, #4]
 80013fe:	f894 31f1 	ldrb.w	r3, [r4, #497]	; 0x1f1
 8001402:	f043 0301 	orr.w	r3, r3, #1
 8001406:	f884 31f1 	strb.w	r3, [r4, #497]	; 0x1f1
 800140a:	4b28      	ldr	r3, [pc, #160]	; (80014ac <ParseReceived+0x83c>)
 800140c:	60a3      	str	r3, [r4, #8]
 800140e:	e6e0      	b.n	80011d2 <ParseReceived+0x562>
 8001410:	491e      	ldr	r1, [pc, #120]	; (800148c <ParseReceived+0x81c>)
 8001412:	4628      	mov	r0, r5
 8001414:	f7fe fedc 	bl	80001d0 <strcmp>
 8001418:	b928      	cbnz	r0, 8001426 <ParseReceived+0x7b6>
 800141a:	6060      	str	r0, [r4, #4]
 800141c:	f8d4 11ec 	ldr.w	r1, [r4, #492]	; 0x1ec
 8001420:	4620      	mov	r0, r4
 8001422:	f000 fed9 	bl	80021d8 <ESP8266_Callback_ClientConnectionConnected>
 8001426:	491a      	ldr	r1, [pc, #104]	; (8001490 <ParseReceived+0x820>)
 8001428:	4628      	mov	r0, r5
 800142a:	f7fe fed1 	bl	80001d0 <strcmp>
 800142e:	2800      	cmp	r0, #0
 8001430:	f47f aecf 	bne.w	80011d2 <ParseReceived+0x562>
 8001434:	f994 117b 	ldrsb.w	r1, [r4, #379]	; 0x17b
 8001438:	6060      	str	r0, [r4, #4]
 800143a:	262c      	movs	r6, #44	; 0x2c
 800143c:	fb06 4201 	mla	r2, r6, r1, r4
 8001440:	fb06 4101 	mla	r1, r6, r1, r4
 8001444:	f892 3044 	ldrb.w	r3, [r2, #68]	; 0x44
 8001448:	f360 0300 	bfi	r3, r0, #0, #1
 800144c:	f360 0341 	bfi	r3, r0, #1, #1
 8001450:	f360 1386 	bfi	r3, r0, #6, #1
 8001454:	f360 1345 	bfi	r3, r0, #5, #1
 8001458:	f882 3044 	strb.w	r3, [r2, #68]	; 0x44
 800145c:	311c      	adds	r1, #28
 800145e:	4620      	mov	r0, r4
 8001460:	f000 febb 	bl	80021da <ESP8266_Callback_ClientConnectionError>
 8001464:	e6b5      	b.n	80011d2 <ParseReceived+0x562>
 8001466:	4912      	ldr	r1, [pc, #72]	; (80014b0 <ParseReceived+0x840>)
 8001468:	4628      	mov	r0, r5
 800146a:	f7fe feb1 	bl	80001d0 <strcmp>
 800146e:	2800      	cmp	r0, #0
 8001470:	f47f aeaf 	bne.w	80011d2 <ParseReceived+0x562>
 8001474:	f894 31f1 	ldrb.w	r3, [r4, #497]	; 0x1f1
 8001478:	6060      	str	r0, [r4, #4]
 800147a:	f043 0302 	orr.w	r3, r3, #2
 800147e:	f884 31f1 	strb.w	r3, [r4, #497]	; 0x1f1
 8001482:	e6a6      	b.n	80011d2 <ParseReceived+0x562>
 8001484:	080097bd 	.word	0x080097bd
 8001488:	08009719 	.word	0x08009719
 800148c:	0800970f 	.word	0x0800970f
 8001490:	0800972b 	.word	0x0800972b
 8001494:	08009733 	.word	0x08009733
 8001498:	080097c5 	.word	0x080097c5
 800149c:	080097d1 	.word	0x080097d1
 80014a0:	080097d9 	.word	0x080097d9
 80014a4:	080097e0 	.word	0x080097e0
 80014a8:	080097e8 	.word	0x080097e8
 80014ac:	080097ef 	.word	0x080097ef
 80014b0:	08009702 	.word	0x08009702
 80014b4:	782b      	ldrb	r3, [r5, #0]
 80014b6:	2b2b      	cmp	r3, #43	; 0x2b
 80014b8:	d105      	bne.n	80014c6 <ParseReceived+0x856>
 80014ba:	2100      	movs	r1, #0
 80014bc:	1c68      	adds	r0, r5, #1
 80014be:	f7ff f9f9 	bl	80008b4 <ParseNumber>
 80014c2:	f8c4 0158 	str.w	r0, [r4, #344]	; 0x158
 80014c6:	4935      	ldr	r1, [pc, #212]	; (800159c <ParseReceived+0x92c>)
 80014c8:	4628      	mov	r0, r5
 80014ca:	f7fe fe81 	bl	80001d0 <strcmp>
 80014ce:	b948      	cbnz	r0, 80014e4 <ParseReceived+0x874>
 80014d0:	2301      	movs	r3, #1
 80014d2:	6060      	str	r0, [r4, #4]
 80014d4:	f884 315c 	strb.w	r3, [r4, #348]	; 0x15c
 80014d8:	f504 71aa 	add.w	r1, r4, #340	; 0x154
 80014dc:	4620      	mov	r0, r4
 80014de:	f7ff fbc4 	bl	8000c6a <ESP8266_Callback_PingFinished>
 80014e2:	e676      	b.n	80011d2 <ParseReceived+0x562>
 80014e4:	492e      	ldr	r1, [pc, #184]	; (80015a0 <ParseReceived+0x930>)
 80014e6:	4628      	mov	r0, r5
 80014e8:	f7fe fe72 	bl	80001d0 <strcmp>
 80014ec:	2800      	cmp	r0, #0
 80014ee:	f47f ae82 	bne.w	80011f6 <ParseReceived+0x586>
 80014f2:	6060      	str	r0, [r4, #4]
 80014f4:	f884 015c 	strb.w	r0, [r4, #348]	; 0x15c
 80014f8:	e7ee      	b.n	80014d8 <ParseReceived+0x868>
 80014fa:	220a      	movs	r2, #10
 80014fc:	4929      	ldr	r1, [pc, #164]	; (80015a4 <ParseReceived+0x934>)
 80014fe:	4628      	mov	r0, r5
 8001500:	f007 fc7c 	bl	8008dfc <strncmp>
 8001504:	4602      	mov	r2, r0
 8001506:	2800      	cmp	r0, #0
 8001508:	f47f aecb 	bne.w	80012a2 <ParseReceived+0x632>
 800150c:	f504 7182 	add.w	r1, r4, #260	; 0x104
 8001510:	f105 000c 	add.w	r0, r5, #12
 8001514:	f7ff fb10 	bl	8000b38 <ParseMAC>
 8001518:	e6c3      	b.n	80012a2 <ParseReceived+0x632>
 800151a:	2209      	movs	r2, #9
 800151c:	4922      	ldr	r1, [pc, #136]	; (80015a8 <ParseReceived+0x938>)
 800151e:	4628      	mov	r0, r5
 8001520:	f007 fc6c 	bl	8008dfc <strncmp>
 8001524:	4602      	mov	r2, r0
 8001526:	2800      	cmp	r0, #0
 8001528:	f47f aebb 	bne.w	80012a2 <ParseReceived+0x632>
 800152c:	f504 718b 	add.w	r1, r4, #278	; 0x116
 8001530:	f105 000b 	add.w	r0, r5, #11
 8001534:	e7ee      	b.n	8001514 <ParseReceived+0x8a4>
 8001536:	782b      	ldrb	r3, [r5, #0]
 8001538:	3b30      	subs	r3, #48	; 0x30
 800153a:	2b09      	cmp	r3, #9
 800153c:	d81f      	bhi.n	800157e <ParseReceived+0x90e>
 800153e:	f894 11e0 	ldrb.w	r1, [r4, #480]	; 0x1e0
 8001542:	2909      	cmp	r1, #9
 8001544:	d81b      	bhi.n	800157e <ParseReceived+0x90e>
 8001546:	260a      	movs	r6, #10
 8001548:	fb06 4101 	mla	r1, r6, r1, r4
 800154c:	f10d 0207 	add.w	r2, sp, #7
 8001550:	f501 71be 	add.w	r1, r1, #380	; 0x17c
 8001554:	4628      	mov	r0, r5
 8001556:	f7ff f9e5 	bl	8000924 <ParseIP>
 800155a:	f894 11e0 	ldrb.w	r1, [r4, #480]	; 0x1e0
 800155e:	f89d 0007 	ldrb.w	r0, [sp, #7]
 8001562:	fb06 4101 	mla	r1, r6, r1, r4
 8001566:	3001      	adds	r0, #1
 8001568:	2200      	movs	r2, #0
 800156a:	f501 71c0 	add.w	r1, r1, #384	; 0x180
 800156e:	4428      	add	r0, r5
 8001570:	f7ff fae2 	bl	8000b38 <ParseMAC>
 8001574:	f894 31e0 	ldrb.w	r3, [r4, #480]	; 0x1e0
 8001578:	3301      	adds	r3, #1
 800157a:	f884 31e0 	strb.w	r3, [r4, #480]	; 0x1e0
 800157e:	4907      	ldr	r1, [pc, #28]	; (800159c <ParseReceived+0x92c>)
 8001580:	4628      	mov	r0, r5
 8001582:	f7fe fe25 	bl	80001d0 <strcmp>
 8001586:	2800      	cmp	r0, #0
 8001588:	f47f ae35 	bne.w	80011f6 <ParseReceived+0x586>
 800158c:	6060      	str	r0, [r4, #4]
 800158e:	f504 71be 	add.w	r1, r4, #380	; 0x17c
 8001592:	4620      	mov	r0, r4
 8001594:	f7ff fb6a 	bl	8000c6c <ESP8266_Callback_ConnectedStationsDetected>
 8001598:	e61b      	b.n	80011d2 <ParseReceived+0x562>
 800159a:	bf00      	nop
 800159c:	0800970f 	.word	0x0800970f
 80015a0:	0800972b 	.word	0x0800972b
 80015a4:	080097f7 	.word	0x080097f7
 80015a8:	08009802 	.word	0x08009802

080015ac <ESP8266_Update>:
 80015ac:	b5f0      	push	{r4, r5, r6, r7, lr}
 80015ae:	6983      	ldr	r3, [r0, #24]
 80015b0:	b0a3      	sub	sp, #140	; 0x8c
 80015b2:	4604      	mov	r4, r0
 80015b4:	b913      	cbnz	r3, 80015bc <ESP8266_Update+0x10>
 80015b6:	f247 5330 	movw	r3, #30000	; 0x7530
 80015ba:	6183      	str	r3, [r0, #24]
 80015bc:	6923      	ldr	r3, [r4, #16]
 80015be:	68e2      	ldr	r2, [r4, #12]
 80015c0:	1a9b      	subs	r3, r3, r2
 80015c2:	69a2      	ldr	r2, [r4, #24]
 80015c4:	4293      	cmp	r3, r2
 80015c6:	d918      	bls.n	80015fa <ESP8266_Update+0x4e>
 80015c8:	6863      	ldr	r3, [r4, #4]
 80015ca:	b2db      	uxtb	r3, r3
 80015cc:	2500      	movs	r5, #0
 80015ce:	2b0a      	cmp	r3, #10
 80015d0:	6065      	str	r5, [r4, #4]
 80015d2:	d112      	bne.n	80015fa <ESP8266_Update+0x4e>
 80015d4:	f994 117b 	ldrsb.w	r1, [r4, #379]	; 0x17b
 80015d8:	202c      	movs	r0, #44	; 0x2c
 80015da:	fb00 4301 	mla	r3, r0, r1, r4
 80015de:	fb00 4101 	mla	r1, r0, r1, r4
 80015e2:	f893 2044 	ldrb.w	r2, [r3, #68]	; 0x44
 80015e6:	f002 02bc 	and.w	r2, r2, #188	; 0xbc
 80015ea:	f365 1245 	bfi	r2, r5, #5, #1
 80015ee:	f883 2044 	strb.w	r2, [r3, #68]	; 0x44
 80015f2:	311c      	adds	r1, #28
 80015f4:	4620      	mov	r0, r4
 80015f6:	f000 fdf6 	bl	80021e6 <ESP8266_Callback_ClientConnectionTimeout>
 80015fa:	6863      	ldr	r3, [r4, #4]
 80015fc:	2b1d      	cmp	r3, #29
 80015fe:	d13c      	bne.n	800167a <ESP8266_Update+0xce>
 8001600:	f894 31f1 	ldrb.w	r3, [r4, #497]	; 0x1f1
 8001604:	07d9      	lsls	r1, r3, #31
 8001606:	d538      	bpl.n	800167a <ESP8266_Update+0xce>
 8001608:	2202      	movs	r2, #2
 800160a:	49ad      	ldr	r1, [pc, #692]	; (80018c0 <ESP8266_Update+0x314>)
 800160c:	48ad      	ldr	r0, [pc, #692]	; (80018c4 <ESP8266_Update+0x318>)
 800160e:	f7ff f8c7 	bl	80007a0 <BUFFER_Find>
 8001612:	b200      	sxth	r0, r0
 8001614:	2800      	cmp	r0, #0
 8001616:	f2c0 80a7 	blt.w	8001768 <ESP8266_Update+0x1bc>
 800161a:	d104      	bne.n	8001626 <ESP8266_Update+0x7a>
 800161c:	48a9      	ldr	r0, [pc, #676]	; (80018c4 <ESP8266_Update+0x318>)
 800161e:	2202      	movs	r2, #2
 8001620:	a902      	add	r1, sp, #8
 8001622:	f7ff f864 	bl	80006ee <BUFFER_Read>
 8001626:	f894 31f1 	ldrb.w	r3, [r4, #497]	; 0x1f1
 800162a:	f8d4 51ec 	ldr.w	r5, [r4, #492]	; 0x1ec
 800162e:	f36f 0300 	bfc	r3, #0, #1
 8001632:	f884 31f1 	strb.w	r3, [r4, #497]	; 0x1f1
 8001636:	231d      	movs	r3, #29
 8001638:	6063      	str	r3, [r4, #4]
 800163a:	f895 3028 	ldrb.w	r3, [r5, #40]	; 0x28
 800163e:	696a      	ldr	r2, [r5, #20]
 8001640:	f013 0f02 	tst.w	r3, #2
 8001644:	4629      	mov	r1, r5
 8001646:	f240 73fe 	movw	r3, #2046	; 0x7fe
 800164a:	4620      	mov	r0, r4
 800164c:	f000 809a 	beq.w	8001784 <ESP8266_Update+0x1d8>
 8001650:	f000 fdc4 	bl	80021dc <ESP8266_Callback_ClientConnectionSendData>
 8001654:	f240 73fe 	movw	r3, #2046	; 0x7fe
 8001658:	4298      	cmp	r0, r3
 800165a:	4606      	mov	r6, r0
 800165c:	f200 8095 	bhi.w	800178a <ESP8266_Update+0x1de>
 8001660:	2800      	cmp	r0, #0
 8001662:	f040 8093 	bne.w	800178c <ESP8266_Update+0x1e0>
 8001666:	2102      	movs	r1, #2
 8001668:	4897      	ldr	r0, [pc, #604]	; (80018c8 <ESP8266_Update+0x31c>)
 800166a:	f000 fbc5 	bl	8001df8 <ESP8266_LL_USARTSend>
 800166e:	f895 3028 	ldrb.w	r3, [r5, #40]	; 0x28
 8001672:	f043 0304 	orr.w	r3, r3, #4
 8001676:	f885 3028 	strb.w	r3, [r5, #40]	; 0x28
 800167a:	6863      	ldr	r3, [r4, #4]
 800167c:	2b11      	cmp	r3, #17
 800167e:	d113      	bne.n	80016a8 <ESP8266_Update+0xfc>
 8001680:	f894 514a 	ldrb.w	r5, [r4, #330]	; 0x14a
 8001684:	b985      	cbnz	r5, 80016a8 <ESP8266_Update+0xfc>
 8001686:	2204      	movs	r2, #4
 8001688:	4990      	ldr	r1, [pc, #576]	; (80018cc <ESP8266_Update+0x320>)
 800168a:	488e      	ldr	r0, [pc, #568]	; (80018c4 <ESP8266_Update+0x318>)
 800168c:	f7ff f888 	bl	80007a0 <BUFFER_Find>
 8001690:	2800      	cmp	r0, #0
 8001692:	db09      	blt.n	80016a8 <ESP8266_Update+0xfc>
 8001694:	488b      	ldr	r0, [pc, #556]	; (80018c4 <ESP8266_Update+0x318>)
 8001696:	f7ff f864 	bl	8000762 <BUFFER_Reset>
 800169a:	f894 31f1 	ldrb.w	r3, [r4, #497]	; 0x1f1
 800169e:	6065      	str	r5, [r4, #4]
 80016a0:	f043 0302 	orr.w	r3, r3, #2
 80016a4:	f884 31f1 	strb.w	r3, [r4, #497]	; 0x1f1
 80016a8:	4e86      	ldr	r6, [pc, #536]	; (80018c4 <ESP8266_Update+0x318>)
 80016aa:	f894 314a 	ldrb.w	r3, [r4, #330]	; 0x14a
 80016ae:	2b00      	cmp	r3, #0
 80016b0:	d076      	beq.n	80017a0 <ESP8266_Update+0x1f4>
 80016b2:	4e87      	ldr	r6, [pc, #540]	; (80018d0 <ESP8266_Update+0x324>)
 80016b4:	f894 314a 	ldrb.w	r3, [r4, #330]	; 0x14a
 80016b8:	2b00      	cmp	r3, #0
 80016ba:	f000 808d 	beq.w	80017d8 <ESP8266_Update+0x22c>
 80016be:	f894 314a 	ldrb.w	r3, [r4, #330]	; 0x14a
 80016c2:	2b00      	cmp	r3, #0
 80016c4:	f000 80a8 	beq.w	8001818 <ESP8266_Update+0x26c>
 80016c8:	f894 2151 	ldrb.w	r2, [r4, #337]	; 0x151
 80016cc:	4d7d      	ldr	r5, [pc, #500]	; (80018c4 <ESP8266_Update+0x318>)
 80016ce:	4b80      	ldr	r3, [pc, #512]	; (80018d0 <ESP8266_Update+0x324>)
 80016d0:	262c      	movs	r6, #44	; 0x2c
 80016d2:	2a00      	cmp	r2, #0
 80016d4:	bf08      	it	eq
 80016d6:	461d      	moveq	r5, r3
 80016d8:	f894 3150 	ldrb.w	r3, [r4, #336]	; 0x150
 80016dc:	f8b4 214e 	ldrh.w	r2, [r4, #334]	; 0x14e
 80016e0:	fb06 4303 	mla	r3, r6, r3, r4
 80016e4:	6a9b      	ldr	r3, [r3, #40]	; 0x28
 80016e6:	429a      	cmp	r2, r3
 80016e8:	f0c0 80c8 	bcc.w	800187c <ESP8266_Update+0x2d0>
 80016ec:	f894 3150 	ldrb.w	r3, [r4, #336]	; 0x150
 80016f0:	f8b4 114e 	ldrh.w	r1, [r4, #334]	; 0x14e
 80016f4:	222c      	movs	r2, #44	; 0x2c
 80016f6:	fb02 4303 	mla	r3, r2, r3, r4
 80016fa:	6a9a      	ldr	r2, [r3, #40]	; 0x28
 80016fc:	4291      	cmp	r1, r2
 80016fe:	f0c0 80b5 	bcc.w	800186c <ESP8266_Update+0x2c0>
 8001702:	2200      	movs	r2, #0
 8001704:	f884 214a 	strb.w	r2, [r4, #330]	; 0x14a
 8001708:	f8b4 214c 	ldrh.w	r2, [r4, #332]	; 0x14c
 800170c:	869a      	strh	r2, [r3, #52]	; 0x34
 800170e:	f893 2044 	ldrb.w	r2, [r3, #68]	; 0x44
 8001712:	f042 0210 	orr.w	r2, r2, #16
 8001716:	f883 2044 	strb.w	r2, [r3, #68]	; 0x44
 800171a:	0652      	lsls	r2, r2, #25
 800171c:	d518      	bpl.n	8001750 <ESP8266_Update+0x1a4>
 800171e:	6b1d      	ldr	r5, [r3, #48]	; 0x30
 8001720:	496c      	ldr	r1, [pc, #432]	; (80018d4 <ESP8266_Update+0x328>)
 8001722:	4628      	mov	r0, r5
 8001724:	f007 fb7c 	bl	8008e20 <strstr>
 8001728:	b920      	cbnz	r0, 8001734 <ESP8266_Update+0x188>
 800172a:	496b      	ldr	r1, [pc, #428]	; (80018d8 <ESP8266_Update+0x32c>)
 800172c:	4628      	mov	r0, r5
 800172e:	f007 fb77 	bl	8008e20 <strstr>
 8001732:	b168      	cbz	r0, 8001750 <ESP8266_Update+0x1a4>
 8001734:	7bc3      	ldrb	r3, [r0, #15]
 8001736:	2b20      	cmp	r3, #32
 8001738:	bf14      	ite	ne
 800173a:	300f      	addne	r0, #15
 800173c:	3010      	addeq	r0, #16
 800173e:	2100      	movs	r1, #0
 8001740:	f7ff f8b8 	bl	80008b4 <ParseNumber>
 8001744:	f894 3150 	ldrb.w	r3, [r4, #336]	; 0x150
 8001748:	222c      	movs	r2, #44	; 0x2c
 800174a:	fb02 4303 	mla	r3, r2, r3, r4
 800174e:	6398      	str	r0, [r3, #56]	; 0x38
 8001750:	f894 3150 	ldrb.w	r3, [r4, #336]	; 0x150
 8001754:	222c      	movs	r2, #44	; 0x2c
 8001756:	fb02 4303 	mla	r3, r2, r3, r4
 800175a:	f893 2044 	ldrb.w	r2, [r3, #68]	; 0x44
 800175e:	f042 0208 	orr.w	r2, r2, #8
 8001762:	f883 2044 	strb.w	r2, [r3, #68]	; 0x44
 8001766:	e081      	b.n	800186c <ESP8266_Update+0x2c0>
 8001768:	2202      	movs	r2, #2
 800176a:	4955      	ldr	r1, [pc, #340]	; (80018c0 <ESP8266_Update+0x314>)
 800176c:	4858      	ldr	r0, [pc, #352]	; (80018d0 <ESP8266_Update+0x324>)
 800176e:	f7ff f817 	bl	80007a0 <BUFFER_Find>
 8001772:	b200      	sxth	r0, r0
 8001774:	2800      	cmp	r0, #0
 8001776:	db80      	blt.n	800167a <ESP8266_Update+0xce>
 8001778:	f47f af55 	bne.w	8001626 <ESP8266_Update+0x7a>
 800177c:	2202      	movs	r2, #2
 800177e:	a902      	add	r1, sp, #8
 8001780:	4853      	ldr	r0, [pc, #332]	; (80018d0 <ESP8266_Update+0x324>)
 8001782:	e74e      	b.n	8001622 <ESP8266_Update+0x76>
 8001784:	f7ff fa39 	bl	8000bfa <ESP8266_Callback_ServerConnectionSendData>
 8001788:	e764      	b.n	8001654 <ESP8266_Update+0xa8>
 800178a:	461e      	mov	r6, r3
 800178c:	4631      	mov	r1, r6
 800178e:	6968      	ldr	r0, [r5, #20]
 8001790:	f000 fb32 	bl	8001df8 <ESP8266_LL_USARTSend>
 8001794:	f8d4 31e8 	ldr.w	r3, [r4, #488]	; 0x1e8
 8001798:	441e      	add	r6, r3
 800179a:	f8c4 61e8 	str.w	r6, [r4, #488]	; 0x1e8
 800179e:	e762      	b.n	8001666 <ESP8266_Update+0xba>
 80017a0:	2280      	movs	r2, #128	; 0x80
 80017a2:	a902      	add	r1, sp, #8
 80017a4:	4630      	mov	r0, r6
 80017a6:	f7ff f849 	bl	800083c <BUFFER_ReadString>
 80017aa:	b282      	uxth	r2, r0
 80017ac:	4605      	mov	r5, r0
 80017ae:	2a00      	cmp	r2, #0
 80017b0:	f43f af7f 	beq.w	80016b2 <ESP8266_Update+0x106>
 80017b4:	2301      	movs	r3, #1
 80017b6:	a902      	add	r1, sp, #8
 80017b8:	4620      	mov	r0, r4
 80017ba:	f7ff fa59 	bl	8000c70 <ParseReceived>
 80017be:	b283      	uxth	r3, r0
 80017c0:	2b00      	cmp	r3, #0
 80017c2:	f43f af72 	beq.w	80016aa <ESP8266_Update+0xfe>
 80017c6:	b2a9      	uxth	r1, r5
 80017c8:	461a      	mov	r2, r3
 80017ca:	1ac9      	subs	r1, r1, r3
 80017cc:	ab02      	add	r3, sp, #8
 80017ce:	4419      	add	r1, r3
 80017d0:	4630      	mov	r0, r6
 80017d2:	f7fe ff51 	bl	8000678 <BUFFER_WriteToTop>
 80017d6:	e768      	b.n	80016aa <ESP8266_Update+0xfe>
 80017d8:	6867      	ldr	r7, [r4, #4]
 80017da:	2f00      	cmp	r7, #0
 80017dc:	f47f af6f 	bne.w	80016be <ESP8266_Update+0x112>
 80017e0:	2280      	movs	r2, #128	; 0x80
 80017e2:	a902      	add	r1, sp, #8
 80017e4:	4630      	mov	r0, r6
 80017e6:	f7ff f829 	bl	800083c <BUFFER_ReadString>
 80017ea:	b282      	uxth	r2, r0
 80017ec:	4605      	mov	r5, r0
 80017ee:	2a00      	cmp	r2, #0
 80017f0:	f43f af65 	beq.w	80016be <ESP8266_Update+0x112>
 80017f4:	463b      	mov	r3, r7
 80017f6:	a902      	add	r1, sp, #8
 80017f8:	4620      	mov	r0, r4
 80017fa:	f7ff fa39 	bl	8000c70 <ParseReceived>
 80017fe:	b283      	uxth	r3, r0
 8001800:	2b00      	cmp	r3, #0
 8001802:	f43f af57 	beq.w	80016b4 <ESP8266_Update+0x108>
 8001806:	b2a9      	uxth	r1, r5
 8001808:	461a      	mov	r2, r3
 800180a:	1ac9      	subs	r1, r1, r3
 800180c:	ab02      	add	r3, sp, #8
 800180e:	4419      	add	r1, r3
 8001810:	4630      	mov	r0, r6
 8001812:	f7fe ff31 	bl	8000678 <BUFFER_WriteToTop>
 8001816:	e74d      	b.n	80016b4 <ESP8266_Update+0x108>
 8001818:	4d2a      	ldr	r5, [pc, #168]	; (80018c4 <ESP8266_Update+0x318>)
 800181a:	e9d5 3202 	ldrd	r3, r2, [r5, #8]
 800181e:	5cd3      	ldrb	r3, [r2, r3]
 8001820:	2b2b      	cmp	r3, #43	; 0x2b
 8001822:	d123      	bne.n	800186c <ESP8266_Update+0x2c0>
 8001824:	2205      	movs	r2, #5
 8001826:	492d      	ldr	r1, [pc, #180]	; (80018dc <ESP8266_Update+0x330>)
 8001828:	4628      	mov	r0, r5
 800182a:	f7fe ffb9 	bl	80007a0 <BUFFER_Find>
 800182e:	4606      	mov	r6, r0
 8001830:	b9b8      	cbnz	r0, 8001862 <ESP8266_Update+0x2b6>
 8001832:	2201      	movs	r2, #1
 8001834:	492a      	ldr	r1, [pc, #168]	; (80018e0 <ESP8266_Update+0x334>)
 8001836:	4628      	mov	r0, r5
 8001838:	f7fe ffb2 	bl	80007a0 <BUFFER_Find>
 800183c:	1e43      	subs	r3, r0, #1
 800183e:	2b21      	cmp	r3, #33	; 0x21
 8001840:	d80f      	bhi.n	8001862 <ESP8266_Update+0x2b6>
 8001842:	1c42      	adds	r2, r0, #1
 8001844:	a902      	add	r1, sp, #8
 8001846:	4628      	mov	r0, r5
 8001848:	f7fe ff51 	bl	80006ee <BUFFER_Read>
 800184c:	ab22      	add	r3, sp, #136	; 0x88
 800184e:	fa13 f380 	uxtah	r3, r3, r0
 8001852:	b282      	uxth	r2, r0
 8001854:	f803 6c80 	strb.w	r6, [r3, #-128]
 8001858:	a902      	add	r1, sp, #8
 800185a:	2301      	movs	r3, #1
 800185c:	4620      	mov	r0, r4
 800185e:	f7ff fa07 	bl	8000c70 <ParseReceived>
 8001862:	f894 314a 	ldrb.w	r3, [r4, #330]	; 0x14a
 8001866:	2b00      	cmp	r3, #0
 8001868:	f47f af2e 	bne.w	80016c8 <ESP8266_Update+0x11c>
 800186c:	4620      	mov	r0, r4
 800186e:	f7ff f9c8 	bl	8000c02 <CallConnectionCallbacks>
 8001872:	2000      	movs	r0, #0
 8001874:	f884 01f4 	strb.w	r0, [r4, #500]	; 0x1f4
 8001878:	b023      	add	sp, #140	; 0x8c
 800187a:	bdf0      	pop	{r4, r5, r6, r7, pc}
 800187c:	4628      	mov	r0, r5
 800187e:	f7fe ff27 	bl	80006d0 <BUFFER_GetFull>
 8001882:	2800      	cmp	r0, #0
 8001884:	f43f af32 	beq.w	80016ec <ESP8266_Update+0x140>
 8001888:	2201      	movs	r2, #1
 800188a:	f10d 0107 	add.w	r1, sp, #7
 800188e:	4628      	mov	r0, r5
 8001890:	f7fe ff2d 	bl	80006ee <BUFFER_Read>
 8001894:	f894 3150 	ldrb.w	r3, [r4, #336]	; 0x150
 8001898:	f8b4 214c 	ldrh.w	r2, [r4, #332]	; 0x14c
 800189c:	f89d 1007 	ldrb.w	r1, [sp, #7]
 80018a0:	fb06 4303 	mla	r3, r6, r3, r4
 80018a4:	6b1b      	ldr	r3, [r3, #48]	; 0x30
 80018a6:	5499      	strb	r1, [r3, r2]
 80018a8:	f8b4 314c 	ldrh.w	r3, [r4, #332]	; 0x14c
 80018ac:	3301      	adds	r3, #1
 80018ae:	f8a4 314c 	strh.w	r3, [r4, #332]	; 0x14c
 80018b2:	f8b4 314e 	ldrh.w	r3, [r4, #334]	; 0x14e
 80018b6:	3301      	adds	r3, #1
 80018b8:	f8a4 314e 	strh.w	r3, [r4, #334]	; 0x14e
 80018bc:	e70c      	b.n	80016d8 <ESP8266_Update+0x12c>
 80018be:	bf00      	nop
 80018c0:	08009606 	.word	0x08009606
 80018c4:	20001da4 	.word	0x20001da4
 80018c8:	08009609 	.word	0x08009609
 80018cc:	0800970f 	.word	0x0800970f
 80018d0:	2000198c 	.word	0x2000198c
 80018d4:	0800960c 	.word	0x0800960c
 80018d8:	0800961c 	.word	0x0800961c
 80018dc:	0800973f 	.word	0x0800973f
 80018e0:	080097c3 	.word	0x080097c3

080018e4 <SendCommand>:
 80018e4:	b538      	push	{r3, r4, r5, lr}
 80018e6:	4615      	mov	r5, r2
 80018e8:	6842      	ldr	r2, [r0, #4]
 80018ea:	4604      	mov	r4, r0
 80018ec:	b12a      	cbz	r2, 80018fa <SendCommand+0x16>
 80018ee:	f7ff fe5d 	bl	80015ac <ESP8266_Update>
 80018f2:	2006      	movs	r0, #6
 80018f4:	f884 01f4 	strb.w	r0, [r4, #500]	; 0x1f4
 80018f8:	bd38      	pop	{r3, r4, r5, pc}
 80018fa:	2911      	cmp	r1, #17
 80018fc:	6041      	str	r1, [r0, #4]
 80018fe:	6083      	str	r3, [r0, #8]
 8001900:	d102      	bne.n	8001908 <SendCommand+0x24>
 8001902:	4807      	ldr	r0, [pc, #28]	; (8001920 <SendCommand+0x3c>)
 8001904:	f7fe ff2d 	bl	8000762 <BUFFER_Reset>
 8001908:	b135      	cbz	r5, 8001918 <SendCommand+0x34>
 800190a:	4628      	mov	r0, r5
 800190c:	f7fe fc6a 	bl	80001e4 <strlen>
 8001910:	b281      	uxth	r1, r0
 8001912:	4628      	mov	r0, r5
 8001914:	f000 fa70 	bl	8001df8 <ESP8266_LL_USARTSend>
 8001918:	6923      	ldr	r3, [r4, #16]
 800191a:	60e3      	str	r3, [r4, #12]
 800191c:	2000      	movs	r0, #0
 800191e:	e7e9      	b.n	80018f4 <SendCommand+0x10>
 8001920:	20001da4 	.word	0x20001da4

08001924 <ESP8266_CloseAllConnections>:
 8001924:	2300      	movs	r3, #0
 8001926:	4a02      	ldr	r2, [pc, #8]	; (8001930 <ESP8266_CloseAllConnections+0xc>)
 8001928:	2109      	movs	r1, #9
 800192a:	f7ff bfdb 	b.w	80018e4 <SendCommand>
 800192e:	bf00      	nop
 8001930:	0800955c 	.word	0x0800955c

08001934 <ESP8266_GetSTAMAC>:
 8001934:	b510      	push	{r4, lr}
 8001936:	4604      	mov	r4, r0
 8001938:	4b07      	ldr	r3, [pc, #28]	; (8001958 <ESP8266_GetSTAMAC+0x24>)
 800193a:	4a08      	ldr	r2, [pc, #32]	; (800195c <ESP8266_GetSTAMAC+0x28>)
 800193c:	2118      	movs	r1, #24
 800193e:	f7ff ffd1 	bl	80018e4 <SendCommand>
 8001942:	f894 01f4 	ldrb.w	r0, [r4, #500]	; 0x1f4
 8001946:	b928      	cbnz	r0, 8001954 <ESP8266_GetSTAMAC+0x20>
 8001948:	f894 31f0 	ldrb.w	r3, [r4, #496]	; 0x1f0
 800194c:	f360 03c3 	bfi	r3, r0, #3, #1
 8001950:	f884 31f0 	strb.w	r3, [r4, #496]	; 0x1f0
 8001954:	bd10      	pop	{r4, pc}
 8001956:	bf00      	nop
 8001958:	080097f7 	.word	0x080097f7
 800195c:	08009578 	.word	0x08009578

08001960 <ESP8266_WaitReady>:
 8001960:	b570      	push	{r4, r5, r6, lr}
 8001962:	4e0c      	ldr	r6, [pc, #48]	; (8001994 <ESP8266_WaitReady+0x34>)
 8001964:	4d0c      	ldr	r5, [pc, #48]	; (8001998 <ESP8266_WaitReady+0x38>)
 8001966:	4604      	mov	r4, r0
 8001968:	f894 31f1 	ldrb.w	r3, [r4, #497]	; 0x1f1
 800196c:	07db      	lsls	r3, r3, #31
 800196e:	d409      	bmi.n	8001984 <ESP8266_WaitReady+0x24>
 8001970:	4620      	mov	r0, r4
 8001972:	f7ff fe1b 	bl	80015ac <ESP8266_Update>
 8001976:	6863      	ldr	r3, [r4, #4]
 8001978:	2b00      	cmp	r3, #0
 800197a:	d1f5      	bne.n	8001968 <ESP8266_WaitReady+0x8>
 800197c:	2000      	movs	r0, #0
 800197e:	f884 01f4 	strb.w	r0, [r4, #500]	; 0x1f4
 8001982:	bd70      	pop	{r4, r5, r6, pc}
 8001984:	2202      	movs	r2, #2
 8001986:	4631      	mov	r1, r6
 8001988:	4628      	mov	r0, r5
 800198a:	f7fe ff09 	bl	80007a0 <BUFFER_Find>
 800198e:	2800      	cmp	r0, #0
 8001990:	dbee      	blt.n	8001970 <ESP8266_WaitReady+0x10>
 8001992:	e7f3      	b.n	800197c <ESP8266_WaitReady+0x1c>
 8001994:	08009606 	.word	0x08009606
 8001998:	20001da4 	.word	0x20001da4

0800199c <ESP8266_GetAP>:
 800199c:	b510      	push	{r4, lr}
 800199e:	4b07      	ldr	r3, [pc, #28]	; (80019bc <ESP8266_GetAP+0x20>)
 80019a0:	4a07      	ldr	r2, [pc, #28]	; (80019c0 <ESP8266_GetAP+0x24>)
 80019a2:	210c      	movs	r1, #12
 80019a4:	4604      	mov	r4, r0
 80019a6:	f7ff ff9d 	bl	80018e4 <SendCommand>
 80019aa:	b920      	cbnz	r0, 80019b6 <ESP8266_GetAP+0x1a>
 80019ac:	4620      	mov	r0, r4
 80019ae:	e8bd 4010 	ldmia.w	sp!, {r4, lr}
 80019b2:	f7ff bfd5 	b.w	8001960 <ESP8266_WaitReady>
 80019b6:	f894 01f4 	ldrb.w	r0, [r4, #500]	; 0x1f4
 80019ba:	bd10      	pop	{r4, pc}
 80019bc:	080097d9 	.word	0x080097d9
 80019c0:	0800956c 	.word	0x0800956c

080019c4 <ESP8266_WifiConnect>:
 80019c4:	e92d 41f0 	stmdb	sp!, {r4, r5, r6, r7, r8, lr}
 80019c8:	6845      	ldr	r5, [r0, #4]
 80019ca:	4604      	mov	r4, r0
 80019cc:	460f      	mov	r7, r1
 80019ce:	4616      	mov	r6, r2
 80019d0:	b9cd      	cbnz	r5, 8001a06 <ESP8266_WifiConnect+0x42>
 80019d2:	210a      	movs	r1, #10
 80019d4:	480f      	ldr	r0, [pc, #60]	; (8001a14 <ESP8266_WifiConnect+0x50>)
 80019d6:	f000 fa0f 	bl	8001df8 <ESP8266_LL_USARTSend>
 80019da:	4638      	mov	r0, r7
 80019dc:	f7fe ff86 	bl	80008ec <EscapeStringAndSend>
 80019e0:	2103      	movs	r1, #3
 80019e2:	480d      	ldr	r0, [pc, #52]	; (8001a18 <ESP8266_WifiConnect+0x54>)
 80019e4:	f000 fa08 	bl	8001df8 <ESP8266_LL_USARTSend>
 80019e8:	4630      	mov	r0, r6
 80019ea:	f7fe ff7f 	bl	80008ec <EscapeStringAndSend>
 80019ee:	2103      	movs	r1, #3
 80019f0:	480a      	ldr	r0, [pc, #40]	; (8001a1c <ESP8266_WifiConnect+0x58>)
 80019f2:	f000 fa01 	bl	8001df8 <ESP8266_LL_USARTSend>
 80019f6:	462a      	mov	r2, r5
 80019f8:	4620      	mov	r0, r4
 80019fa:	4b09      	ldr	r3, [pc, #36]	; (8001a20 <ESP8266_WifiConnect+0x5c>)
 80019fc:	2103      	movs	r1, #3
 80019fe:	e8bd 41f0 	ldmia.w	sp!, {r4, r5, r6, r7, r8, lr}
 8001a02:	f7ff bf6f 	b.w	80018e4 <SendCommand>
 8001a06:	f7ff fdd1 	bl	80015ac <ESP8266_Update>
 8001a0a:	2006      	movs	r0, #6
 8001a0c:	f884 01f4 	strb.w	r0, [r4, #500]	; 0x1f4
 8001a10:	e8bd 81f0 	ldmia.w	sp!, {r4, r5, r6, r7, r8, pc}
 8001a14:	0800962c 	.word	0x0800962c
 8001a18:	08009637 	.word	0x08009637
 8001a1c:	0800963b 	.word	0x0800963b
 8001a20:	080097bd 	.word	0x080097bd

08001a24 <ESP8266_SetMode>:
 8001a24:	b5f7      	push	{r0, r1, r2, r4, r5, r6, r7, lr}
 8001a26:	6847      	ldr	r7, [r0, #4]
 8001a28:	f88d 1007 	strb.w	r1, [sp, #7]
 8001a2c:	4604      	mov	r4, r0
 8001a2e:	460d      	mov	r5, r1
 8001a30:	b12f      	cbz	r7, 8001a3e <ESP8266_SetMode+0x1a>
 8001a32:	f7ff fdbb 	bl	80015ac <ESP8266_Update>
 8001a36:	2006      	movs	r0, #6
 8001a38:	f884 01f4 	strb.w	r0, [r4, #500]	; 0x1f4
 8001a3c:	e019      	b.n	8001a72 <ESP8266_SetMode+0x4e>
 8001a3e:	ae02      	add	r6, sp, #8
 8001a40:	f101 0330 	add.w	r3, r1, #48	; 0x30
 8001a44:	f806 3d01 	strb.w	r3, [r6, #-1]!
 8001a48:	210a      	movs	r1, #10
 8001a4a:	4812      	ldr	r0, [pc, #72]	; (8001a94 <ESP8266_SetMode+0x70>)
 8001a4c:	f000 f9d4 	bl	8001df8 <ESP8266_LL_USARTSend>
 8001a50:	2101      	movs	r1, #1
 8001a52:	4630      	mov	r0, r6
 8001a54:	f000 f9d0 	bl	8001df8 <ESP8266_LL_USARTSend>
 8001a58:	2102      	movs	r1, #2
 8001a5a:	480f      	ldr	r0, [pc, #60]	; (8001a98 <ESP8266_SetMode+0x74>)
 8001a5c:	f000 f9cc 	bl	8001df8 <ESP8266_LL_USARTSend>
 8001a60:	4b0e      	ldr	r3, [pc, #56]	; (8001a9c <ESP8266_SetMode+0x78>)
 8001a62:	463a      	mov	r2, r7
 8001a64:	2105      	movs	r1, #5
 8001a66:	4620      	mov	r0, r4
 8001a68:	f7ff ff3c 	bl	80018e4 <SendCommand>
 8001a6c:	b118      	cbz	r0, 8001a76 <ESP8266_SetMode+0x52>
 8001a6e:	f894 01f4 	ldrb.w	r0, [r4, #500]	; 0x1f4
 8001a72:	b003      	add	sp, #12
 8001a74:	bdf0      	pop	{r4, r5, r6, r7, pc}
 8001a76:	f884 511c 	strb.w	r5, [r4, #284]	; 0x11c
 8001a7a:	4620      	mov	r0, r4
 8001a7c:	f7ff ff70 	bl	8001960 <ESP8266_WaitReady>
 8001a80:	f894 311d 	ldrb.w	r3, [r4, #285]	; 0x11d
 8001a84:	42ab      	cmp	r3, r5
 8001a86:	d001      	beq.n	8001a8c <ESP8266_SetMode+0x68>
 8001a88:	2001      	movs	r0, #1
 8001a8a:	e7d5      	b.n	8001a38 <ESP8266_SetMode+0x14>
 8001a8c:	4620      	mov	r0, r4
 8001a8e:	f7ff ff85 	bl	800199c <ESP8266_GetAP>
 8001a92:	e7ee      	b.n	8001a72 <ESP8266_SetMode+0x4e>
 8001a94:	080095e1 	.word	0x080095e1
 8001a98:	0800963c 	.word	0x0800963c
 8001a9c:	080095ec 	.word	0x080095ec

08001aa0 <ESP8266_RequestSendData>:
 8001aa0:	b570      	push	{r4, r5, r6, lr}
 8001aa2:	6845      	ldr	r5, [r0, #4]
 8001aa4:	4604      	mov	r4, r0
 8001aa6:	460e      	mov	r6, r1
 8001aa8:	b12d      	cbz	r5, 8001ab6 <ESP8266_RequestSendData+0x16>
 8001aaa:	f7ff fd7f 	bl	80015ac <ESP8266_Update>
 8001aae:	2006      	movs	r0, #6
 8001ab0:	f884 01f4 	strb.w	r0, [r4, #500]	; 0x1f4
 8001ab4:	bd70      	pop	{r4, r5, r6, pc}
 8001ab6:	210d      	movs	r1, #13
 8001ab8:	480a      	ldr	r0, [pc, #40]	; (8001ae4 <ESP8266_RequestSendData+0x44>)
 8001aba:	f000 f99d 	bl	8001df8 <ESP8266_LL_USARTSend>
 8001abe:	2106      	movs	r1, #6
 8001ac0:	4809      	ldr	r0, [pc, #36]	; (8001ae8 <ESP8266_RequestSendData+0x48>)
 8001ac2:	f000 f999 	bl	8001df8 <ESP8266_LL_USARTSend>
 8001ac6:	462b      	mov	r3, r5
 8001ac8:	462a      	mov	r2, r5
 8001aca:	2108      	movs	r1, #8
 8001acc:	4620      	mov	r0, r4
 8001ace:	f7ff ff09 	bl	80018e4 <SendCommand>
 8001ad2:	f894 31f4 	ldrb.w	r3, [r4, #500]	; 0x1f4
 8001ad6:	b108      	cbz	r0, 8001adc <ESP8266_RequestSendData+0x3c>
 8001ad8:	4618      	mov	r0, r3
 8001ada:	e7eb      	b.n	8001ab4 <ESP8266_RequestSendData+0x14>
 8001adc:	f8c4 61ec 	str.w	r6, [r4, #492]	; 0x1ec
 8001ae0:	e7fa      	b.n	8001ad8 <ESP8266_RequestSendData+0x38>
 8001ae2:	bf00      	nop
 8001ae4:	080095ba 	.word	0x080095ba
 8001ae8:	080095c8 	.word	0x080095c8

08001aec <StartClientConnection.isra.3>:
 8001aec:	e92d 4ff0 	stmdb	sp!, {r4, r5, r6, r7, r8, r9, sl, fp, lr}
 8001af0:	6844      	ldr	r4, [r0, #4]
 8001af2:	b085      	sub	sp, #20
 8001af4:	4605      	mov	r5, r0
 8001af6:	4688      	mov	r8, r1
 8001af8:	4693      	mov	fp, r2
 8001afa:	4699      	mov	r9, r3
 8001afc:	b12c      	cbz	r4, 8001b0a <StartClientConnection.isra.3+0x1e>
 8001afe:	f7ff fd55 	bl	80015ac <ESP8266_Update>
 8001b02:	2006      	movs	r0, #6
 8001b04:	f885 01f4 	strb.w	r0, [r5, #500]	; 0x1f4
 8001b08:	e06d      	b.n	8001be6 <StartClientConnection.isra.3+0xfa>
 8001b0a:	f890 31f1 	ldrb.w	r3, [r0, #497]	; 0x1f1
 8001b0e:	0758      	lsls	r0, r3, #29
 8001b10:	d401      	bmi.n	8001b16 <StartClientConnection.isra.3+0x2a>
 8001b12:	2005      	movs	r0, #5
 8001b14:	e7f6      	b.n	8001b04 <StartClientConnection.isra.3+0x18>
 8001b16:	2902      	cmp	r1, #2
 8001b18:	d110      	bne.n	8001b3c <StartClientConnection.isra.3+0x50>
 8001b1a:	222c      	movs	r2, #44	; 0x2c
 8001b1c:	fb02 5304 	mla	r3, r2, r4, r5
 8001b20:	f893 1044 	ldrb.w	r1, [r3, #68]	; 0x44
 8001b24:	07c9      	lsls	r1, r1, #31
 8001b26:	d505      	bpl.n	8001b34 <StartClientConnection.isra.3+0x48>
 8001b28:	f893 3024 	ldrb.w	r3, [r3, #36]	; 0x24
 8001b2c:	2b02      	cmp	r3, #2
 8001b2e:	d101      	bne.n	8001b34 <StartClientConnection.isra.3+0x48>
 8001b30:	2001      	movs	r0, #1
 8001b32:	e7e7      	b.n	8001b04 <StartClientConnection.isra.3+0x18>
 8001b34:	3401      	adds	r4, #1
 8001b36:	2c05      	cmp	r4, #5
 8001b38:	d1f0      	bne.n	8001b1c <StartClientConnection.isra.3+0x30>
 8001b3a:	2400      	movs	r4, #0
 8001b3c:	222c      	movs	r2, #44	; 0x2c
 8001b3e:	fb02 5604 	mla	r6, r2, r4, r5
 8001b42:	f106 0740 	add.w	r7, r6, #64	; 0x40
 8001b46:	793b      	ldrb	r3, [r7, #4]
 8001b48:	f013 0301 	ands.w	r3, r3, #1
 8001b4c:	fa5f fa84 	uxtb.w	sl, r4
 8001b50:	d143      	bne.n	8001bda <StartClientConnection.isra.3+0xee>
 8001b52:	210d      	movs	r1, #13
 8001b54:	4825      	ldr	r0, [pc, #148]	; (8001bec <StartClientConnection.isra.3+0x100>)
 8001b56:	9301      	str	r3, [sp, #4]
 8001b58:	f000 f94e 	bl	8001df8 <ESP8266_LL_USARTSend>
 8001b5c:	4658      	mov	r0, fp
 8001b5e:	f7fe fb41 	bl	80001e4 <strlen>
 8001b62:	b281      	uxth	r1, r0
 8001b64:	4658      	mov	r0, fp
 8001b66:	f000 f947 	bl	8001df8 <ESP8266_LL_USARTSend>
 8001b6a:	2103      	movs	r1, #3
 8001b6c:	4820      	ldr	r0, [pc, #128]	; (8001bf0 <StartClientConnection.isra.3+0x104>)
 8001b6e:	f000 f943 	bl	8001df8 <ESP8266_LL_USARTSend>
 8001b72:	980e      	ldr	r0, [sp, #56]	; 0x38
 8001b74:	f7fe fb36 	bl	80001e4 <strlen>
 8001b78:	b281      	uxth	r1, r0
 8001b7a:	980e      	ldr	r0, [sp, #56]	; 0x38
 8001b7c:	f000 f93c 	bl	8001df8 <ESP8266_LL_USARTSend>
 8001b80:	2102      	movs	r1, #2
 8001b82:	481c      	ldr	r0, [pc, #112]	; (8001bf4 <StartClientConnection.isra.3+0x108>)
 8001b84:	f000 f938 	bl	8001df8 <ESP8266_LL_USARTSend>
 8001b88:	f8bd 103c 	ldrh.w	r1, [sp, #60]	; 0x3c
 8001b8c:	a802      	add	r0, sp, #8
 8001b8e:	f7ff f81d 	bl	8000bcc <Int2String>
 8001b92:	a802      	add	r0, sp, #8
 8001b94:	f7fe fb26 	bl	80001e4 <strlen>
 8001b98:	b281      	uxth	r1, r0
 8001b9a:	a802      	add	r0, sp, #8
 8001b9c:	f000 f92c 	bl	8001df8 <ESP8266_LL_USARTSend>
 8001ba0:	2102      	movs	r1, #2
 8001ba2:	4815      	ldr	r0, [pc, #84]	; (8001bf8 <StartClientConnection.isra.3+0x10c>)
 8001ba4:	f000 f928 	bl	8001df8 <ESP8266_LL_USARTSend>
 8001ba8:	9b01      	ldr	r3, [sp, #4]
 8001baa:	210a      	movs	r1, #10
 8001bac:	461a      	mov	r2, r3
 8001bae:	4628      	mov	r0, r5
 8001bb0:	f7ff fe98 	bl	80018e4 <SendCommand>
 8001bb4:	b9a8      	cbnz	r0, 8001be2 <StartClientConnection.isra.3+0xf6>
 8001bb6:	793b      	ldrb	r3, [r7, #4]
 8001bb8:	f043 0303 	orr.w	r3, r3, #3
 8001bbc:	713b      	strb	r3, [r7, #4]
 8001bbe:	4b0f      	ldr	r3, [pc, #60]	; (8001bfc <StartClientConnection.isra.3+0x110>)
 8001bc0:	6333      	str	r3, [r6, #48]	; 0x30
 8001bc2:	9b10      	ldr	r3, [sp, #64]	; 0x40
 8001bc4:	f886 8024 	strb.w	r8, [r6, #36]	; 0x24
 8001bc8:	62f0      	str	r0, [r6, #44]	; 0x2c
 8001bca:	f886 a01c 	strb.w	sl, [r6, #28]
 8001bce:	f885 417b 	strb.w	r4, [r5, #379]	; 0x17b
 8001bd2:	f8c6 903c 	str.w	r9, [r6, #60]	; 0x3c
 8001bd6:	603b      	str	r3, [r7, #0]
 8001bd8:	e794      	b.n	8001b04 <StartClientConnection.isra.3+0x18>
 8001bda:	3401      	adds	r4, #1
 8001bdc:	2c05      	cmp	r4, #5
 8001bde:	d1ae      	bne.n	8001b3e <StartClientConnection.isra.3+0x52>
 8001be0:	e7a6      	b.n	8001b30 <StartClientConnection.isra.3+0x44>
 8001be2:	f895 01f4 	ldrb.w	r0, [r5, #500]	; 0x1f4
 8001be6:	b005      	add	sp, #20
 8001be8:	e8bd 8ff0 	ldmia.w	sp!, {r4, r5, r6, r7, r8, r9, sl, fp, pc}
 8001bec:	0800980c 	.word	0x0800980c
 8001bf0:	08009637 	.word	0x08009637
 8001bf4:	080095de 	.word	0x080095de
 8001bf8:	0800963c 	.word	0x0800963c
 8001bfc:	200000b8 	.word	0x200000b8

08001c00 <ESP8266_StartClientConnectionTCP>:
 8001c00:	b51f      	push	{r0, r1, r2, r3, r4, lr}
 8001c02:	9c06      	ldr	r4, [sp, #24]
 8001c04:	9200      	str	r2, [sp, #0]
 8001c06:	e9cd 3401 	strd	r3, r4, [sp, #4]
 8001c0a:	4a03      	ldr	r2, [pc, #12]	; (8001c18 <ESP8266_StartClientConnectionTCP+0x18>)
 8001c0c:	460b      	mov	r3, r1
 8001c0e:	2100      	movs	r1, #0
 8001c10:	f7ff ff6c 	bl	8001aec <StartClientConnection.isra.3>
 8001c14:	b004      	add	sp, #16
 8001c16:	bd10      	pop	{r4, pc}
 8001c18:	08009602 	.word	0x08009602

08001c1c <ESP8266_Init>:
 8001c1c:	2300      	movs	r3, #0
 8001c1e:	e92d 41f3 	stmdb	sp!, {r0, r1, r4, r5, r6, r7, r8, lr}
 8001c22:	4a67      	ldr	r2, [pc, #412]	; (8001dc0 <ESP8266_Init+0x1a4>)
 8001c24:	6183      	str	r3, [r0, #24]
 8001c26:	4604      	mov	r4, r0
 8001c28:	460d      	mov	r5, r1
 8001c2a:	4866      	ldr	r0, [pc, #408]	; (8001dc4 <ESP8266_Init+0x1a8>)
 8001c2c:	f44f 7100 	mov.w	r1, #512	; 0x200
 8001c30:	f7fe fcb6 	bl	80005a0 <BUFFER_Init>
 8001c34:	b128      	cbz	r0, 8001c42 <ESP8266_Init+0x26>
 8001c36:	2004      	movs	r0, #4
 8001c38:	f884 01f4 	strb.w	r0, [r4, #500]	; 0x1f4
 8001c3c:	b002      	add	sp, #8
 8001c3e:	e8bd 81f0 	ldmia.w	sp!, {r4, r5, r6, r7, r8, pc}
 8001c42:	4a61      	ldr	r2, [pc, #388]	; (8001dc8 <ESP8266_Init+0x1ac>)
 8001c44:	4861      	ldr	r0, [pc, #388]	; (8001dcc <ESP8266_Init+0x1b0>)
 8001c46:	f44f 6180 	mov.w	r1, #1024	; 0x400
 8001c4a:	f7fe fca9 	bl	80005a0 <BUFFER_Init>
 8001c4e:	4602      	mov	r2, r0
 8001c50:	2800      	cmp	r0, #0
 8001c52:	d1f0      	bne.n	8001c36 <ESP8266_Init+0x1a>
 8001c54:	2102      	movs	r1, #2
 8001c56:	485e      	ldr	r0, [pc, #376]	; (8001dd0 <ESP8266_Init+0x1b4>)
 8001c58:	f000 fda0 	bl	800279c <HAL_GPIO_WritePin>
 8001c5c:	2064      	movs	r0, #100	; 0x64
 8001c5e:	f000 fc1d 	bl	800249c <HAL_Delay>
 8001c62:	2201      	movs	r2, #1
 8001c64:	2102      	movs	r1, #2
 8001c66:	485a      	ldr	r0, [pc, #360]	; (8001dd0 <ESP8266_Init+0x1b4>)
 8001c68:	f000 fd98 	bl	800279c <HAL_GPIO_WritePin>
 8001c6c:	2064      	movs	r0, #100	; 0x64
 8001c6e:	f000 fc15 	bl	800249c <HAL_Delay>
 8001c72:	f44f 737a 	mov.w	r3, #1000	; 0x3e8
 8001c76:	4a57      	ldr	r2, [pc, #348]	; (8001dd4 <ESP8266_Init+0x1b8>)
 8001c78:	61a3      	str	r3, [r4, #24]
 8001c7a:	210f      	movs	r1, #15
 8001c7c:	4b56      	ldr	r3, [pc, #344]	; (8001dd8 <ESP8266_Init+0x1bc>)
 8001c7e:	6025      	str	r5, [r4, #0]
 8001c80:	4620      	mov	r0, r4
 8001c82:	f7ff fe2f 	bl	80018e4 <SendCommand>
 8001c86:	2064      	movs	r0, #100	; 0x64
 8001c88:	f000 fc08 	bl	800249c <HAL_Delay>
 8001c8c:	4620      	mov	r0, r4
 8001c8e:	f7ff fe67 	bl	8001960 <ESP8266_WaitReady>
 8001c92:	f894 31f1 	ldrb.w	r3, [r4, #497]	; 0x1f1
 8001c96:	0798      	lsls	r0, r3, #30
 8001c98:	d401      	bmi.n	8001c9e <ESP8266_Init+0x82>
 8001c9a:	2002      	movs	r0, #2
 8001c9c:	e7cc      	b.n	8001c38 <ESP8266_Init+0x1c>
 8001c9e:	f247 5330 	movw	r3, #30000	; 0x7530
 8001ca2:	210e      	movs	r1, #14
 8001ca4:	61a3      	str	r3, [r4, #24]
 8001ca6:	4a4d      	ldr	r2, [pc, #308]	; (8001ddc <ESP8266_Init+0x1c0>)
 8001ca8:	4b4d      	ldr	r3, [pc, #308]	; (8001de0 <ESP8266_Init+0x1c4>)
 8001caa:	4620      	mov	r0, r4
 8001cac:	f7ff fe1a 	bl	80018e4 <SendCommand>
 8001cb0:	4620      	mov	r0, r4
 8001cb2:	f7ff fe55 	bl	8001960 <ESP8266_WaitReady>
 8001cb6:	f894 31f1 	ldrb.w	r3, [r4, #497]	; 0x1f1
 8001cba:	0799      	lsls	r1, r3, #30
 8001cbc:	d5ed      	bpl.n	8001c9a <ESP8266_Init+0x7e>
 8001cbe:	4b49      	ldr	r3, [pc, #292]	; (8001de4 <ESP8266_Init+0x1c8>)
 8001cc0:	4a49      	ldr	r2, [pc, #292]	; (8001de8 <ESP8266_Init+0x1cc>)
 8001cc2:	4f4a      	ldr	r7, [pc, #296]	; (8001dec <ESP8266_Init+0x1d0>)
 8001cc4:	f8df 812c 	ldr.w	r8, [pc, #300]	; 8001df4 <ESP8266_Init+0x1d8>
 8001cc8:	210d      	movs	r1, #13
 8001cca:	4620      	mov	r0, r4
 8001ccc:	f7ff fe0a 	bl	80018e4 <SendCommand>
 8001cd0:	4620      	mov	r0, r4
 8001cd2:	f7ff fe45 	bl	8001960 <ESP8266_WaitReady>
 8001cd6:	2630      	movs	r6, #48	; 0x30
 8001cd8:	6865      	ldr	r5, [r4, #4]
 8001cda:	f88d 6007 	strb.w	r6, [sp, #7]
 8001cde:	b135      	cbz	r5, 8001cee <ESP8266_Init+0xd2>
 8001ce0:	4620      	mov	r0, r4
 8001ce2:	f7ff fc63 	bl	80015ac <ESP8266_Update>
 8001ce6:	2306      	movs	r3, #6
 8001ce8:	f884 31f4 	strb.w	r3, [r4, #500]	; 0x1f4
 8001cec:	e7f4      	b.n	8001cd8 <ESP8266_Init+0xbc>
 8001cee:	210a      	movs	r1, #10
 8001cf0:	4638      	mov	r0, r7
 8001cf2:	f000 f881 	bl	8001df8 <ESP8266_LL_USARTSend>
 8001cf6:	2101      	movs	r1, #1
 8001cf8:	f10d 0007 	add.w	r0, sp, #7
 8001cfc:	f000 f87c 	bl	8001df8 <ESP8266_LL_USARTSend>
 8001d00:	2102      	movs	r1, #2
 8001d02:	4640      	mov	r0, r8
 8001d04:	f000 f878 	bl	8001df8 <ESP8266_LL_USARTSend>
 8001d08:	462b      	mov	r3, r5
 8001d0a:	462a      	mov	r2, r5
 8001d0c:	210b      	movs	r1, #11
 8001d0e:	4620      	mov	r0, r4
 8001d10:	f7ff fde8 	bl	80018e4 <SendCommand>
 8001d14:	4605      	mov	r5, r0
 8001d16:	b190      	cbz	r0, 8001d3e <ESP8266_Init+0x122>
 8001d18:	f894 31f4 	ldrb.w	r3, [r4, #500]	; 0x1f4
 8001d1c:	2b00      	cmp	r3, #0
 8001d1e:	d1db      	bne.n	8001cd8 <ESP8266_Init+0xbc>
 8001d20:	4f33      	ldr	r7, [pc, #204]	; (8001df0 <ESP8266_Init+0x1d4>)
 8001d22:	f8df 80d0 	ldr.w	r8, [pc, #208]	; 8001df4 <ESP8266_Init+0x1d8>
 8001d26:	2631      	movs	r6, #49	; 0x31
 8001d28:	6865      	ldr	r5, [r4, #4]
 8001d2a:	f88d 6007 	strb.w	r6, [sp, #7]
 8001d2e:	b195      	cbz	r5, 8001d56 <ESP8266_Init+0x13a>
 8001d30:	4620      	mov	r0, r4
 8001d32:	f7ff fc3b 	bl	80015ac <ESP8266_Update>
 8001d36:	2306      	movs	r3, #6
 8001d38:	f884 31f4 	strb.w	r3, [r4, #500]	; 0x1f4
 8001d3c:	e7f4      	b.n	8001d28 <ESP8266_Init+0x10c>
 8001d3e:	4620      	mov	r0, r4
 8001d40:	f7ff fe0e 	bl	8001960 <ESP8266_WaitReady>
 8001d44:	f894 31f1 	ldrb.w	r3, [r4, #497]	; 0x1f1
 8001d48:	079a      	lsls	r2, r3, #30
 8001d4a:	d401      	bmi.n	8001d50 <ESP8266_Init+0x134>
 8001d4c:	2301      	movs	r3, #1
 8001d4e:	e7cb      	b.n	8001ce8 <ESP8266_Init+0xcc>
 8001d50:	f884 51f4 	strb.w	r5, [r4, #500]	; 0x1f4
 8001d54:	e7e4      	b.n	8001d20 <ESP8266_Init+0x104>
 8001d56:	210c      	movs	r1, #12
 8001d58:	4638      	mov	r0, r7
 8001d5a:	f000 f84d 	bl	8001df8 <ESP8266_LL_USARTSend>
 8001d5e:	2101      	movs	r1, #1
 8001d60:	f10d 0007 	add.w	r0, sp, #7
 8001d64:	f000 f848 	bl	8001df8 <ESP8266_LL_USARTSend>
 8001d68:	2102      	movs	r1, #2
 8001d6a:	4640      	mov	r0, r8
 8001d6c:	f000 f844 	bl	8001df8 <ESP8266_LL_USARTSend>
 8001d70:	462b      	mov	r3, r5
 8001d72:	462a      	mov	r2, r5
 8001d74:	2107      	movs	r1, #7
 8001d76:	4620      	mov	r0, r4
 8001d78:	f7ff fdb4 	bl	80018e4 <SendCommand>
 8001d7c:	4605      	mov	r5, r0
 8001d7e:	b190      	cbz	r0, 8001da6 <ESP8266_Init+0x18a>
 8001d80:	f894 31f4 	ldrb.w	r3, [r4, #500]	; 0x1f4
 8001d84:	2b00      	cmp	r3, #0
 8001d86:	d1cf      	bne.n	8001d28 <ESP8266_Init+0x10c>
 8001d88:	2103      	movs	r1, #3
 8001d8a:	4620      	mov	r0, r4
 8001d8c:	f7ff fe4a 	bl	8001a24 <ESP8266_SetMode>
 8001d90:	2800      	cmp	r0, #0
 8001d92:	d1f9      	bne.n	8001d88 <ESP8266_Init+0x16c>
 8001d94:	4620      	mov	r0, r4
 8001d96:	f7ff fdcd 	bl	8001934 <ESP8266_GetSTAMAC>
 8001d9a:	2800      	cmp	r0, #0
 8001d9c:	d1fa      	bne.n	8001d94 <ESP8266_Init+0x178>
 8001d9e:	4620      	mov	r0, r4
 8001da0:	f7ff fdde 	bl	8001960 <ESP8266_WaitReady>
 8001da4:	e74a      	b.n	8001c3c <ESP8266_Init+0x20>
 8001da6:	4620      	mov	r0, r4
 8001da8:	f7ff fdda 	bl	8001960 <ESP8266_WaitReady>
 8001dac:	f894 31f1 	ldrb.w	r3, [r4, #497]	; 0x1f1
 8001db0:	079b      	lsls	r3, r3, #30
 8001db2:	d401      	bmi.n	8001db8 <ESP8266_Init+0x19c>
 8001db4:	2301      	movs	r3, #1
 8001db6:	e7bf      	b.n	8001d38 <ESP8266_Init+0x11c>
 8001db8:	f884 51f4 	strb.w	r5, [r4, #500]	; 0x1f4
 8001dbc:	e7e4      	b.n	8001d88 <ESP8266_Init+0x16c>
 8001dbe:	bf00      	nop
 8001dc0:	2000178b 	.word	0x2000178b
 8001dc4:	2000198c 	.word	0x2000198c
 8001dc8:	200019a4 	.word	0x200019a4
 8001dcc:	20001da4 	.word	0x20001da4
 8001dd0:	48000800 	.word	0x48000800
 8001dd4:	08009588 	.word	0x08009588
 8001dd8:	08009702 	.word	0x08009702
 8001ddc:	08009591 	.word	0x08009591
 8001de0:	0800970f 	.word	0x0800970f
 8001de4:	08009596 	.word	0x08009596
 8001de8:	0800959b 	.word	0x0800959b
 8001dec:	080095a2 	.word	0x080095a2
 8001df0:	080095ad 	.word	0x080095ad
 8001df4:	0800963c 	.word	0x0800963c

08001df8 <ESP8266_LL_USARTSend>:
 8001df8:	b5f8      	push	{r3, r4, r5, r6, r7, lr}
 8001dfa:	4e09      	ldr	r6, [pc, #36]	; (8001e20 <ESP8266_LL_USARTSend+0x28>)
 8001dfc:	4605      	mov	r5, r0
 8001dfe:	460f      	mov	r7, r1
 8001e00:	4604      	mov	r4, r0
 8001e02:	6f73      	ldr	r3, [r6, #116]	; 0x74
 8001e04:	2b20      	cmp	r3, #32
 8001e06:	d1fc      	bne.n	8001e02 <ESP8266_LL_USARTSend+0xa>
 8001e08:	4621      	mov	r1, r4
 8001e0a:	2201      	movs	r2, #1
 8001e0c:	4630      	mov	r0, r6
 8001e0e:	3401      	adds	r4, #1
 8001e10:	f002 f9c0 	bl	8004194 <HAL_UART_Transmit_IT>
 8001e14:	1b63      	subs	r3, r4, r5
 8001e16:	b29b      	uxth	r3, r3
 8001e18:	429f      	cmp	r7, r3
 8001e1a:	d8f2      	bhi.n	8001e02 <ESP8266_LL_USARTSend+0xa>
 8001e1c:	2000      	movs	r0, #0
 8001e1e:	bdf8      	pop	{r3, r4, r5, r6, r7, pc}
 8001e20:	200027e4 	.word	0x200027e4

08001e24 <HAL_UART_RxCpltCallback>:
 8001e24:	b510      	push	{r4, lr}
 8001e26:	4a0d      	ldr	r2, [pc, #52]	; (8001e5c <HAL_UART_RxCpltCallback+0x38>)
 8001e28:	480d      	ldr	r0, [pc, #52]	; (8001e60 <HAL_UART_RxCpltCallback+0x3c>)
 8001e2a:	7813      	ldrb	r3, [r2, #0]
 8001e2c:	b933      	cbnz	r3, 8001e3c <HAL_UART_RxCpltCallback+0x18>
 8001e2e:	4619      	mov	r1, r3
 8001e30:	461c      	mov	r4, r3
 8001e32:	5444      	strb	r4, [r0, r1]
 8001e34:	3101      	adds	r1, #1
 8001e36:	f5b1 7fc4 	cmp.w	r1, #392	; 0x188
 8001e3a:	d1fa      	bne.n	8001e32 <HAL_UART_RxCpltCallback+0xe>
 8001e3c:	4c09      	ldr	r4, [pc, #36]	; (8001e64 <HAL_UART_RxCpltCallback+0x40>)
 8001e3e:	1c59      	adds	r1, r3, #1
 8001e40:	7011      	strb	r1, [r2, #0]
 8001e42:	7822      	ldrb	r2, [r4, #0]
 8001e44:	54c2      	strb	r2, [r0, r3]
 8001e46:	2101      	movs	r1, #1
 8001e48:	4620      	mov	r0, r4
 8001e4a:	f7fe fec9 	bl	8000be0 <ESP8266_DataReceived>
 8001e4e:	2201      	movs	r2, #1
 8001e50:	4621      	mov	r1, r4
 8001e52:	4805      	ldr	r0, [pc, #20]	; (8001e68 <HAL_UART_RxCpltCallback+0x44>)
 8001e54:	f002 f9d0 	bl	80041f8 <HAL_UART_Receive_IT>
 8001e58:	bf00      	nop
 8001e5a:	bd10      	pop	{r4, pc}
 8001e5c:	20001dbc 	.word	0x20001dbc
 8001e60:	20002655 	.word	0x20002655
 8001e64:	200028dd 	.word	0x200028dd
 8001e68:	200027e4 	.word	0x200027e4

08001e6c <SystemClock_Config>:
 8001e6c:	b5f0      	push	{r4, r5, r6, r7, lr}
 8001e6e:	b0b9      	sub	sp, #228	; 0xe4
 8001e70:	2224      	movs	r2, #36	; 0x24
 8001e72:	2100      	movs	r1, #0
 8001e74:	a806      	add	r0, sp, #24
 8001e76:	f006 fee1 	bl	8008c3c <memset>
 8001e7a:	2214      	movs	r2, #20
 8001e7c:	2100      	movs	r1, #0
 8001e7e:	4668      	mov	r0, sp
 8001e80:	f006 fedc 	bl	8008c3c <memset>
 8001e84:	2288      	movs	r2, #136	; 0x88
 8001e86:	2100      	movs	r1, #0
 8001e88:	a816      	add	r0, sp, #88	; 0x58
 8001e8a:	f006 fed7 	bl	8008c3c <memset>
 8001e8e:	2310      	movs	r3, #16
 8001e90:	9305      	str	r3, [sp, #20]
 8001e92:	2360      	movs	r3, #96	; 0x60
 8001e94:	2501      	movs	r5, #1
 8001e96:	2402      	movs	r4, #2
 8001e98:	930d      	str	r3, [sp, #52]	; 0x34
 8001e9a:	2707      	movs	r7, #7
 8001e9c:	2328      	movs	r3, #40	; 0x28
 8001e9e:	a805      	add	r0, sp, #20
 8001ea0:	2600      	movs	r6, #0
 8001ea2:	e9cd 3712 	strd	r3, r7, [sp, #72]	; 0x48
 8001ea6:	950b      	str	r5, [sp, #44]	; 0x2c
 8001ea8:	e9cd 450f 	strd	r4, r5, [sp, #60]	; 0x3c
 8001eac:	9511      	str	r5, [sp, #68]	; 0x44
 8001eae:	e9cd 4414 	strd	r4, r4, [sp, #80]	; 0x50
 8001eb2:	f001 f961 	bl	8003178 <HAL_RCC_OscConfig>
 8001eb6:	220f      	movs	r2, #15
 8001eb8:	2104      	movs	r1, #4
 8001eba:	2303      	movs	r3, #3
 8001ebc:	4668      	mov	r0, sp
 8001ebe:	e9cd 2300 	strd	r2, r3, [sp]
 8001ec2:	e9cd 6602 	strd	r6, r6, [sp, #8]
 8001ec6:	9604      	str	r6, [sp, #16]
 8001ec8:	f001 fbdc 	bl	8003684 <HAL_RCC_ClockConfig>
 8001ecc:	f242 0301 	movw	r3, #8193	; 0x2001
 8001ed0:	9316      	str	r3, [sp, #88]	; 0x58
 8001ed2:	f04f 6380 	mov.w	r3, #67108864	; 0x4000000
 8001ed6:	9331      	str	r3, [sp, #196]	; 0xc4
 8001ed8:	2318      	movs	r3, #24
 8001eda:	e9cd 3719 	strd	r3, r7, [sp, #100]	; 0x64
 8001ede:	a816      	add	r0, sp, #88	; 0x58
 8001ee0:	f44f 1380 	mov.w	r3, #1048576	; 0x100000
 8001ee4:	931d      	str	r3, [sp, #116]	; 0x74
 8001ee6:	9624      	str	r6, [sp, #144]	; 0x90
 8001ee8:	e9cd 5517 	strd	r5, r5, [sp, #92]	; 0x5c
 8001eec:	e9cd 441b 	strd	r4, r4, [sp, #108]	; 0x6c
 8001ef0:	f001 fd88 	bl	8003a04 <HAL_RCCEx_PeriphCLKConfig>
 8001ef4:	f44f 7000 	mov.w	r0, #512	; 0x200
 8001ef8:	f001 f870 	bl	8002fdc <HAL_PWREx_ControlVoltageScaling>
 8001efc:	b039      	add	sp, #228	; 0xe4
 8001efe:	bdf0      	pop	{r4, r5, r6, r7, pc}

08001f00 <main>:
 8001f00:	b580      	push	{r7, lr}
 8001f02:	b08a      	sub	sp, #40	; 0x28
 8001f04:	f000 faa8 	bl	8002458 <HAL_Init>
 8001f08:	f7ff ffb0 	bl	8001e6c <SystemClock_Config>
 8001f0c:	2214      	movs	r2, #20
 8001f0e:	2100      	movs	r1, #0
 8001f10:	eb0d 0002 	add.w	r0, sp, r2
 8001f14:	f006 fe92 	bl	8008c3c <memset>
 8001f18:	4b93      	ldr	r3, [pc, #588]	; (8002168 <main+0x268>)
 8001f1a:	4894      	ldr	r0, [pc, #592]	; (800216c <main+0x26c>)
 8001f1c:	6cda      	ldr	r2, [r3, #76]	; 0x4c
 8001f1e:	4d94      	ldr	r5, [pc, #592]	; (8002170 <main+0x270>)
 8001f20:	4e94      	ldr	r6, [pc, #592]	; (8002174 <main+0x274>)
 8001f22:	f042 0204 	orr.w	r2, r2, #4
 8001f26:	64da      	str	r2, [r3, #76]	; 0x4c
 8001f28:	6cda      	ldr	r2, [r3, #76]	; 0x4c
 8001f2a:	f002 0204 	and.w	r2, r2, #4
 8001f2e:	9202      	str	r2, [sp, #8]
 8001f30:	9a02      	ldr	r2, [sp, #8]
 8001f32:	6cda      	ldr	r2, [r3, #76]	; 0x4c
 8001f34:	f042 0201 	orr.w	r2, r2, #1
 8001f38:	64da      	str	r2, [r3, #76]	; 0x4c
 8001f3a:	6cda      	ldr	r2, [r3, #76]	; 0x4c
 8001f3c:	f002 0201 	and.w	r2, r2, #1
 8001f40:	9203      	str	r2, [sp, #12]
 8001f42:	9a03      	ldr	r2, [sp, #12]
 8001f44:	6cda      	ldr	r2, [r3, #76]	; 0x4c
 8001f46:	f042 0202 	orr.w	r2, r2, #2
 8001f4a:	64da      	str	r2, [r3, #76]	; 0x4c
 8001f4c:	6cdb      	ldr	r3, [r3, #76]	; 0x4c
 8001f4e:	f003 0302 	and.w	r3, r3, #2
 8001f52:	9304      	str	r3, [sp, #16]
 8001f54:	2201      	movs	r2, #1
 8001f56:	2102      	movs	r1, #2
 8001f58:	9b04      	ldr	r3, [sp, #16]
 8001f5a:	f000 fc1f 	bl	800279c <HAL_GPIO_WritePin>
 8001f5e:	2200      	movs	r2, #0
 8001f60:	f44f 7180 	mov.w	r1, #256	; 0x100
 8001f64:	f04f 4090 	mov.w	r0, #1207959552	; 0x48000000
 8001f68:	2400      	movs	r4, #0
 8001f6a:	f000 fc17 	bl	800279c <HAL_GPIO_WritePin>
 8001f6e:	f04f 0802 	mov.w	r8, #2
 8001f72:	2701      	movs	r7, #1
 8001f74:	a905      	add	r1, sp, #20
 8001f76:	487d      	ldr	r0, [pc, #500]	; (800216c <main+0x26c>)
 8001f78:	e9cd 8705 	strd	r8, r7, [sp, #20]
 8001f7c:	e9cd 4807 	strd	r4, r8, [sp, #28]
 8001f80:	f000 fb30 	bl	80025e4 <HAL_GPIO_Init>
 8001f84:	f44f 7380 	mov.w	r3, #256	; 0x100
 8001f88:	a905      	add	r1, sp, #20
 8001f8a:	f04f 4090 	mov.w	r0, #1207959552	; 0x48000000
 8001f8e:	e9cd 3705 	strd	r3, r7, [sp, #20]
 8001f92:	e9cd 4407 	strd	r4, r4, [sp, #28]
 8001f96:	f000 fb25 	bl	80025e4 <HAL_GPIO_Init>
 8001f9a:	f003 f80d 	bl	8004fb8 <MX_FATFS_Init>
 8001f9e:	f006 fc93 	bl	80088c8 <MX_USB_HOST_Init>
 8001fa2:	4a75      	ldr	r2, [pc, #468]	; (8002178 <main+0x278>)
 8001fa4:	612c      	str	r4, [r5, #16]
 8001fa6:	f44f 33e1 	mov.w	r3, #115200	; 0x1c200
 8001faa:	e9c5 2300 	strd	r2, r3, [r5]
 8001fae:	4628      	mov	r0, r5
 8001fb0:	230c      	movs	r3, #12
 8001fb2:	e9c5 3405 	strd	r3, r4, [r5, #20]
 8001fb6:	e9c5 4402 	strd	r4, r4, [r5, #8]
 8001fba:	e9c5 4407 	strd	r4, r4, [r5, #28]
 8001fbe:	626c      	str	r4, [r5, #36]	; 0x24
 8001fc0:	f002 fcd0 	bl	8004964 <HAL_UART_Init>
 8001fc4:	496d      	ldr	r1, [pc, #436]	; (800217c <main+0x27c>)
 8001fc6:	9407      	str	r4, [sp, #28]
 8001fc8:	f646 032b 	movw	r3, #26667	; 0x682b
 8001fcc:	4630      	mov	r0, r6
 8001fce:	e9c6 1300 	strd	r1, r3, [r6]
 8001fd2:	e9cd 4405 	strd	r4, r4, [sp, #20]
 8001fd6:	e9c6 4802 	strd	r4, r8, [r6, #8]
 8001fda:	61b4      	str	r4, [r6, #24]
 8001fdc:	f002 f828 	bl	8004030 <HAL_TIM_Base_Init>
 8001fe0:	a905      	add	r1, sp, #20
 8001fe2:	4630      	mov	r0, r6
 8001fe4:	9405      	str	r4, [sp, #20]
 8001fe6:	9407      	str	r4, [sp, #28]
 8001fe8:	f002 f83c 	bl	8004064 <HAL_TIMEx_MasterConfigSynchronization>
 8001fec:	463a      	mov	r2, r7
 8001fee:	4964      	ldr	r1, [pc, #400]	; (8002180 <main+0x280>)
 8001ff0:	4628      	mov	r0, r5
 8001ff2:	f002 f901 	bl	80041f8 <HAL_UART_Receive_IT>
 8001ff6:	4630      	mov	r0, r6
 8001ff8:	f001 feea 	bl	8003dd0 <HAL_TIM_Base_Start_IT>
 8001ffc:	4d61      	ldr	r5, [pc, #388]	; (8002184 <main+0x284>)
 8001ffe:	f44f 31e1 	mov.w	r1, #115200	; 0x1c200
 8002002:	4628      	mov	r0, r5
 8002004:	f7ff fe0a 	bl	8001c1c <ESP8266_Init>
 8002008:	4604      	mov	r4, r0
 800200a:	2800      	cmp	r0, #0
 800200c:	d1f7      	bne.n	8001ffe <main+0xfe>
 800200e:	f44f 60fa 	mov.w	r0, #2000	; 0x7d0
 8002012:	f000 fa43 	bl	800249c <HAL_Delay>
 8002016:	4a5c      	ldr	r2, [pc, #368]	; (8002188 <main+0x288>)
 8002018:	485a      	ldr	r0, [pc, #360]	; (8002184 <main+0x284>)
 800201a:	4d5c      	ldr	r5, [pc, #368]	; (800218c <main+0x28c>)
 800201c:	4e5c      	ldr	r6, [pc, #368]	; (8002190 <main+0x290>)
 800201e:	4611      	mov	r1, r2
 8002020:	f7ff fcd0 	bl	80019c4 <ESP8266_WifiConnect>
 8002024:	f44f 60fa 	mov.w	r0, #2000	; 0x7d0
 8002028:	f000 fa38 	bl	800249c <HAL_Delay>
 800202c:	4855      	ldr	r0, [pc, #340]	; (8002184 <main+0x284>)
 800202e:	f7ff fc97 	bl	8001960 <ESP8266_WaitReady>
 8002032:	702c      	strb	r4, [r5, #0]
 8002034:	4c53      	ldr	r4, [pc, #332]	; (8002184 <main+0x284>)
 8002036:	f006 fc67 	bl	8008908 <MX_USB_HOST_Process>
 800203a:	f006 fbd3 	bl	80087e4 <cam_image>
 800203e:	4620      	mov	r0, r4
 8002040:	f7ff fab4 	bl	80015ac <ESP8266_Update>
 8002044:	782b      	ldrb	r3, [r5, #0]
 8002046:	b2db      	uxtb	r3, r3
 8002048:	2b01      	cmp	r3, #1
 800204a:	d027      	beq.n	800209c <main+0x19c>
 800204c:	d30f      	bcc.n	800206e <main+0x16e>
 800204e:	2b02      	cmp	r3, #2
 8002050:	d1f1      	bne.n	8002036 <main+0x136>
 8002052:	4620      	mov	r0, r4
 8002054:	f7ff fc84 	bl	8001960 <ESP8266_WaitReady>
 8002058:	4620      	mov	r0, r4
 800205a:	f7ff fc63 	bl	8001924 <ESP8266_CloseAllConnections>
 800205e:	4607      	mov	r7, r0
 8002060:	2800      	cmp	r0, #0
 8002062:	d1f9      	bne.n	8002058 <main+0x158>
 8002064:	4620      	mov	r0, r4
 8002066:	f7ff fc7b 	bl	8001960 <ESP8266_WaitReady>
 800206a:	702f      	strb	r7, [r5, #0]
 800206c:	e7e3      	b.n	8002036 <main+0x136>
 800206e:	4620      	mov	r0, r4
 8002070:	f7ff fc76 	bl	8001960 <ESP8266_WaitReady>
 8002074:	f8df 8138 	ldr.w	r8, [pc, #312]	; 80021b0 <main+0x2b0>
 8002078:	4f43      	ldr	r7, [pc, #268]	; (8002188 <main+0x288>)
 800207a:	2300      	movs	r3, #0
 800207c:	9300      	str	r3, [sp, #0]
 800207e:	4642      	mov	r2, r8
 8002080:	f641 7390 	movw	r3, #8080	; 0x1f90
 8002084:	4639      	mov	r1, r7
 8002086:	4620      	mov	r0, r4
 8002088:	f7ff fdba 	bl	8001c00 <ESP8266_StartClientConnectionTCP>
 800208c:	2800      	cmp	r0, #0
 800208e:	d1f4      	bne.n	800207a <main+0x17a>
 8002090:	4620      	mov	r0, r4
 8002092:	f7ff fc65 	bl	8001960 <ESP8266_WaitReady>
 8002096:	2301      	movs	r3, #1
 8002098:	702b      	strb	r3, [r5, #0]
 800209a:	e7cc      	b.n	8002036 <main+0x136>
 800209c:	7832      	ldrb	r2, [r6, #0]
 800209e:	4f3d      	ldr	r7, [pc, #244]	; (8002194 <main+0x294>)
 80020a0:	443a      	add	r2, r7
 80020a2:	f812 1c07 	ldrb.w	r1, [r2, #-7]
 80020a6:	2945      	cmp	r1, #69	; 0x45
 80020a8:	d115      	bne.n	80020d6 <main+0x1d6>
 80020aa:	f812 3c06 	ldrb.w	r3, [r2, #-6]
 80020ae:	2b52      	cmp	r3, #82	; 0x52
 80020b0:	d111      	bne.n	80020d6 <main+0x1d6>
 80020b2:	f812 3c05 	ldrb.w	r3, [r2, #-5]
 80020b6:	2b52      	cmp	r3, #82	; 0x52
 80020b8:	d10d      	bne.n	80020d6 <main+0x1d6>
 80020ba:	f812 3c04 	ldrb.w	r3, [r2, #-4]
 80020be:	2b4f      	cmp	r3, #79	; 0x4f
 80020c0:	d109      	bne.n	80020d6 <main+0x1d6>
 80020c2:	f812 3c03 	ldrb.w	r3, [r2, #-3]
 80020c6:	2b52      	cmp	r3, #82	; 0x52
 80020c8:	d105      	bne.n	80020d6 <main+0x1d6>
 80020ca:	4b33      	ldr	r3, [pc, #204]	; (8002198 <main+0x298>)
 80020cc:	2200      	movs	r2, #0
 80020ce:	2014      	movs	r0, #20
 80020d0:	701a      	strb	r2, [r3, #0]
 80020d2:	f000 f9e3 	bl	800249c <HAL_Delay>
 80020d6:	4b31      	ldr	r3, [pc, #196]	; (800219c <main+0x29c>)
 80020d8:	781b      	ldrb	r3, [r3, #0]
 80020da:	b363      	cbz	r3, 8002136 <main+0x236>
 80020dc:	4620      	mov	r0, r4
 80020de:	f7ff fc3f 	bl	8001960 <ESP8266_WaitReady>
 80020e2:	f8df 90d0 	ldr.w	r9, [pc, #208]	; 80021b4 <main+0x2b4>
 80020e6:	f8d9 1000 	ldr.w	r1, [r9]
 80020ea:	4620      	mov	r0, r4
 80020ec:	f7ff fcd8 	bl	8001aa0 <ESP8266_RequestSendData>
 80020f0:	4680      	mov	r8, r0
 80020f2:	2800      	cmp	r0, #0
 80020f4:	d1f7      	bne.n	80020e6 <main+0x1e6>
 80020f6:	4620      	mov	r0, r4
 80020f8:	f7ff fc32 	bl	8001960 <ESP8266_WaitReady>
 80020fc:	7833      	ldrb	r3, [r6, #0]
 80020fe:	f8df 9098 	ldr.w	r9, [pc, #152]	; 8002198 <main+0x298>
 8002102:	443b      	add	r3, r7
 8002104:	4f26      	ldr	r7, [pc, #152]	; (80021a0 <main+0x2a0>)
 8002106:	f813 2c06 	ldrb.w	r2, [r3, #-6]
 800210a:	2a46      	cmp	r2, #70	; 0x46
 800210c:	d117      	bne.n	800213e <main+0x23e>
 800210e:	f813 2c05 	ldrb.w	r2, [r3, #-5]
 8002112:	2a41      	cmp	r2, #65	; 0x41
 8002114:	d113      	bne.n	800213e <main+0x23e>
 8002116:	f813 2c04 	ldrb.w	r2, [r3, #-4]
 800211a:	2a49      	cmp	r2, #73	; 0x49
 800211c:	d10f      	bne.n	800213e <main+0x23e>
 800211e:	f813 2c03 	ldrb.w	r2, [r3, #-3]
 8002122:	2a4c      	cmp	r2, #76	; 0x4c
 8002124:	d10b      	bne.n	800213e <main+0x23e>
 8002126:	f813 3c14 	ldrb.w	r3, [r3, #-20]
 800212a:	2b30      	cmp	r3, #48	; 0x30
 800212c:	d107      	bne.n	800213e <main+0x23e>
 800212e:	f889 8000 	strb.w	r8, [r9]
 8002132:	f887 8000 	strb.w	r8, [r7]
 8002136:	2014      	movs	r0, #20
 8002138:	f000 f9b0 	bl	800249c <HAL_Delay>
 800213c:	e7ab      	b.n	8002096 <main+0x196>
 800213e:	4b19      	ldr	r3, [pc, #100]	; (80021a4 <main+0x2a4>)
 8002140:	4819      	ldr	r0, [pc, #100]	; (80021a8 <main+0x2a8>)
 8002142:	8819      	ldrh	r1, [r3, #0]
 8002144:	f7ff fe58 	bl	8001df8 <ESP8266_LL_USARTSend>
 8002148:	4620      	mov	r0, r4
 800214a:	f7ff fc09 	bl	8001960 <ESP8266_WaitReady>
 800214e:	2102      	movs	r1, #2
 8002150:	4816      	ldr	r0, [pc, #88]	; (80021ac <main+0x2ac>)
 8002152:	f7ff fe51 	bl	8001df8 <ESP8266_LL_USARTSend>
 8002156:	4620      	mov	r0, r4
 8002158:	f7ff fc02 	bl	8001960 <ESP8266_WaitReady>
 800215c:	2301      	movs	r3, #1
 800215e:	f889 3000 	strb.w	r3, [r9]
 8002162:	703b      	strb	r3, [r7, #0]
 8002164:	e7e7      	b.n	8002136 <main+0x236>
 8002166:	bf00      	nop
 8002168:	40021000 	.word	0x40021000
 800216c:	48000800 	.word	0x48000800
 8002170:	200027e4 	.word	0x200027e4
 8002174:	2000289c 	.word	0x2000289c
 8002178:	40013800 	.word	0x40013800
 800217c:	40001000 	.word	0x40001000
 8002180:	200028dd 	.word	0x200028dd
 8002184:	200028e8 	.word	0x200028e8
 8002188:	0800981a 	.word	0x0800981a
 800218c:	200027dd 	.word	0x200027dd
 8002190:	20001dbc 	.word	0x20001dbc
 8002194:	20002655 	.word	0x20002655
 8002198:	20000035 	.word	0x20000035
 800219c:	20001e0c 	.word	0x20001e0c
 80021a0:	20000034 	.word	0x20000034
 80021a4:	200027e0 	.word	0x200027e0
 80021a8:	20001e18 	.word	0x20001e18
 80021ac:	0800963c 	.word	0x0800963c
 80021b0:	0800981f 	.word	0x0800981f
 80021b4:	20002894 	.word	0x20002894

080021b8 <HAL_UART_TxCpltCallback>:
 80021b8:	bf00      	nop
 80021ba:	4770      	bx	lr

080021bc <HAL_TIM_PeriodElapsedCallback>:
 80021bc:	2101      	movs	r1, #1
 80021be:	4801      	ldr	r0, [pc, #4]	; (80021c4 <HAL_TIM_PeriodElapsedCallback+0x8>)
 80021c0:	f7fe bd0a 	b.w	8000bd8 <ESP8266_TimeUpdate>
 80021c4:	200028e8 	.word	0x200028e8

080021c8 <ESP8266_Callback_DeviceReady>:
 80021c8:	4770      	bx	lr

080021ca <ESP8266_Callback_WatchdogReset>:
 80021ca:	4770      	bx	lr

080021cc <ESP8266_Callback_WifiDisconnected>:
 80021cc:	4770      	bx	lr

080021ce <ESP8266_Callback_WifiConnected>:
 80021ce:	4770      	bx	lr

080021d0 <ESP8266_Callback_WifiConnectFailed>:
 80021d0:	4770      	bx	lr

080021d2 <ESP8266_Callback_WifiGotIP>:
 80021d2:	4770      	bx	lr

080021d4 <ESP8266_Callback_WifiIPSet>:
 80021d4:	4770      	bx	lr

080021d6 <ESP8266_Callback_DHCPTimeout>:
 80021d6:	4770      	bx	lr

080021d8 <ESP8266_Callback_ClientConnectionConnected>:
 80021d8:	4770      	bx	lr

080021da <ESP8266_Callback_ClientConnectionError>:
 80021da:	4770      	bx	lr

080021dc <ESP8266_Callback_ClientConnectionSendData>:
 80021dc:	4770      	bx	lr

080021de <ESP8266_Callback_ClientConnectionDataSent>:
 80021de:	4770      	bx	lr

080021e0 <ESP8266_Callback_ClientConnectionDataSentError>:
 80021e0:	4770      	bx	lr

080021e2 <ESP8266_Callback_ClientConnectionDataReceived>:
 80021e2:	4770      	bx	lr

080021e4 <ESP8266_Callback_ClientConnectionClosed>:
 80021e4:	4770      	bx	lr

080021e6 <ESP8266_Callback_ClientConnectionTimeout>:
 80021e6:	4770      	bx	lr

080021e8 <Error_Handler>:
 80021e8:	4770      	bx	lr
	...

080021ec <HAL_MspInit>:
 80021ec:	4b0a      	ldr	r3, [pc, #40]	; (8002218 <HAL_MspInit+0x2c>)
 80021ee:	6e1a      	ldr	r2, [r3, #96]	; 0x60
 80021f0:	f042 0201 	orr.w	r2, r2, #1
 80021f4:	661a      	str	r2, [r3, #96]	; 0x60
 80021f6:	6e1a      	ldr	r2, [r3, #96]	; 0x60
 80021f8:	b082      	sub	sp, #8
 80021fa:	f002 0201 	and.w	r2, r2, #1
 80021fe:	9200      	str	r2, [sp, #0]
 8002200:	9a00      	ldr	r2, [sp, #0]
 8002202:	6d9a      	ldr	r2, [r3, #88]	; 0x58
 8002204:	f042 5280 	orr.w	r2, r2, #268435456	; 0x10000000
 8002208:	659a      	str	r2, [r3, #88]	; 0x58
 800220a:	6d9b      	ldr	r3, [r3, #88]	; 0x58
 800220c:	f003 5380 	and.w	r3, r3, #268435456	; 0x10000000
 8002210:	9301      	str	r3, [sp, #4]
 8002212:	9b01      	ldr	r3, [sp, #4]
 8002214:	b002      	add	sp, #8
 8002216:	4770      	bx	lr
 8002218:	40021000 	.word	0x40021000

0800221c <HAL_TIM_Base_MspInit>:
 800221c:	b507      	push	{r0, r1, r2, lr}
 800221e:	4b0e      	ldr	r3, [pc, #56]	; (8002258 <HAL_TIM_Base_MspInit+0x3c>)
 8002220:	6802      	ldr	r2, [r0, #0]
 8002222:	429a      	cmp	r2, r3
 8002224:	d115      	bne.n	8002252 <HAL_TIM_Base_MspInit+0x36>
 8002226:	f503 3300 	add.w	r3, r3, #131072	; 0x20000
 800222a:	2036      	movs	r0, #54	; 0x36
 800222c:	6d9a      	ldr	r2, [r3, #88]	; 0x58
 800222e:	f042 0210 	orr.w	r2, r2, #16
 8002232:	659a      	str	r2, [r3, #88]	; 0x58
 8002234:	6d9b      	ldr	r3, [r3, #88]	; 0x58
 8002236:	2200      	movs	r2, #0
 8002238:	f003 0310 	and.w	r3, r3, #16
 800223c:	9301      	str	r3, [sp, #4]
 800223e:	4611      	mov	r1, r2
 8002240:	9b01      	ldr	r3, [sp, #4]
 8002242:	f000 f951 	bl	80024e8 <HAL_NVIC_SetPriority>
 8002246:	2036      	movs	r0, #54	; 0x36
 8002248:	b003      	add	sp, #12
 800224a:	f85d eb04 	ldr.w	lr, [sp], #4
 800224e:	f000 b97f 	b.w	8002550 <HAL_NVIC_EnableIRQ>
 8002252:	b003      	add	sp, #12
 8002254:	f85d fb04 	ldr.w	pc, [sp], #4
 8002258:	40001000 	.word	0x40001000

0800225c <HAL_UART_MspInit>:
 800225c:	b5f0      	push	{r4, r5, r6, r7, lr}
 800225e:	4604      	mov	r4, r0
 8002260:	b089      	sub	sp, #36	; 0x24
 8002262:	2214      	movs	r2, #20
 8002264:	2100      	movs	r1, #0
 8002266:	a803      	add	r0, sp, #12
 8002268:	f006 fce8 	bl	8008c3c <memset>
 800226c:	6822      	ldr	r2, [r4, #0]
 800226e:	4b23      	ldr	r3, [pc, #140]	; (80022fc <HAL_UART_MspInit+0xa0>)
 8002270:	429a      	cmp	r2, r3
 8002272:	d141      	bne.n	80022f8 <HAL_UART_MspInit+0x9c>
 8002274:	f503 4358 	add.w	r3, r3, #55296	; 0xd800
 8002278:	2402      	movs	r4, #2
 800227a:	6e1a      	ldr	r2, [r3, #96]	; 0x60
 800227c:	f442 4280 	orr.w	r2, r2, #16384	; 0x4000
 8002280:	661a      	str	r2, [r3, #96]	; 0x60
 8002282:	6e1a      	ldr	r2, [r3, #96]	; 0x60
 8002284:	f402 4280 	and.w	r2, r2, #16384	; 0x4000
 8002288:	9200      	str	r2, [sp, #0]
 800228a:	9a00      	ldr	r2, [sp, #0]
 800228c:	6cda      	ldr	r2, [r3, #76]	; 0x4c
 800228e:	f042 0201 	orr.w	r2, r2, #1
 8002292:	64da      	str	r2, [r3, #76]	; 0x4c
 8002294:	6cda      	ldr	r2, [r3, #76]	; 0x4c
 8002296:	f002 0201 	and.w	r2, r2, #1
 800229a:	9201      	str	r2, [sp, #4]
 800229c:	9a01      	ldr	r2, [sp, #4]
 800229e:	6cda      	ldr	r2, [r3, #76]	; 0x4c
 80022a0:	f042 0202 	orr.w	r2, r2, #2
 80022a4:	64da      	str	r2, [r3, #76]	; 0x4c
 80022a6:	6cdb      	ldr	r3, [r3, #76]	; 0x4c
 80022a8:	f003 0302 	and.w	r3, r3, #2
 80022ac:	9302      	str	r3, [sp, #8]
 80022ae:	9b02      	ldr	r3, [sp, #8]
 80022b0:	2703      	movs	r7, #3
 80022b2:	f44f 7300 	mov.w	r3, #512	; 0x200
 80022b6:	2607      	movs	r6, #7
 80022b8:	a903      	add	r1, sp, #12
 80022ba:	f04f 4090 	mov.w	r0, #1207959552	; 0x48000000
 80022be:	e9cd 3403 	strd	r3, r4, [sp, #12]
 80022c2:	2500      	movs	r5, #0
 80022c4:	e9cd 7606 	strd	r7, r6, [sp, #24]
 80022c8:	f000 f98c 	bl	80025e4 <HAL_GPIO_Init>
 80022cc:	2380      	movs	r3, #128	; 0x80
 80022ce:	a903      	add	r1, sp, #12
 80022d0:	480b      	ldr	r0, [pc, #44]	; (8002300 <HAL_UART_MspInit+0xa4>)
 80022d2:	9607      	str	r6, [sp, #28]
 80022d4:	e9cd 3403 	strd	r3, r4, [sp, #12]
 80022d8:	e9cd 5705 	strd	r5, r7, [sp, #20]
 80022dc:	f000 f982 	bl	80025e4 <HAL_GPIO_Init>
 80022e0:	f44f 3000 	mov.w	r0, #131072	; 0x20000
 80022e4:	f000 fe5c 	bl	8002fa0 <HAL_I2CEx_EnableFastModePlus>
 80022e8:	2025      	movs	r0, #37	; 0x25
 80022ea:	462a      	mov	r2, r5
 80022ec:	4621      	mov	r1, r4
 80022ee:	f000 f8fb 	bl	80024e8 <HAL_NVIC_SetPriority>
 80022f2:	2025      	movs	r0, #37	; 0x25
 80022f4:	f000 f92c 	bl	8002550 <HAL_NVIC_EnableIRQ>
 80022f8:	b009      	add	sp, #36	; 0x24
 80022fa:	bdf0      	pop	{r4, r5, r6, r7, pc}
 80022fc:	40013800 	.word	0x40013800
 8002300:	48000400 	.word	0x48000400

08002304 <NMI_Handler>:
 8002304:	4770      	bx	lr

08002306 <HardFault_Handler>:
 8002306:	e7fe      	b.n	8002306 <HardFault_Handler>

08002308 <MemManage_Handler>:
 8002308:	e7fe      	b.n	8002308 <MemManage_Handler>

0800230a <BusFault_Handler>:
 800230a:	e7fe      	b.n	800230a <BusFault_Handler>

0800230c <UsageFault_Handler>:
 800230c:	e7fe      	b.n	800230c <UsageFault_Handler>

0800230e <SVC_Handler>:
 800230e:	4770      	bx	lr

08002310 <DebugMon_Handler>:
 8002310:	4770      	bx	lr

08002312 <PendSV_Handler>:
 8002312:	4770      	bx	lr

08002314 <SysTick_Handler>:
 8002314:	f000 b8b0 	b.w	8002478 <HAL_IncTick>

08002318 <USART1_IRQHandler>:
 8002318:	4801      	ldr	r0, [pc, #4]	; (8002320 <USART1_IRQHandler+0x8>)
 800231a:	f002 b819 	b.w	8004350 <HAL_UART_IRQHandler>
 800231e:	bf00      	nop
 8002320:	200027e4 	.word	0x200027e4

08002324 <TIM6_DAC_IRQHandler>:
 8002324:	4801      	ldr	r0, [pc, #4]	; (800232c <TIM6_DAC_IRQHandler+0x8>)
 8002326:	f001 bd6d 	b.w	8003e04 <HAL_TIM_IRQHandler>
 800232a:	bf00      	nop
 800232c:	2000289c 	.word	0x2000289c

08002330 <OTG_FS_IRQHandler>:
 8002330:	4801      	ldr	r0, [pc, #4]	; (8002338 <OTG_FS_IRQHandler+0x8>)
 8002332:	f000 bb2f 	b.w	8002994 <HAL_HCD_IRQHandler>
 8002336:	bf00      	nop
 8002338:	20003780 	.word	0x20003780

0800233c <_sbrk>:
 800233c:	b508      	push	{r3, lr}
 800233e:	4b0a      	ldr	r3, [pc, #40]	; (8002368 <_sbrk+0x2c>)
 8002340:	6819      	ldr	r1, [r3, #0]
 8002342:	4602      	mov	r2, r0
 8002344:	b909      	cbnz	r1, 800234a <_sbrk+0xe>
 8002346:	4909      	ldr	r1, [pc, #36]	; (800236c <_sbrk+0x30>)
 8002348:	6019      	str	r1, [r3, #0]
 800234a:	6818      	ldr	r0, [r3, #0]
 800234c:	4669      	mov	r1, sp
 800234e:	4402      	add	r2, r0
 8002350:	428a      	cmp	r2, r1
 8002352:	d906      	bls.n	8002362 <_sbrk+0x26>
 8002354:	f006 fc1e 	bl	8008b94 <__errno>
 8002358:	230c      	movs	r3, #12
 800235a:	6003      	str	r3, [r0, #0]
 800235c:	f04f 30ff 	mov.w	r0, #4294967295
 8002360:	bd08      	pop	{r3, pc}
 8002362:	601a      	str	r2, [r3, #0]
 8002364:	e7fc      	b.n	8002360 <_sbrk+0x24>
 8002366:	bf00      	nop
 8002368:	20001dc0 	.word	0x20001dc0
 800236c:	20003a48 	.word	0x20003a48

08002370 <SystemInit>:
 8002370:	490f      	ldr	r1, [pc, #60]	; (80023b0 <SystemInit+0x40>)
 8002372:	f8d1 3088 	ldr.w	r3, [r1, #136]	; 0x88
 8002376:	f443 0370 	orr.w	r3, r3, #15728640	; 0xf00000
 800237a:	f8c1 3088 	str.w	r3, [r1, #136]	; 0x88
 800237e:	4b0d      	ldr	r3, [pc, #52]	; (80023b4 <SystemInit+0x44>)
 8002380:	681a      	ldr	r2, [r3, #0]
 8002382:	2000      	movs	r0, #0
 8002384:	f042 0201 	orr.w	r2, r2, #1
 8002388:	601a      	str	r2, [r3, #0]
 800238a:	6098      	str	r0, [r3, #8]
 800238c:	681a      	ldr	r2, [r3, #0]
 800238e:	f022 52a8 	bic.w	r2, r2, #352321536	; 0x15000000
 8002392:	f422 2210 	bic.w	r2, r2, #589824	; 0x90000
 8002396:	601a      	str	r2, [r3, #0]
 8002398:	f44f 5280 	mov.w	r2, #4096	; 0x1000
 800239c:	60da      	str	r2, [r3, #12]
 800239e:	681a      	ldr	r2, [r3, #0]
 80023a0:	f422 2280 	bic.w	r2, r2, #262144	; 0x40000
 80023a4:	601a      	str	r2, [r3, #0]
 80023a6:	6198      	str	r0, [r3, #24]
 80023a8:	f04f 6300 	mov.w	r3, #134217728	; 0x8000000
 80023ac:	608b      	str	r3, [r1, #8]
 80023ae:	4770      	bx	lr
 80023b0:	e000ed00 	.word	0xe000ed00
 80023b4:	40021000 	.word	0x40021000

080023b8 <Reset_Handler>:
 80023b8:	f8df d034 	ldr.w	sp, [pc, #52]	; 80023f0 <LoopForever+0x2>
 80023bc:	2100      	movs	r1, #0
 80023be:	e003      	b.n	80023c8 <LoopCopyDataInit>

080023c0 <CopyDataInit>:
 80023c0:	4b0c      	ldr	r3, [pc, #48]	; (80023f4 <LoopForever+0x6>)
 80023c2:	585b      	ldr	r3, [r3, r1]
 80023c4:	5043      	str	r3, [r0, r1]
 80023c6:	3104      	adds	r1, #4

080023c8 <LoopCopyDataInit>:
 80023c8:	480b      	ldr	r0, [pc, #44]	; (80023f8 <LoopForever+0xa>)
 80023ca:	4b0c      	ldr	r3, [pc, #48]	; (80023fc <LoopForever+0xe>)
 80023cc:	1842      	adds	r2, r0, r1
 80023ce:	429a      	cmp	r2, r3
 80023d0:	d3f6      	bcc.n	80023c0 <CopyDataInit>
 80023d2:	4a0b      	ldr	r2, [pc, #44]	; (8002400 <LoopForever+0x12>)
 80023d4:	e002      	b.n	80023dc <LoopFillZerobss>

080023d6 <FillZerobss>:
 80023d6:	2300      	movs	r3, #0
 80023d8:	f842 3b04 	str.w	r3, [r2], #4

080023dc <LoopFillZerobss>:
 80023dc:	4b09      	ldr	r3, [pc, #36]	; (8002404 <LoopForever+0x16>)
 80023de:	429a      	cmp	r2, r3
 80023e0:	d3f9      	bcc.n	80023d6 <FillZerobss>
 80023e2:	f7ff ffc5 	bl	8002370 <SystemInit>
 80023e6:	f006 fbdb 	bl	8008ba0 <__libc_init_array>
 80023ea:	f7ff fd89 	bl	8001f00 <main>

080023ee <LoopForever>:
 80023ee:	e7fe      	b.n	80023ee <LoopForever>
 80023f0:	20018000 	.word	0x20018000
 80023f4:	0800a5e8 	.word	0x0800a5e8
 80023f8:	20000000 	.word	0x20000000
 80023fc:	2000009c 	.word	0x2000009c
 8002400:	2000009c 	.word	0x2000009c
 8002404:	20003a48 	.word	0x20003a48

08002408 <ADC1_2_IRQHandler>:
 8002408:	e7fe      	b.n	8002408 <ADC1_2_IRQHandler>
	...

0800240c <HAL_InitTick>:
 800240c:	b538      	push	{r3, r4, r5, lr}
 800240e:	4b0f      	ldr	r3, [pc, #60]	; (800244c <HAL_InitTick+0x40>)
 8002410:	4605      	mov	r5, r0
 8002412:	6818      	ldr	r0, [r3, #0]
 8002414:	b908      	cbnz	r0, 800241a <HAL_InitTick+0xe>
 8002416:	2001      	movs	r0, #1
 8002418:	bd38      	pop	{r3, r4, r5, pc}
 800241a:	4a0d      	ldr	r2, [pc, #52]	; (8002450 <HAL_InitTick+0x44>)
 800241c:	f44f 737a 	mov.w	r3, #1000	; 0x3e8
 8002420:	fbb3 f3f0 	udiv	r3, r3, r0
 8002424:	6810      	ldr	r0, [r2, #0]
 8002426:	fbb0 f0f3 	udiv	r0, r0, r3
 800242a:	f000 f89f 	bl	800256c <HAL_SYSTICK_Config>
 800242e:	4604      	mov	r4, r0
 8002430:	2800      	cmp	r0, #0
 8002432:	d1f0      	bne.n	8002416 <HAL_InitTick+0xa>
 8002434:	2d0f      	cmp	r5, #15
 8002436:	d8ee      	bhi.n	8002416 <HAL_InitTick+0xa>
 8002438:	4602      	mov	r2, r0
 800243a:	4629      	mov	r1, r5
 800243c:	f04f 30ff 	mov.w	r0, #4294967295
 8002440:	f000 f852 	bl	80024e8 <HAL_NVIC_SetPriority>
 8002444:	4b03      	ldr	r3, [pc, #12]	; (8002454 <HAL_InitTick+0x48>)
 8002446:	4620      	mov	r0, r4
 8002448:	601d      	str	r5, [r3, #0]
 800244a:	e7e5      	b.n	8002418 <HAL_InitTick+0xc>
 800244c:	20000004 	.word	0x20000004
 8002450:	20000000 	.word	0x20000000
 8002454:	20000008 	.word	0x20000008

08002458 <HAL_Init>:
 8002458:	b510      	push	{r4, lr}
 800245a:	2003      	movs	r0, #3
 800245c:	f000 f832 	bl	80024c4 <HAL_NVIC_SetPriorityGrouping>
 8002460:	2000      	movs	r0, #0
 8002462:	f7ff ffd3 	bl	800240c <HAL_InitTick>
 8002466:	4604      	mov	r4, r0
 8002468:	b918      	cbnz	r0, 8002472 <HAL_Init+0x1a>
 800246a:	f7ff febf 	bl	80021ec <HAL_MspInit>
 800246e:	4620      	mov	r0, r4
 8002470:	bd10      	pop	{r4, pc}
 8002472:	2401      	movs	r4, #1
 8002474:	e7fb      	b.n	800246e <HAL_Init+0x16>
	...

08002478 <HAL_IncTick>:
 8002478:	4a03      	ldr	r2, [pc, #12]	; (8002488 <HAL_IncTick+0x10>)
 800247a:	4904      	ldr	r1, [pc, #16]	; (800248c <HAL_IncTick+0x14>)
 800247c:	6813      	ldr	r3, [r2, #0]
 800247e:	6809      	ldr	r1, [r1, #0]
 8002480:	440b      	add	r3, r1
 8002482:	6013      	str	r3, [r2, #0]
 8002484:	4770      	bx	lr
 8002486:	bf00      	nop
 8002488:	20002ae0 	.word	0x20002ae0
 800248c:	20000004 	.word	0x20000004

08002490 <HAL_GetTick>:
 8002490:	4b01      	ldr	r3, [pc, #4]	; (8002498 <HAL_GetTick+0x8>)
 8002492:	6818      	ldr	r0, [r3, #0]
 8002494:	4770      	bx	lr
 8002496:	bf00      	nop
 8002498:	20002ae0 	.word	0x20002ae0

0800249c <HAL_Delay>:
 800249c:	b538      	push	{r3, r4, r5, lr}
 800249e:	4604      	mov	r4, r0
 80024a0:	f7ff fff6 	bl	8002490 <HAL_GetTick>
 80024a4:	1c63      	adds	r3, r4, #1
 80024a6:	bf1c      	itt	ne
 80024a8:	4b05      	ldrne	r3, [pc, #20]	; (80024c0 <HAL_Delay+0x24>)
 80024aa:	681b      	ldrne	r3, [r3, #0]
 80024ac:	4605      	mov	r5, r0
 80024ae:	bf18      	it	ne
 80024b0:	18e4      	addne	r4, r4, r3
 80024b2:	f7ff ffed 	bl	8002490 <HAL_GetTick>
 80024b6:	1b40      	subs	r0, r0, r5
 80024b8:	42a0      	cmp	r0, r4
 80024ba:	d3fa      	bcc.n	80024b2 <HAL_Delay+0x16>
 80024bc:	bd38      	pop	{r3, r4, r5, pc}
 80024be:	bf00      	nop
 80024c0:	20000004 	.word	0x20000004

080024c4 <HAL_NVIC_SetPriorityGrouping>:
 80024c4:	4a07      	ldr	r2, [pc, #28]	; (80024e4 <HAL_NVIC_SetPriorityGrouping+0x20>)
 80024c6:	68d3      	ldr	r3, [r2, #12]
 80024c8:	f423 63e0 	bic.w	r3, r3, #1792	; 0x700
 80024cc:	041b      	lsls	r3, r3, #16
 80024ce:	0c1b      	lsrs	r3, r3, #16
 80024d0:	f043 63bf 	orr.w	r3, r3, #100139008	; 0x5f80000
 80024d4:	0200      	lsls	r0, r0, #8
 80024d6:	f443 3300 	orr.w	r3, r3, #131072	; 0x20000
 80024da:	f400 60e0 	and.w	r0, r0, #1792	; 0x700
 80024de:	4303      	orrs	r3, r0
 80024e0:	60d3      	str	r3, [r2, #12]
 80024e2:	4770      	bx	lr
 80024e4:	e000ed00 	.word	0xe000ed00

080024e8 <HAL_NVIC_SetPriority>:
 80024e8:	4b17      	ldr	r3, [pc, #92]	; (8002548 <HAL_NVIC_SetPriority+0x60>)
 80024ea:	b570      	push	{r4, r5, r6, lr}
 80024ec:	68dc      	ldr	r4, [r3, #12]
 80024ee:	f3c4 2402 	ubfx	r4, r4, #8, #3
 80024f2:	f1c4 0507 	rsb	r5, r4, #7
 80024f6:	2d04      	cmp	r5, #4
 80024f8:	f104 0304 	add.w	r3, r4, #4
 80024fc:	bf28      	it	cs
 80024fe:	2504      	movcs	r5, #4
 8002500:	f04f 36ff 	mov.w	r6, #4294967295
 8002504:	2b06      	cmp	r3, #6
 8002506:	fa06 f305 	lsl.w	r3, r6, r5
 800250a:	bf8c      	ite	hi
 800250c:	3c03      	subhi	r4, #3
 800250e:	2400      	movls	r4, #0
 8002510:	ea21 0303 	bic.w	r3, r1, r3
 8002514:	40a3      	lsls	r3, r4
 8002516:	fa06 f404 	lsl.w	r4, r6, r4
 800251a:	ea22 0404 	bic.w	r4, r2, r4
 800251e:	2800      	cmp	r0, #0
 8002520:	ea43 0304 	orr.w	r3, r3, r4
 8002524:	bfa8      	it	ge
 8002526:	f100 4060 	addge.w	r0, r0, #3758096384	; 0xe0000000
 800252a:	ea4f 1303 	mov.w	r3, r3, lsl #4
 800252e:	bfbc      	itt	lt
 8002530:	f000 000f 	andlt.w	r0, r0, #15
 8002534:	4a05      	ldrlt	r2, [pc, #20]	; (800254c <HAL_NVIC_SetPriority+0x64>)
 8002536:	b2db      	uxtb	r3, r3
 8002538:	bfaa      	itet	ge
 800253a:	f500 4061 	addge.w	r0, r0, #57600	; 0xe100
 800253e:	5413      	strblt	r3, [r2, r0]
 8002540:	f880 3300 	strbge.w	r3, [r0, #768]	; 0x300
 8002544:	bd70      	pop	{r4, r5, r6, pc}
 8002546:	bf00      	nop
 8002548:	e000ed00 	.word	0xe000ed00
 800254c:	e000ed14 	.word	0xe000ed14

08002550 <HAL_NVIC_EnableIRQ>:
 8002550:	2800      	cmp	r0, #0
 8002552:	db08      	blt.n	8002566 <HAL_NVIC_EnableIRQ+0x16>
 8002554:	0942      	lsrs	r2, r0, #5
 8002556:	2301      	movs	r3, #1
 8002558:	f000 001f 	and.w	r0, r0, #31
 800255c:	fa03 f000 	lsl.w	r0, r3, r0
 8002560:	4b01      	ldr	r3, [pc, #4]	; (8002568 <HAL_NVIC_EnableIRQ+0x18>)
 8002562:	f843 0022 	str.w	r0, [r3, r2, lsl #2]
 8002566:	4770      	bx	lr
 8002568:	e000e100 	.word	0xe000e100

0800256c <HAL_SYSTICK_Config>:
 800256c:	3801      	subs	r0, #1
 800256e:	f1b0 7f80 	cmp.w	r0, #16777216	; 0x1000000
 8002572:	d20a      	bcs.n	800258a <HAL_SYSTICK_Config+0x1e>
 8002574:	4b06      	ldr	r3, [pc, #24]	; (8002590 <HAL_SYSTICK_Config+0x24>)
 8002576:	4a07      	ldr	r2, [pc, #28]	; (8002594 <HAL_SYSTICK_Config+0x28>)
 8002578:	6058      	str	r0, [r3, #4]
 800257a:	21f0      	movs	r1, #240	; 0xf0
 800257c:	f882 1023 	strb.w	r1, [r2, #35]	; 0x23
 8002580:	2000      	movs	r0, #0
 8002582:	2207      	movs	r2, #7
 8002584:	6098      	str	r0, [r3, #8]
 8002586:	601a      	str	r2, [r3, #0]
 8002588:	4770      	bx	lr
 800258a:	2001      	movs	r0, #1
 800258c:	4770      	bx	lr
 800258e:	bf00      	nop
 8002590:	e000e010 	.word	0xe000e010
 8002594:	e000ed00 	.word	0xe000ed00

08002598 <HAL_DMA_Abort_IT>:
 8002598:	f890 2025 	ldrb.w	r2, [r0, #37]	; 0x25
 800259c:	2a02      	cmp	r2, #2
 800259e:	b510      	push	{r4, lr}
 80025a0:	d003      	beq.n	80025aa <HAL_DMA_Abort_IT+0x12>
 80025a2:	2204      	movs	r2, #4
 80025a4:	63c2      	str	r2, [r0, #60]	; 0x3c
 80025a6:	2001      	movs	r0, #1
 80025a8:	bd10      	pop	{r4, pc}
 80025aa:	6802      	ldr	r2, [r0, #0]
 80025ac:	6b83      	ldr	r3, [r0, #56]	; 0x38
 80025ae:	6811      	ldr	r1, [r2, #0]
 80025b0:	f021 010e 	bic.w	r1, r1, #14
 80025b4:	6011      	str	r1, [r2, #0]
 80025b6:	6811      	ldr	r1, [r2, #0]
 80025b8:	f021 0101 	bic.w	r1, r1, #1
 80025bc:	6011      	str	r1, [r2, #0]
 80025be:	e9d0 4210 	ldrd	r4, r2, [r0, #64]	; 0x40
 80025c2:	2101      	movs	r1, #1
 80025c4:	f002 021c 	and.w	r2, r2, #28
 80025c8:	fa01 f202 	lsl.w	r2, r1, r2
 80025cc:	6062      	str	r2, [r4, #4]
 80025ce:	2400      	movs	r4, #0
 80025d0:	f880 1025 	strb.w	r1, [r0, #37]	; 0x25
 80025d4:	f880 4024 	strb.w	r4, [r0, #36]	; 0x24
 80025d8:	b113      	cbz	r3, 80025e0 <HAL_DMA_Abort_IT+0x48>
 80025da:	4798      	blx	r3
 80025dc:	4620      	mov	r0, r4
 80025de:	e7e3      	b.n	80025a8 <HAL_DMA_Abort_IT+0x10>
 80025e0:	4618      	mov	r0, r3
 80025e2:	e7e1      	b.n	80025a8 <HAL_DMA_Abort_IT+0x10>

080025e4 <HAL_GPIO_Init>:
 80025e4:	e92d 4ff0 	stmdb	sp!, {r4, r5, r6, r7, r8, r9, sl, fp, lr}
 80025e8:	b085      	sub	sp, #20
 80025ea:	680b      	ldr	r3, [r1, #0]
 80025ec:	f8df 91a8 	ldr.w	r9, [pc, #424]	; 8002798 <HAL_GPIO_Init+0x1b4>
 80025f0:	4c67      	ldr	r4, [pc, #412]	; (8002790 <HAL_GPIO_Init+0x1ac>)
 80025f2:	9301      	str	r3, [sp, #4]
 80025f4:	2300      	movs	r3, #0
 80025f6:	9a01      	ldr	r2, [sp, #4]
 80025f8:	40da      	lsrs	r2, r3
 80025fa:	d102      	bne.n	8002602 <HAL_GPIO_Init+0x1e>
 80025fc:	b005      	add	sp, #20
 80025fe:	e8bd 8ff0 	ldmia.w	sp!, {r4, r5, r6, r7, r8, r9, sl, fp, pc}
 8002602:	f04f 0a01 	mov.w	sl, #1
 8002606:	9a01      	ldr	r2, [sp, #4]
 8002608:	fa0a fa03 	lsl.w	sl, sl, r3
 800260c:	ea1a 0c02 	ands.w	ip, sl, r2
 8002610:	f000 80af 	beq.w	8002772 <HAL_GPIO_Init+0x18e>
 8002614:	684a      	ldr	r2, [r1, #4]
 8002616:	f022 0e10 	bic.w	lr, r2, #16
 800261a:	ea4f 0843 	mov.w	r8, r3, lsl #1
 800261e:	2503      	movs	r5, #3
 8002620:	f10e 36ff 	add.w	r6, lr, #4294967295
 8002624:	fa05 f508 	lsl.w	r5, r5, r8
 8002628:	2e01      	cmp	r6, #1
 800262a:	ea6f 0505 	mvn.w	r5, r5
 800262e:	d80e      	bhi.n	800264e <HAL_GPIO_Init+0x6a>
 8002630:	6886      	ldr	r6, [r0, #8]
 8002632:	68cf      	ldr	r7, [r1, #12]
 8002634:	402e      	ands	r6, r5
 8002636:	fa07 f708 	lsl.w	r7, r7, r8
 800263a:	4337      	orrs	r7, r6
 800263c:	6087      	str	r7, [r0, #8]
 800263e:	6847      	ldr	r7, [r0, #4]
 8002640:	f3c2 1600 	ubfx	r6, r2, #4, #1
 8002644:	ea27 070a 	bic.w	r7, r7, sl
 8002648:	409e      	lsls	r6, r3
 800264a:	433e      	orrs	r6, r7
 800264c:	6046      	str	r6, [r0, #4]
 800264e:	f002 0603 	and.w	r6, r2, #3
 8002652:	2e03      	cmp	r6, #3
 8002654:	d108      	bne.n	8002668 <HAL_GPIO_Init+0x84>
 8002656:	6ac7      	ldr	r7, [r0, #44]	; 0x2c
 8002658:	ea27 0a0a 	bic.w	sl, r7, sl
 800265c:	f3c2 07c0 	ubfx	r7, r2, #3, #1
 8002660:	409f      	lsls	r7, r3
 8002662:	ea47 070a 	orr.w	r7, r7, sl
 8002666:	62c7      	str	r7, [r0, #44]	; 0x2c
 8002668:	68c7      	ldr	r7, [r0, #12]
 800266a:	ea07 0a05 	and.w	sl, r7, r5
 800266e:	688f      	ldr	r7, [r1, #8]
 8002670:	fa07 f708 	lsl.w	r7, r7, r8
 8002674:	ea47 070a 	orr.w	r7, r7, sl
 8002678:	f1be 0f02 	cmp.w	lr, #2
 800267c:	60c7      	str	r7, [r0, #12]
 800267e:	d116      	bne.n	80026ae <HAL_GPIO_Init+0xca>
 8002680:	ea4f 0ad3 	mov.w	sl, r3, lsr #3
 8002684:	eb00 0a8a 	add.w	sl, r0, sl, lsl #2
 8002688:	f003 0b07 	and.w	fp, r3, #7
 800268c:	f8da 7020 	ldr.w	r7, [sl, #32]
 8002690:	ea4f 0b8b 	mov.w	fp, fp, lsl #2
 8002694:	f04f 0e0f 	mov.w	lr, #15
 8002698:	fa0e fe0b 	lsl.w	lr, lr, fp
 800269c:	ea27 0e0e 	bic.w	lr, r7, lr
 80026a0:	690f      	ldr	r7, [r1, #16]
 80026a2:	fa07 f70b 	lsl.w	r7, r7, fp
 80026a6:	ea47 070e 	orr.w	r7, r7, lr
 80026aa:	f8ca 7020 	str.w	r7, [sl, #32]
 80026ae:	6807      	ldr	r7, [r0, #0]
 80026b0:	fa06 f608 	lsl.w	r6, r6, r8
 80026b4:	403d      	ands	r5, r7
 80026b6:	4335      	orrs	r5, r6
 80026b8:	6005      	str	r5, [r0, #0]
 80026ba:	00d5      	lsls	r5, r2, #3
 80026bc:	d559      	bpl.n	8002772 <HAL_GPIO_Init+0x18e>
 80026be:	f8d9 5060 	ldr.w	r5, [r9, #96]	; 0x60
 80026c2:	f045 0501 	orr.w	r5, r5, #1
 80026c6:	f8c9 5060 	str.w	r5, [r9, #96]	; 0x60
 80026ca:	f8d9 5060 	ldr.w	r5, [r9, #96]	; 0x60
 80026ce:	f023 0603 	bic.w	r6, r3, #3
 80026d2:	f106 4680 	add.w	r6, r6, #1073741824	; 0x40000000
 80026d6:	f005 0501 	and.w	r5, r5, #1
 80026da:	f506 3680 	add.w	r6, r6, #65536	; 0x10000
 80026de:	9503      	str	r5, [sp, #12]
 80026e0:	f003 0e03 	and.w	lr, r3, #3
 80026e4:	9d03      	ldr	r5, [sp, #12]
 80026e6:	68b5      	ldr	r5, [r6, #8]
 80026e8:	ea4f 0e8e 	mov.w	lr, lr, lsl #2
 80026ec:	270f      	movs	r7, #15
 80026ee:	fa07 f70e 	lsl.w	r7, r7, lr
 80026f2:	f1b0 4f90 	cmp.w	r0, #1207959552	; 0x48000000
 80026f6:	ea25 0707 	bic.w	r7, r5, r7
 80026fa:	d03c      	beq.n	8002776 <HAL_GPIO_Init+0x192>
 80026fc:	4d25      	ldr	r5, [pc, #148]	; (8002794 <HAL_GPIO_Init+0x1b0>)
 80026fe:	42a8      	cmp	r0, r5
 8002700:	d03b      	beq.n	800277a <HAL_GPIO_Init+0x196>
 8002702:	f505 6580 	add.w	r5, r5, #1024	; 0x400
 8002706:	42a8      	cmp	r0, r5
 8002708:	d039      	beq.n	800277e <HAL_GPIO_Init+0x19a>
 800270a:	f505 6580 	add.w	r5, r5, #1024	; 0x400
 800270e:	42a8      	cmp	r0, r5
 8002710:	d037      	beq.n	8002782 <HAL_GPIO_Init+0x19e>
 8002712:	f505 6580 	add.w	r5, r5, #1024	; 0x400
 8002716:	42a8      	cmp	r0, r5
 8002718:	d035      	beq.n	8002786 <HAL_GPIO_Init+0x1a2>
 800271a:	f505 6580 	add.w	r5, r5, #1024	; 0x400
 800271e:	42a8      	cmp	r0, r5
 8002720:	d033      	beq.n	800278a <HAL_GPIO_Init+0x1a6>
 8002722:	f505 6580 	add.w	r5, r5, #1024	; 0x400
 8002726:	42a8      	cmp	r0, r5
 8002728:	bf14      	ite	ne
 800272a:	2507      	movne	r5, #7
 800272c:	2506      	moveq	r5, #6
 800272e:	fa05 f50e 	lsl.w	r5, r5, lr
 8002732:	433d      	orrs	r5, r7
 8002734:	60b5      	str	r5, [r6, #8]
 8002736:	6825      	ldr	r5, [r4, #0]
 8002738:	ea6f 060c 	mvn.w	r6, ip
 800273c:	03d7      	lsls	r7, r2, #15
 800273e:	bf54      	ite	pl
 8002740:	4035      	andpl	r5, r6
 8002742:	ea4c 0505 	orrmi.w	r5, ip, r5
 8002746:	6025      	str	r5, [r4, #0]
 8002748:	6865      	ldr	r5, [r4, #4]
 800274a:	0397      	lsls	r7, r2, #14
 800274c:	bf54      	ite	pl
 800274e:	4035      	andpl	r5, r6
 8002750:	ea4c 0505 	orrmi.w	r5, ip, r5
 8002754:	6065      	str	r5, [r4, #4]
 8002756:	68a5      	ldr	r5, [r4, #8]
 8002758:	02d7      	lsls	r7, r2, #11
 800275a:	bf54      	ite	pl
 800275c:	4035      	andpl	r5, r6
 800275e:	ea4c 0505 	orrmi.w	r5, ip, r5
 8002762:	60a5      	str	r5, [r4, #8]
 8002764:	68e5      	ldr	r5, [r4, #12]
 8002766:	0292      	lsls	r2, r2, #10
 8002768:	bf54      	ite	pl
 800276a:	4035      	andpl	r5, r6
 800276c:	ea4c 0505 	orrmi.w	r5, ip, r5
 8002770:	60e5      	str	r5, [r4, #12]
 8002772:	3301      	adds	r3, #1
 8002774:	e73f      	b.n	80025f6 <HAL_GPIO_Init+0x12>
 8002776:	2500      	movs	r5, #0
 8002778:	e7d9      	b.n	800272e <HAL_GPIO_Init+0x14a>
 800277a:	2501      	movs	r5, #1
 800277c:	e7d7      	b.n	800272e <HAL_GPIO_Init+0x14a>
 800277e:	2502      	movs	r5, #2
 8002780:	e7d5      	b.n	800272e <HAL_GPIO_Init+0x14a>
 8002782:	2503      	movs	r5, #3
 8002784:	e7d3      	b.n	800272e <HAL_GPIO_Init+0x14a>
 8002786:	2504      	movs	r5, #4
 8002788:	e7d1      	b.n	800272e <HAL_GPIO_Init+0x14a>
 800278a:	2505      	movs	r5, #5
 800278c:	e7cf      	b.n	800272e <HAL_GPIO_Init+0x14a>
 800278e:	bf00      	nop
 8002790:	40010400 	.word	0x40010400
 8002794:	48000400 	.word	0x48000400
 8002798:	40021000 	.word	0x40021000

0800279c <HAL_GPIO_WritePin>:
 800279c:	b10a      	cbz	r2, 80027a2 <HAL_GPIO_WritePin+0x6>
 800279e:	6181      	str	r1, [r0, #24]
 80027a0:	4770      	bx	lr
 80027a2:	6281      	str	r1, [r0, #40]	; 0x28
 80027a4:	4770      	bx	lr

080027a6 <HAL_HCD_HC_Init>:
 80027a6:	e92d 47ff 	stmdb	sp!, {r0, r1, r2, r3, r4, r5, r6, r7, r8, r9, sl, lr}
 80027aa:	4604      	mov	r4, r0
 80027ac:	f890 02b8 	ldrb.w	r0, [r0, #696]	; 0x2b8
 80027b0:	f89d 7030 	ldrb.w	r7, [sp, #48]	; 0x30
 80027b4:	f89d c034 	ldrb.w	ip, [sp, #52]	; 0x34
 80027b8:	f8bd e038 	ldrh.w	lr, [sp, #56]	; 0x38
 80027bc:	2801      	cmp	r0, #1
 80027be:	d027      	beq.n	8002810 <HAL_HCD_HC_Init+0x6a>
 80027c0:	2028      	movs	r0, #40	; 0x28
 80027c2:	fb00 4001 	mla	r0, r0, r1, r4
 80027c6:	2501      	movs	r5, #1
 80027c8:	2600      	movs	r6, #0
 80027ca:	f012 0f80 	tst.w	r2, #128	; 0x80
 80027ce:	f884 52b8 	strb.w	r5, [r4, #696]	; 0x2b8
 80027d2:	f002 097f 	and.w	r9, r2, #127	; 0x7f
 80027d6:	bf08      	it	eq
 80027d8:	4635      	moveq	r5, r6
 80027da:	f880 603d 	strb.w	r6, [r0, #61]	; 0x3d
 80027de:	f880 3038 	strb.w	r3, [r0, #56]	; 0x38
 80027e2:	f880 1039 	strb.w	r1, [r0, #57]	; 0x39
 80027e6:	f880 c03f 	strb.w	ip, [r0, #63]	; 0x3f
 80027ea:	f880 903a 	strb.w	r9, [r0, #58]	; 0x3a
 80027ee:	f880 503b 	strb.w	r5, [r0, #59]	; 0x3b
 80027f2:	f880 703c 	strb.w	r7, [r0, #60]	; 0x3c
 80027f6:	f8a0 e040 	strh.w	lr, [r0, #64]	; 0x40
 80027fa:	e9cd ce01 	strd	ip, lr, [sp, #4]
 80027fe:	9700      	str	r7, [sp, #0]
 8002800:	6820      	ldr	r0, [r4, #0]
 8002802:	f002 fa51 	bl	8004ca8 <USB_HC_Init>
 8002806:	f884 62b8 	strb.w	r6, [r4, #696]	; 0x2b8
 800280a:	b004      	add	sp, #16
 800280c:	e8bd 87f0 	ldmia.w	sp!, {r4, r5, r6, r7, r8, r9, sl, pc}
 8002810:	2002      	movs	r0, #2
 8002812:	e7fa      	b.n	800280a <HAL_HCD_HC_Init+0x64>

08002814 <HAL_HCD_HC_Halt>:
 8002814:	f890 32b8 	ldrb.w	r3, [r0, #696]	; 0x2b8
 8002818:	2b01      	cmp	r3, #1
 800281a:	b510      	push	{r4, lr}
 800281c:	4604      	mov	r4, r0
 800281e:	d009      	beq.n	8002834 <HAL_HCD_HC_Halt+0x20>
 8002820:	2301      	movs	r3, #1
 8002822:	f880 32b8 	strb.w	r3, [r0, #696]	; 0x2b8
 8002826:	6800      	ldr	r0, [r0, #0]
 8002828:	f002 fb3d 	bl	8004ea6 <USB_HC_Halt>
 800282c:	2000      	movs	r0, #0
 800282e:	f884 02b8 	strb.w	r0, [r4, #696]	; 0x2b8
 8002832:	bd10      	pop	{r4, pc}
 8002834:	2002      	movs	r0, #2
 8002836:	e7fc      	b.n	8002832 <HAL_HCD_HC_Halt+0x1e>

08002838 <HAL_HCD_Init>:
 8002838:	e92d 41f0 	stmdb	sp!, {r4, r5, r6, r7, r8, lr}
 800283c:	4607      	mov	r7, r0
 800283e:	b08a      	sub	sp, #40	; 0x28
 8002840:	2800      	cmp	r0, #0
 8002842:	d041      	beq.n	80028c8 <HAL_HCD_Init+0x90>
 8002844:	f890 32b9 	ldrb.w	r3, [r0, #697]	; 0x2b9
 8002848:	6804      	ldr	r4, [r0, #0]
 800284a:	f003 02ff 	and.w	r2, r3, #255	; 0xff
 800284e:	b91b      	cbnz	r3, 8002858 <HAL_HCD_Init+0x20>
 8002850:	f880 22b8 	strb.w	r2, [r0, #696]	; 0x2b8
 8002854:	f006 f85e 	bl	8008914 <HAL_HCD_MspInit>
 8002858:	2303      	movs	r3, #3
 800285a:	f887 32b9 	strb.w	r3, [r7, #697]	; 0x2b9
 800285e:	6be3      	ldr	r3, [r4, #60]	; 0x3c
 8002860:	463c      	mov	r4, r7
 8002862:	f413 7380 	ands.w	r3, r3, #256	; 0x100
 8002866:	f854 0b10 	ldr.w	r0, [r4], #16
 800286a:	bf08      	it	eq
 800286c:	613b      	streq	r3, [r7, #16]
 800286e:	f002 f8fe 	bl	8004a6e <USB_DisableGlobalInt>
 8002872:	cc0f      	ldmia	r4!, {r0, r1, r2, r3}
 8002874:	466d      	mov	r5, sp
 8002876:	c50f      	stmia	r5!, {r0, r1, r2, r3}
 8002878:	cc0f      	ldmia	r4!, {r0, r1, r2, r3}
 800287a:	c50f      	stmia	r5!, {r0, r1, r2, r3}
 800287c:	e894 0003 	ldmia.w	r4, {r0, r1}
 8002880:	e885 0003 	stmia.w	r5, {r0, r1}
 8002884:	f107 0804 	add.w	r8, r7, #4
 8002888:	463e      	mov	r6, r7
 800288a:	e898 000e 	ldmia.w	r8, {r1, r2, r3}
 800288e:	6838      	ldr	r0, [r7, #0]
 8002890:	f002 f8b0 	bl	80049f4 <USB_CoreInit>
 8002894:	f856 0b10 	ldr.w	r0, [r6], #16
 8002898:	2101      	movs	r1, #1
 800289a:	f002 f8ee 	bl	8004a7a <USB_SetCurrentMode>
 800289e:	ce0f      	ldmia	r6!, {r0, r1, r2, r3}
 80028a0:	466d      	mov	r5, sp
 80028a2:	c50f      	stmia	r5!, {r0, r1, r2, r3}
 80028a4:	ce0f      	ldmia	r6!, {r0, r1, r2, r3}
 80028a6:	c50f      	stmia	r5!, {r0, r1, r2, r3}
 80028a8:	e894 0003 	ldmia.w	r4, {r0, r1}
 80028ac:	e885 0003 	stmia.w	r5, {r0, r1}
 80028b0:	e898 000e 	ldmia.w	r8, {r1, r2, r3}
 80028b4:	6838      	ldr	r0, [r7, #0]
 80028b6:	f002 f999 	bl	8004bec <USB_HostInit>
 80028ba:	2301      	movs	r3, #1
 80028bc:	f887 32b9 	strb.w	r3, [r7, #697]	; 0x2b9
 80028c0:	2000      	movs	r0, #0
 80028c2:	b00a      	add	sp, #40	; 0x28
 80028c4:	e8bd 81f0 	ldmia.w	sp!, {r4, r5, r6, r7, r8, pc}
 80028c8:	2001      	movs	r0, #1
 80028ca:	e7fa      	b.n	80028c2 <HAL_HCD_Init+0x8a>

080028cc <HAL_HCD_HC_SubmitRequest>:
 80028cc:	b4f0      	push	{r4, r5, r6, r7}
 80028ce:	2428      	movs	r4, #40	; 0x28
 80028d0:	fb04 0401 	mla	r4, r4, r1, r0
 80028d4:	f89d 7010 	ldrb.w	r7, [sp, #16]
 80028d8:	9e05      	ldr	r6, [sp, #20]
 80028da:	f8bd 5018 	ldrh.w	r5, [sp, #24]
 80028de:	f89d c01c 	ldrb.w	ip, [sp, #28]
 80028e2:	f884 203b 	strb.w	r2, [r4, #59]	; 0x3b
 80028e6:	f884 303f 	strb.w	r3, [r4, #63]	; 0x3f
 80028ea:	b97f      	cbnz	r7, 800290c <HAL_HCD_HC_SubmitRequest+0x40>
 80028ec:	2703      	movs	r7, #3
 80028ee:	2b02      	cmp	r3, #2
 80028f0:	f884 7042 	strb.w	r7, [r4, #66]	; 0x42
 80028f4:	f884 c03d 	strb.w	ip, [r4, #61]	; 0x3d
 80028f8:	d02b      	beq.n	8002952 <HAL_HCD_HC_SubmitRequest+0x86>
 80028fa:	42bb      	cmp	r3, r7
 80028fc:	d029      	beq.n	8002952 <HAL_HCD_HC_SubmitRequest+0x86>
 80028fe:	2b01      	cmp	r3, #1
 8002900:	d131      	bne.n	8002966 <HAL_HCD_HC_SubmitRequest+0x9a>
 8002902:	2328      	movs	r3, #40	; 0x28
 8002904:	fb03 0301 	mla	r3, r3, r1, r0
 8002908:	2200      	movs	r2, #0
 800290a:	e02a      	b.n	8002962 <HAL_HCD_HC_SubmitRequest+0x96>
 800290c:	f04f 0c02 	mov.w	ip, #2
 8002910:	f884 c042 	strb.w	ip, [r4, #66]	; 0x42
 8002914:	2b03      	cmp	r3, #3
 8002916:	d826      	bhi.n	8002966 <HAL_HCD_HC_SubmitRequest+0x9a>
 8002918:	a401      	add	r4, pc, #4	; (adr r4, 8002920 <HAL_HCD_HC_SubmitRequest+0x54>)
 800291a:	f854 f023 	ldr.w	pc, [r4, r3, lsl #2]
 800291e:	bf00      	nop
 8002920:	08002931 	.word	0x08002931
 8002924:	08002903 	.word	0x08002903
 8002928:	08002953 	.word	0x08002953
 800292c:	08002953 	.word	0x08002953
 8002930:	2f01      	cmp	r7, #1
 8002932:	d118      	bne.n	8002966 <HAL_HCD_HC_SubmitRequest+0x9a>
 8002934:	b9ba      	cbnz	r2, 8002966 <HAL_HCD_HC_SubmitRequest+0x9a>
 8002936:	b925      	cbnz	r5, 8002942 <HAL_HCD_HC_SubmitRequest+0x76>
 8002938:	2328      	movs	r3, #40	; 0x28
 800293a:	fb03 0301 	mla	r3, r3, r1, r0
 800293e:	f883 7051 	strb.w	r7, [r3, #81]	; 0x51
 8002942:	2328      	movs	r3, #40	; 0x28
 8002944:	fb03 0301 	mla	r3, r3, r1, r0
 8002948:	f893 2051 	ldrb.w	r2, [r3, #81]	; 0x51
 800294c:	b14a      	cbz	r2, 8002962 <HAL_HCD_HC_SubmitRequest+0x96>
 800294e:	2202      	movs	r2, #2
 8002950:	e007      	b.n	8002962 <HAL_HCD_HC_SubmitRequest+0x96>
 8002952:	2328      	movs	r3, #40	; 0x28
 8002954:	fb03 0301 	mla	r3, r3, r1, r0
 8002958:	b9c2      	cbnz	r2, 800298c <HAL_HCD_HC_SubmitRequest+0xc0>
 800295a:	f893 4051 	ldrb.w	r4, [r3, #81]	; 0x51
 800295e:	2c00      	cmp	r4, #0
 8002960:	d1f5      	bne.n	800294e <HAL_HCD_HC_SubmitRequest+0x82>
 8002962:	f883 2042 	strb.w	r2, [r3, #66]	; 0x42
 8002966:	2428      	movs	r4, #40	; 0x28
 8002968:	fb04 0301 	mla	r3, r4, r1, r0
 800296c:	2200      	movs	r2, #0
 800296e:	f883 1039 	strb.w	r1, [r3, #57]	; 0x39
 8002972:	4619      	mov	r1, r3
 8002974:	e9c3 6511 	strd	r6, r5, [r3, #68]	; 0x44
 8002978:	f883 205c 	strb.w	r2, [r3, #92]	; 0x5c
 800297c:	64da      	str	r2, [r3, #76]	; 0x4c
 800297e:	f883 205d 	strb.w	r2, [r3, #93]	; 0x5d
 8002982:	3138      	adds	r1, #56	; 0x38
 8002984:	6800      	ldr	r0, [r0, #0]
 8002986:	bcf0      	pop	{r4, r5, r6, r7}
 8002988:	f002 ba08 	b.w	8004d9c <USB_HC_StartXfer>
 800298c:	f893 2050 	ldrb.w	r2, [r3, #80]	; 0x50
 8002990:	e7dc      	b.n	800294c <HAL_HCD_HC_SubmitRequest+0x80>
 8002992:	bf00      	nop

08002994 <HAL_HCD_IRQHandler>:
 8002994:	e92d 4ff0 	stmdb	sp!, {r4, r5, r6, r7, r8, r9, sl, fp, lr}
 8002998:	6806      	ldr	r6, [r0, #0]
 800299a:	b085      	sub	sp, #20
 800299c:	4605      	mov	r5, r0
 800299e:	4630      	mov	r0, r6
 80029a0:	f002 f8c6 	bl	8004b30 <USB_GetMode>
 80029a4:	2801      	cmp	r0, #1
 80029a6:	f040 80e4 	bne.w	8002b72 <HAL_HCD_IRQHandler+0x1de>
 80029aa:	6828      	ldr	r0, [r5, #0]
 80029ac:	f002 f8bc 	bl	8004b28 <USB_ReadInterrupts>
 80029b0:	2800      	cmp	r0, #0
 80029b2:	f000 80de 	beq.w	8002b72 <HAL_HCD_IRQHandler+0x1de>
 80029b6:	6828      	ldr	r0, [r5, #0]
 80029b8:	f002 f8b6 	bl	8004b28 <USB_ReadInterrupts>
 80029bc:	0284      	lsls	r4, r0, #10
 80029be:	bf48      	it	mi
 80029c0:	682b      	ldrmi	r3, [r5, #0]
 80029c2:	6828      	ldr	r0, [r5, #0]
 80029c4:	bf44      	itt	mi
 80029c6:	f44f 1200 	movmi.w	r2, #2097152	; 0x200000
 80029ca:	615a      	strmi	r2, [r3, #20]
 80029cc:	f002 f8ac 	bl	8004b28 <USB_ReadInterrupts>
 80029d0:	02c0      	lsls	r0, r0, #11
 80029d2:	bf48      	it	mi
 80029d4:	682b      	ldrmi	r3, [r5, #0]
 80029d6:	6828      	ldr	r0, [r5, #0]
 80029d8:	bf44      	itt	mi
 80029da:	f44f 1280 	movmi.w	r2, #1048576	; 0x100000
 80029de:	615a      	strmi	r2, [r3, #20]
 80029e0:	f002 f8a2 	bl	8004b28 <USB_ReadInterrupts>
 80029e4:	0141      	lsls	r1, r0, #5
 80029e6:	bf48      	it	mi
 80029e8:	682b      	ldrmi	r3, [r5, #0]
 80029ea:	6828      	ldr	r0, [r5, #0]
 80029ec:	bf44      	itt	mi
 80029ee:	f04f 6280 	movmi.w	r2, #67108864	; 0x4000000
 80029f2:	615a      	strmi	r2, [r3, #20]
 80029f4:	f002 f898 	bl	8004b28 <USB_ReadInterrupts>
 80029f8:	0782      	lsls	r2, r0, #30
 80029fa:	bf48      	it	mi
 80029fc:	682b      	ldrmi	r3, [r5, #0]
 80029fe:	6828      	ldr	r0, [r5, #0]
 8002a00:	bf44      	itt	mi
 8002a02:	2202      	movmi	r2, #2
 8002a04:	615a      	strmi	r2, [r3, #20]
 8002a06:	f002 f88f 	bl	8004b28 <USB_ReadInterrupts>
 8002a0a:	0083      	lsls	r3, r0, #2
 8002a0c:	d50e      	bpl.n	8002a2c <HAL_HCD_IRQHandler+0x98>
 8002a0e:	682b      	ldr	r3, [r5, #0]
 8002a10:	f04f 5200 	mov.w	r2, #536870912	; 0x20000000
 8002a14:	615a      	str	r2, [r3, #20]
 8002a16:	f8d6 3440 	ldr.w	r3, [r6, #1088]	; 0x440
 8002a1a:	07df      	lsls	r7, r3, #31
 8002a1c:	d406      	bmi.n	8002a2c <HAL_HCD_IRQHandler+0x98>
 8002a1e:	4628      	mov	r0, r5
 8002a20:	f005 ffce 	bl	80089c0 <HAL_HCD_Disconnect_Callback>
 8002a24:	2101      	movs	r1, #1
 8002a26:	6828      	ldr	r0, [r5, #0]
 8002a28:	f002 f886 	bl	8004b38 <USB_InitFSLSPClkSel>
 8002a2c:	6828      	ldr	r0, [r5, #0]
 8002a2e:	f002 f87b 	bl	8004b28 <USB_ReadInterrupts>
 8002a32:	01c4      	lsls	r4, r0, #7
 8002a34:	d53c      	bpl.n	8002ab0 <HAL_HCD_IRQHandler+0x11c>
 8002a36:	682c      	ldr	r4, [r5, #0]
 8002a38:	f8d4 3440 	ldr.w	r3, [r4, #1088]	; 0x440
 8002a3c:	9302      	str	r3, [sp, #8]
 8002a3e:	f8d4 3440 	ldr.w	r3, [r4, #1088]	; 0x440
 8002a42:	9303      	str	r3, [sp, #12]
 8002a44:	9b03      	ldr	r3, [sp, #12]
 8002a46:	f023 032e 	bic.w	r3, r3, #46	; 0x2e
 8002a4a:	9303      	str	r3, [sp, #12]
 8002a4c:	9b02      	ldr	r3, [sp, #8]
 8002a4e:	0798      	lsls	r0, r3, #30
 8002a50:	d509      	bpl.n	8002a66 <HAL_HCD_IRQHandler+0xd2>
 8002a52:	9b02      	ldr	r3, [sp, #8]
 8002a54:	07d9      	lsls	r1, r3, #31
 8002a56:	d502      	bpl.n	8002a5e <HAL_HCD_IRQHandler+0xca>
 8002a58:	4628      	mov	r0, r5
 8002a5a:	f005 ffad 	bl	80089b8 <HAL_HCD_Connect_Callback>
 8002a5e:	9b03      	ldr	r3, [sp, #12]
 8002a60:	f043 0302 	orr.w	r3, r3, #2
 8002a64:	9303      	str	r3, [sp, #12]
 8002a66:	9b02      	ldr	r3, [sp, #8]
 8002a68:	071a      	lsls	r2, r3, #28
 8002a6a:	d517      	bpl.n	8002a9c <HAL_HCD_IRQHandler+0x108>
 8002a6c:	9b03      	ldr	r3, [sp, #12]
 8002a6e:	f043 0308 	orr.w	r3, r3, #8
 8002a72:	9303      	str	r3, [sp, #12]
 8002a74:	9b02      	ldr	r3, [sp, #8]
 8002a76:	075b      	lsls	r3, r3, #29
 8002a78:	f140 8086 	bpl.w	8002b88 <HAL_HCD_IRQHandler+0x1f4>
 8002a7c:	69a9      	ldr	r1, [r5, #24]
 8002a7e:	2902      	cmp	r1, #2
 8002a80:	d17a      	bne.n	8002b78 <HAL_HCD_IRQHandler+0x1e4>
 8002a82:	9b02      	ldr	r3, [sp, #8]
 8002a84:	6828      	ldr	r0, [r5, #0]
 8002a86:	f403 23c0 	and.w	r3, r3, #393216	; 0x60000
 8002a8a:	f5b3 2f80 	cmp.w	r3, #262144	; 0x40000
 8002a8e:	bf18      	it	ne
 8002a90:	2101      	movne	r1, #1
 8002a92:	f002 f851 	bl	8004b38 <USB_InitFSLSPClkSel>
 8002a96:	4628      	mov	r0, r5
 8002a98:	f005 ff97 	bl	80089ca <HAL_HCD_PortEnabled_Callback>
 8002a9c:	9b02      	ldr	r3, [sp, #8]
 8002a9e:	069f      	lsls	r7, r3, #26
 8002aa0:	bf42      	ittt	mi
 8002aa2:	9b03      	ldrmi	r3, [sp, #12]
 8002aa4:	f043 0320 	orrmi.w	r3, r3, #32
 8002aa8:	9303      	strmi	r3, [sp, #12]
 8002aaa:	9b03      	ldr	r3, [sp, #12]
 8002aac:	f8c4 3440 	str.w	r3, [r4, #1088]	; 0x440
 8002ab0:	6828      	ldr	r0, [r5, #0]
 8002ab2:	f002 f839 	bl	8004b28 <USB_ReadInterrupts>
 8002ab6:	0700      	lsls	r0, r0, #28
 8002ab8:	d505      	bpl.n	8002ac6 <HAL_HCD_IRQHandler+0x132>
 8002aba:	4628      	mov	r0, r5
 8002abc:	f005 ff78 	bl	80089b0 <HAL_HCD_SOF_Callback>
 8002ac0:	682b      	ldr	r3, [r5, #0]
 8002ac2:	2208      	movs	r2, #8
 8002ac4:	615a      	str	r2, [r3, #20]
 8002ac6:	6828      	ldr	r0, [r5, #0]
 8002ac8:	f002 f82e 	bl	8004b28 <USB_ReadInterrupts>
 8002acc:	0181      	lsls	r1, r0, #6
 8002ace:	d512      	bpl.n	8002af6 <HAL_HCD_IRQHandler+0x162>
 8002ad0:	6828      	ldr	r0, [r5, #0]
 8002ad2:	f002 f9e3 	bl	8004e9c <USB_HC_ReadInterrupt>
 8002ad6:	f506 63a0 	add.w	r3, r6, #1280	; 0x500
 8002ada:	9000      	str	r0, [sp, #0]
 8002adc:	f04f 0900 	mov.w	r9, #0
 8002ae0:	9301      	str	r3, [sp, #4]
 8002ae2:	2728      	movs	r7, #40	; 0x28
 8002ae4:	f04f 0802 	mov.w	r8, #2
 8002ae8:	68ab      	ldr	r3, [r5, #8]
 8002aea:	6828      	ldr	r0, [r5, #0]
 8002aec:	454b      	cmp	r3, r9
 8002aee:	d84f      	bhi.n	8002b90 <HAL_HCD_IRQHandler+0x1fc>
 8002af0:	f04f 7300 	mov.w	r3, #33554432	; 0x2000000
 8002af4:	6143      	str	r3, [r0, #20]
 8002af6:	6828      	ldr	r0, [r5, #0]
 8002af8:	f002 f816 	bl	8004b28 <USB_ReadInterrupts>
 8002afc:	06c3      	lsls	r3, r0, #27
 8002afe:	d538      	bpl.n	8002b72 <HAL_HCD_IRQHandler+0x1de>
 8002b00:	682c      	ldr	r4, [r5, #0]
 8002b02:	69a3      	ldr	r3, [r4, #24]
 8002b04:	f023 0310 	bic.w	r3, r3, #16
 8002b08:	61a3      	str	r3, [r4, #24]
 8002b0a:	6a26      	ldr	r6, [r4, #32]
 8002b0c:	f3c6 4243 	ubfx	r2, r6, #17, #4
 8002b10:	2a02      	cmp	r2, #2
 8002b12:	d129      	bne.n	8002b68 <HAL_HCD_IRQHandler+0x1d4>
 8002b14:	f3c6 180a 	ubfx	r8, r6, #4, #11
 8002b18:	f1b8 0f00 	cmp.w	r8, #0
 8002b1c:	d024      	beq.n	8002b68 <HAL_HCD_IRQHandler+0x1d4>
 8002b1e:	f006 060f 	and.w	r6, r6, #15
 8002b22:	2728      	movs	r7, #40	; 0x28
 8002b24:	fb07 5706 	mla	r7, r7, r6, r5
 8002b28:	6c79      	ldr	r1, [r7, #68]	; 0x44
 8002b2a:	b1e9      	cbz	r1, 8002b68 <HAL_HCD_IRQHandler+0x1d4>
 8002b2c:	4642      	mov	r2, r8
 8002b2e:	4620      	mov	r0, r4
 8002b30:	f001 ffec 	bl	8004b0c <USB_ReadPacket>
 8002b34:	6c7b      	ldr	r3, [r7, #68]	; 0x44
 8002b36:	4443      	add	r3, r8
 8002b38:	647b      	str	r3, [r7, #68]	; 0x44
 8002b3a:	6cfb      	ldr	r3, [r7, #76]	; 0x4c
 8002b3c:	4443      	add	r3, r8
 8002b3e:	64fb      	str	r3, [r7, #76]	; 0x4c
 8002b40:	f504 64a0 	add.w	r4, r4, #1280	; 0x500
 8002b44:	0173      	lsls	r3, r6, #5
 8002b46:	18e2      	adds	r2, r4, r3
 8002b48:	6911      	ldr	r1, [r2, #16]
 8002b4a:	4ab1      	ldr	r2, [pc, #708]	; (8002e10 <HAL_HCD_IRQHandler+0x47c>)
 8002b4c:	400a      	ands	r2, r1
 8002b4e:	b15a      	cbz	r2, 8002b68 <HAL_HCD_IRQHandler+0x1d4>
 8002b50:	58e2      	ldr	r2, [r4, r3]
 8002b52:	f022 4280 	bic.w	r2, r2, #1073741824	; 0x40000000
 8002b56:	f042 4200 	orr.w	r2, r2, #2147483648	; 0x80000000
 8002b5a:	50e2      	str	r2, [r4, r3]
 8002b5c:	f897 3050 	ldrb.w	r3, [r7, #80]	; 0x50
 8002b60:	f083 0301 	eor.w	r3, r3, #1
 8002b64:	f887 3050 	strb.w	r3, [r7, #80]	; 0x50
 8002b68:	682a      	ldr	r2, [r5, #0]
 8002b6a:	6993      	ldr	r3, [r2, #24]
 8002b6c:	f043 0310 	orr.w	r3, r3, #16
 8002b70:	6193      	str	r3, [r2, #24]
 8002b72:	b005      	add	sp, #20
 8002b74:	e8bd 8ff0 	ldmia.w	sp!, {r4, r5, r6, r7, r8, r9, sl, fp, pc}
 8002b78:	68eb      	ldr	r3, [r5, #12]
 8002b7a:	2b01      	cmp	r3, #1
 8002b7c:	bf04      	itt	eq
 8002b7e:	f64e 2260 	movweq	r2, #60000	; 0xea60
 8002b82:	f8c4 2404 	streq.w	r2, [r4, #1028]	; 0x404
 8002b86:	e786      	b.n	8002a96 <HAL_HCD_IRQHandler+0x102>
 8002b88:	4628      	mov	r0, r5
 8002b8a:	f005 ff22 	bl	80089d2 <HAL_HCD_PortDisabled_Callback>
 8002b8e:	e785      	b.n	8002a9c <HAL_HCD_IRQHandler+0x108>
 8002b90:	9a00      	ldr	r2, [sp, #0]
 8002b92:	f009 030f 	and.w	r3, r9, #15
 8002b96:	fa22 f303 	lsr.w	r3, r2, r3
 8002b9a:	07da      	lsls	r2, r3, #31
 8002b9c:	d577      	bpl.n	8002c8e <HAL_HCD_IRQHandler+0x2fa>
 8002b9e:	ea4f 1349 	mov.w	r3, r9, lsl #5
 8002ba2:	9a01      	ldr	r2, [sp, #4]
 8002ba4:	fa5f f689 	uxtb.w	r6, r9
 8002ba8:	58d1      	ldr	r1, [r2, r3]
 8002baa:	f500 6ba0 	add.w	fp, r0, #1280	; 0x500
 8002bae:	ea4f 1a46 	mov.w	sl, r6, lsl #5
 8002bb2:	eb0b 040a 	add.w	r4, fp, sl
 8002bb6:	f411 4f00 	tst.w	r1, #32768	; 0x8000
 8002bba:	68a1      	ldr	r1, [r4, #8]
 8002bbc:	f000 80e5 	beq.w	8002d8a <HAL_HCD_IRQHandler+0x3f6>
 8002bc0:	074b      	lsls	r3, r1, #29
 8002bc2:	d514      	bpl.n	8002bee <HAL_HCD_IRQHandler+0x25a>
 8002bc4:	2104      	movs	r1, #4
 8002bc6:	60a1      	str	r1, [r4, #8]
 8002bc8:	68e1      	ldr	r1, [r4, #12]
 8002bca:	f041 0102 	orr.w	r1, r1, #2
 8002bce:	60e1      	str	r1, [r4, #12]
 8002bd0:	68a1      	ldr	r1, [r4, #8]
 8002bd2:	f411 7100 	ands.w	r1, r1, #512	; 0x200
 8002bd6:	d039      	beq.n	8002c4c <HAL_HCD_IRQHandler+0x2b8>
 8002bd8:	68e3      	ldr	r3, [r4, #12]
 8002bda:	6828      	ldr	r0, [r5, #0]
 8002bdc:	f043 0302 	orr.w	r3, r3, #2
 8002be0:	60e3      	str	r3, [r4, #12]
 8002be2:	4631      	mov	r1, r6
 8002be4:	f002 f95f 	bl	8004ea6 <USB_HC_Halt>
 8002be8:	f44f 7300 	mov.w	r3, #512	; 0x200
 8002bec:	e0b0      	b.n	8002d50 <HAL_HCD_IRQHandler+0x3bc>
 8002bee:	68a1      	ldr	r1, [r4, #8]
 8002bf0:	0689      	lsls	r1, r1, #26
 8002bf2:	d502      	bpl.n	8002bfa <HAL_HCD_IRQHandler+0x266>
 8002bf4:	2120      	movs	r1, #32
 8002bf6:	60a1      	str	r1, [r4, #8]
 8002bf8:	e7ea      	b.n	8002bd0 <HAL_HCD_IRQHandler+0x23c>
 8002bfa:	68a1      	ldr	r1, [r4, #8]
 8002bfc:	070a      	lsls	r2, r1, #28
 8002bfe:	d511      	bpl.n	8002c24 <HAL_HCD_IRQHandler+0x290>
 8002c00:	68e1      	ldr	r1, [r4, #12]
 8002c02:	f041 0102 	orr.w	r1, r1, #2
 8002c06:	60e1      	str	r1, [r4, #12]
 8002c08:	fb07 5106 	mla	r1, r7, r6, r5
 8002c0c:	f04f 0c05 	mov.w	ip, #5
 8002c10:	f881 c05d 	strb.w	ip, [r1, #93]	; 0x5d
 8002c14:	2110      	movs	r1, #16
 8002c16:	60a1      	str	r1, [r4, #8]
 8002c18:	2108      	movs	r1, #8
 8002c1a:	60a1      	str	r1, [r4, #8]
 8002c1c:	4631      	mov	r1, r6
 8002c1e:	f002 f942 	bl	8004ea6 <USB_HC_Halt>
 8002c22:	e7d5      	b.n	8002bd0 <HAL_HCD_IRQHandler+0x23c>
 8002c24:	68a1      	ldr	r1, [r4, #8]
 8002c26:	054b      	lsls	r3, r1, #21
 8002c28:	d5d2      	bpl.n	8002bd0 <HAL_HCD_IRQHandler+0x23c>
 8002c2a:	68e1      	ldr	r1, [r4, #12]
 8002c2c:	f041 0102 	orr.w	r1, r1, #2
 8002c30:	60e1      	str	r1, [r4, #12]
 8002c32:	4631      	mov	r1, r6
 8002c34:	f002 f937 	bl	8004ea6 <USB_HC_Halt>
 8002c38:	2110      	movs	r1, #16
 8002c3a:	60a1      	str	r1, [r4, #8]
 8002c3c:	fb07 5106 	mla	r1, r7, r6, r5
 8002c40:	2008      	movs	r0, #8
 8002c42:	f881 005d 	strb.w	r0, [r1, #93]	; 0x5d
 8002c46:	f44f 6180 	mov.w	r1, #1024	; 0x400
 8002c4a:	e7d4      	b.n	8002bf6 <HAL_HCD_IRQHandler+0x262>
 8002c4c:	68a0      	ldr	r0, [r4, #8]
 8002c4e:	07c0      	lsls	r0, r0, #31
 8002c50:	d535      	bpl.n	8002cbe <HAL_HCD_IRQHandler+0x32a>
 8002c52:	fb07 5006 	mla	r0, r7, r6, r5
 8002c56:	2301      	movs	r3, #1
 8002c58:	f880 305d 	strb.w	r3, [r0, #93]	; 0x5d
 8002c5c:	6581      	str	r1, [r0, #88]	; 0x58
 8002c5e:	60a3      	str	r3, [r4, #8]
 8002c60:	f890 203f 	ldrb.w	r2, [r0, #63]	; 0x3f
 8002c64:	f012 0ffd 	tst.w	r2, #253	; 0xfd
 8002c68:	d114      	bne.n	8002c94 <HAL_HCD_IRQHandler+0x300>
 8002c6a:	68e3      	ldr	r3, [r4, #12]
 8002c6c:	6828      	ldr	r0, [r5, #0]
 8002c6e:	f043 0302 	orr.w	r3, r3, #2
 8002c72:	60e3      	str	r3, [r4, #12]
 8002c74:	4631      	mov	r1, r6
 8002c76:	f002 f916 	bl	8004ea6 <USB_HC_Halt>
 8002c7a:	2310      	movs	r3, #16
 8002c7c:	60a3      	str	r3, [r4, #8]
 8002c7e:	fb07 5606 	mla	r6, r7, r6, r5
 8002c82:	f896 3050 	ldrb.w	r3, [r6, #80]	; 0x50
 8002c86:	f083 0301 	eor.w	r3, r3, #1
 8002c8a:	f886 3050 	strb.w	r3, [r6, #80]	; 0x50
 8002c8e:	f109 0901 	add.w	r9, r9, #1
 8002c92:	e729      	b.n	8002ae8 <HAL_HCD_IRQHandler+0x154>
 8002c94:	2a03      	cmp	r2, #3
 8002c96:	d10d      	bne.n	8002cb4 <HAL_HCD_IRQHandler+0x320>
 8002c98:	f85b 100a 	ldr.w	r1, [fp, sl]
 8002c9c:	f041 5100 	orr.w	r1, r1, #536870912	; 0x20000000
 8002ca0:	f84b 100a 	str.w	r1, [fp, sl]
 8002ca4:	461a      	mov	r2, r3
 8002ca6:	f880 305c 	strb.w	r3, [r0, #92]	; 0x5c
 8002caa:	4631      	mov	r1, r6
 8002cac:	4628      	mov	r0, r5
 8002cae:	f005 fe8b 	bl	80089c8 <HAL_HCD_HC_NotifyURBChange_Callback>
 8002cb2:	e7e4      	b.n	8002c7e <HAL_HCD_IRQHandler+0x2ea>
 8002cb4:	2a01      	cmp	r2, #1
 8002cb6:	d1e2      	bne.n	8002c7e <HAL_HCD_IRQHandler+0x2ea>
 8002cb8:	f880 205c 	strb.w	r2, [r0, #92]	; 0x5c
 8002cbc:	e7f5      	b.n	8002caa <HAL_HCD_IRQHandler+0x316>
 8002cbe:	68a1      	ldr	r1, [r4, #8]
 8002cc0:	078a      	lsls	r2, r1, #30
 8002cc2:	d530      	bpl.n	8002d26 <HAL_HCD_IRQHandler+0x392>
 8002cc4:	68e1      	ldr	r1, [r4, #12]
 8002cc6:	fb07 5006 	mla	r0, r7, r6, r5
 8002cca:	f021 0102 	bic.w	r1, r1, #2
 8002cce:	60e1      	str	r1, [r4, #12]
 8002cd0:	f890 105d 	ldrb.w	r1, [r0, #93]	; 0x5d
 8002cd4:	2901      	cmp	r1, #1
 8002cd6:	d102      	bne.n	8002cde <HAL_HCD_IRQHandler+0x34a>
 8002cd8:	f880 105c 	strb.w	r1, [r0, #92]	; 0x5c
 8002cdc:	e108      	b.n	8002ef0 <HAL_HCD_IRQHandler+0x55c>
 8002cde:	2905      	cmp	r1, #5
 8002ce0:	d0fa      	beq.n	8002cd8 <HAL_HCD_IRQHandler+0x344>
 8002ce2:	2906      	cmp	r1, #6
 8002ce4:	d001      	beq.n	8002cea <HAL_HCD_IRQHandler+0x356>
 8002ce6:	2908      	cmp	r1, #8
 8002ce8:	d10f      	bne.n	8002d0a <HAL_HCD_IRQHandler+0x376>
 8002cea:	fb07 5106 	mla	r1, r7, r6, r5
 8002cee:	6d88      	ldr	r0, [r1, #88]	; 0x58
 8002cf0:	3001      	adds	r0, #1
 8002cf2:	2803      	cmp	r0, #3
 8002cf4:	6588      	str	r0, [r1, #88]	; 0x58
 8002cf6:	bf81      	itttt	hi
 8002cf8:	2000      	movhi	r0, #0
 8002cfa:	6588      	strhi	r0, [r1, #88]	; 0x58
 8002cfc:	2004      	movhi	r0, #4
 8002cfe:	f881 005c 	strbhi.w	r0, [r1, #92]	; 0x5c
 8002d02:	bf98      	it	ls
 8002d04:	f881 805c 	strbls.w	r8, [r1, #92]	; 0x5c
 8002d08:	e004      	b.n	8002d14 <HAL_HCD_IRQHandler+0x380>
 8002d0a:	2903      	cmp	r1, #3
 8002d0c:	f040 80f0 	bne.w	8002ef0 <HAL_HCD_IRQHandler+0x55c>
 8002d10:	f880 805c 	strb.w	r8, [r0, #92]	; 0x5c
 8002d14:	f85b 100a 	ldr.w	r1, [fp, sl]
 8002d18:	f021 4180 	bic.w	r1, r1, #1073741824	; 0x40000000
 8002d1c:	f041 4100 	orr.w	r1, r1, #2147483648	; 0x80000000
 8002d20:	f84b 100a 	str.w	r1, [fp, sl]
 8002d24:	e0e4      	b.n	8002ef0 <HAL_HCD_IRQHandler+0x55c>
 8002d26:	68a1      	ldr	r1, [r4, #8]
 8002d28:	6828      	ldr	r0, [r5, #0]
 8002d2a:	f011 0180 	ands.w	r1, r1, #128	; 0x80
 8002d2e:	d011      	beq.n	8002d54 <HAL_HCD_IRQHandler+0x3c0>
 8002d30:	68e3      	ldr	r3, [r4, #12]
 8002d32:	fb07 5206 	mla	r2, r7, r6, r5
 8002d36:	f043 0302 	orr.w	r3, r3, #2
 8002d3a:	60e3      	str	r3, [r4, #12]
 8002d3c:	6d93      	ldr	r3, [r2, #88]	; 0x58
 8002d3e:	3301      	adds	r3, #1
 8002d40:	6593      	str	r3, [r2, #88]	; 0x58
 8002d42:	2306      	movs	r3, #6
 8002d44:	f882 305d 	strb.w	r3, [r2, #93]	; 0x5d
 8002d48:	4631      	mov	r1, r6
 8002d4a:	f002 f8ac 	bl	8004ea6 <USB_HC_Halt>
 8002d4e:	2380      	movs	r3, #128	; 0x80
 8002d50:	60a3      	str	r3, [r4, #8]
 8002d52:	e79c      	b.n	8002c8e <HAL_HCD_IRQHandler+0x2fa>
 8002d54:	68a3      	ldr	r3, [r4, #8]
 8002d56:	06db      	lsls	r3, r3, #27
 8002d58:	d599      	bpl.n	8002c8e <HAL_HCD_IRQHandler+0x2fa>
 8002d5a:	fb07 5206 	mla	r2, r7, r6, r5
 8002d5e:	f892 303f 	ldrb.w	r3, [r2, #63]	; 0x3f
 8002d62:	2b03      	cmp	r3, #3
 8002d64:	d109      	bne.n	8002d7a <HAL_HCD_IRQHandler+0x3e6>
 8002d66:	6591      	str	r1, [r2, #88]	; 0x58
 8002d68:	68e3      	ldr	r3, [r4, #12]
 8002d6a:	f043 0302 	orr.w	r3, r3, #2
 8002d6e:	60e3      	str	r3, [r4, #12]
 8002d70:	4631      	mov	r1, r6
 8002d72:	f002 f898 	bl	8004ea6 <USB_HC_Halt>
 8002d76:	2310      	movs	r3, #16
 8002d78:	e7ea      	b.n	8002d50 <HAL_HCD_IRQHandler+0x3bc>
 8002d7a:	f013 03fd 	ands.w	r3, r3, #253	; 0xfd
 8002d7e:	d1fa      	bne.n	8002d76 <HAL_HCD_IRQHandler+0x3e2>
 8002d80:	6593      	str	r3, [r2, #88]	; 0x58
 8002d82:	2303      	movs	r3, #3
 8002d84:	f882 305d 	strb.w	r3, [r2, #93]	; 0x5d
 8002d88:	e7ee      	b.n	8002d68 <HAL_HCD_IRQHandler+0x3d4>
 8002d8a:	f011 0c04 	ands.w	ip, r1, #4
 8002d8e:	d006      	beq.n	8002d9e <HAL_HCD_IRQHandler+0x40a>
 8002d90:	2304      	movs	r3, #4
 8002d92:	60a3      	str	r3, [r4, #8]
 8002d94:	68e3      	ldr	r3, [r4, #12]
 8002d96:	f043 0302 	orr.w	r3, r3, #2
 8002d9a:	60e3      	str	r3, [r4, #12]
 8002d9c:	e777      	b.n	8002c8e <HAL_HCD_IRQHandler+0x2fa>
 8002d9e:	68a1      	ldr	r1, [r4, #8]
 8002da0:	f011 0120 	ands.w	r1, r1, #32
 8002da4:	d014      	beq.n	8002dd0 <HAL_HCD_IRQHandler+0x43c>
 8002da6:	2320      	movs	r3, #32
 8002da8:	60a3      	str	r3, [r4, #8]
 8002daa:	fb07 5306 	mla	r3, r7, r6, r5
 8002dae:	f893 203d 	ldrb.w	r2, [r3, #61]	; 0x3d
 8002db2:	2a01      	cmp	r2, #1
 8002db4:	f47f af6b 	bne.w	8002c8e <HAL_HCD_IRQHandler+0x2fa>
 8002db8:	f883 c03d 	strb.w	ip, [r3, #61]	; 0x3d
 8002dbc:	f883 805c 	strb.w	r8, [r3, #92]	; 0x5c
 8002dc0:	68e3      	ldr	r3, [r4, #12]
 8002dc2:	f043 0302 	orr.w	r3, r3, #2
 8002dc6:	60e3      	str	r3, [r4, #12]
 8002dc8:	4631      	mov	r1, r6
 8002dca:	f002 f86c 	bl	8004ea6 <USB_HC_Halt>
 8002dce:	e75e      	b.n	8002c8e <HAL_HCD_IRQHandler+0x2fa>
 8002dd0:	68a3      	ldr	r3, [r4, #8]
 8002dd2:	065a      	lsls	r2, r3, #25
 8002dd4:	d511      	bpl.n	8002dfa <HAL_HCD_IRQHandler+0x466>
 8002dd6:	fb07 5306 	mla	r3, r7, r6, r5
 8002dda:	2204      	movs	r2, #4
 8002ddc:	f883 205d 	strb.w	r2, [r3, #93]	; 0x5d
 8002de0:	2201      	movs	r2, #1
 8002de2:	f883 203d 	strb.w	r2, [r3, #61]	; 0x3d
 8002de6:	6599      	str	r1, [r3, #88]	; 0x58
 8002de8:	68e3      	ldr	r3, [r4, #12]
 8002dea:	f043 0302 	orr.w	r3, r3, #2
 8002dee:	60e3      	str	r3, [r4, #12]
 8002df0:	4631      	mov	r1, r6
 8002df2:	f002 f858 	bl	8004ea6 <USB_HC_Halt>
 8002df6:	2340      	movs	r3, #64	; 0x40
 8002df8:	e7aa      	b.n	8002d50 <HAL_HCD_IRQHandler+0x3bc>
 8002dfa:	68a1      	ldr	r1, [r4, #8]
 8002dfc:	f411 7100 	ands.w	r1, r1, #512	; 0x200
 8002e00:	d008      	beq.n	8002e14 <HAL_HCD_IRQHandler+0x480>
 8002e02:	68e3      	ldr	r3, [r4, #12]
 8002e04:	f043 0302 	orr.w	r3, r3, #2
 8002e08:	60e3      	str	r3, [r4, #12]
 8002e0a:	4631      	mov	r1, r6
 8002e0c:	e6ea      	b.n	8002be4 <HAL_HCD_IRQHandler+0x250>
 8002e0e:	bf00      	nop
 8002e10:	1ff80000 	.word	0x1ff80000
 8002e14:	68a3      	ldr	r3, [r4, #8]
 8002e16:	07db      	lsls	r3, r3, #31
 8002e18:	d50f      	bpl.n	8002e3a <HAL_HCD_IRQHandler+0x4a6>
 8002e1a:	68e2      	ldr	r2, [r4, #12]
 8002e1c:	fb07 5a06 	mla	sl, r7, r6, r5
 8002e20:	f042 0202 	orr.w	r2, r2, #2
 8002e24:	f8ca 1058 	str.w	r1, [sl, #88]	; 0x58
 8002e28:	60e2      	str	r2, [r4, #12]
 8002e2a:	4631      	mov	r1, r6
 8002e2c:	f002 f83b 	bl	8004ea6 <USB_HC_Halt>
 8002e30:	2201      	movs	r2, #1
 8002e32:	60a2      	str	r2, [r4, #8]
 8002e34:	f88a 205d 	strb.w	r2, [sl, #93]	; 0x5d
 8002e38:	e729      	b.n	8002c8e <HAL_HCD_IRQHandler+0x2fa>
 8002e3a:	68a1      	ldr	r1, [r4, #8]
 8002e3c:	0709      	lsls	r1, r1, #28
 8002e3e:	d50e      	bpl.n	8002e5e <HAL_HCD_IRQHandler+0x4ca>
 8002e40:	2308      	movs	r3, #8
 8002e42:	60a3      	str	r3, [r4, #8]
 8002e44:	68e3      	ldr	r3, [r4, #12]
 8002e46:	f043 0302 	orr.w	r3, r3, #2
 8002e4a:	60e3      	str	r3, [r4, #12]
 8002e4c:	4631      	mov	r1, r6
 8002e4e:	f002 f82a 	bl	8004ea6 <USB_HC_Halt>
 8002e52:	fb07 5606 	mla	r6, r7, r6, r5
 8002e56:	2305      	movs	r3, #5
 8002e58:	f886 305d 	strb.w	r3, [r6, #93]	; 0x5d
 8002e5c:	e717      	b.n	8002c8e <HAL_HCD_IRQHandler+0x2fa>
 8002e5e:	68a1      	ldr	r1, [r4, #8]
 8002e60:	06ca      	lsls	r2, r1, #27
 8002e62:	d507      	bpl.n	8002e74 <HAL_HCD_IRQHandler+0x4e0>
 8002e64:	fb07 5306 	mla	r3, r7, r6, r5
 8002e68:	2200      	movs	r2, #0
 8002e6a:	659a      	str	r2, [r3, #88]	; 0x58
 8002e6c:	2203      	movs	r2, #3
 8002e6e:	f883 205d 	strb.w	r2, [r3, #93]	; 0x5d
 8002e72:	e779      	b.n	8002d68 <HAL_HCD_IRQHandler+0x3d4>
 8002e74:	68a1      	ldr	r1, [r4, #8]
 8002e76:	060b      	lsls	r3, r1, #24
 8002e78:	d50c      	bpl.n	8002e94 <HAL_HCD_IRQHandler+0x500>
 8002e7a:	68e3      	ldr	r3, [r4, #12]
 8002e7c:	f043 0302 	orr.w	r3, r3, #2
 8002e80:	60e3      	str	r3, [r4, #12]
 8002e82:	4631      	mov	r1, r6
 8002e84:	fb07 5606 	mla	r6, r7, r6, r5
 8002e88:	f002 f80d 	bl	8004ea6 <USB_HC_Halt>
 8002e8c:	2306      	movs	r3, #6
 8002e8e:	f886 305d 	strb.w	r3, [r6, #93]	; 0x5d
 8002e92:	e75c      	b.n	8002d4e <HAL_HCD_IRQHandler+0x3ba>
 8002e94:	68a1      	ldr	r1, [r4, #8]
 8002e96:	0549      	lsls	r1, r1, #21
 8002e98:	d50f      	bpl.n	8002eba <HAL_HCD_IRQHandler+0x526>
 8002e9a:	68e3      	ldr	r3, [r4, #12]
 8002e9c:	f043 0302 	orr.w	r3, r3, #2
 8002ea0:	60e3      	str	r3, [r4, #12]
 8002ea2:	4631      	mov	r1, r6
 8002ea4:	f001 ffff 	bl	8004ea6 <USB_HC_Halt>
 8002ea8:	2310      	movs	r3, #16
 8002eaa:	60a3      	str	r3, [r4, #8]
 8002eac:	f44f 6380 	mov.w	r3, #1024	; 0x400
 8002eb0:	60a3      	str	r3, [r4, #8]
 8002eb2:	fb07 5606 	mla	r6, r7, r6, r5
 8002eb6:	2308      	movs	r3, #8
 8002eb8:	e7ce      	b.n	8002e58 <HAL_HCD_IRQHandler+0x4c4>
 8002eba:	68a1      	ldr	r1, [r4, #8]
 8002ebc:	078a      	lsls	r2, r1, #30
 8002ebe:	f57f aee6 	bpl.w	8002c8e <HAL_HCD_IRQHandler+0x2fa>
 8002ec2:	68e1      	ldr	r1, [r4, #12]
 8002ec4:	fb07 5006 	mla	r0, r7, r6, r5
 8002ec8:	f021 0102 	bic.w	r1, r1, #2
 8002ecc:	60e1      	str	r1, [r4, #12]
 8002ece:	f890 105d 	ldrb.w	r1, [r0, #93]	; 0x5d
 8002ed2:	2901      	cmp	r1, #1
 8002ed4:	d117      	bne.n	8002f06 <HAL_HCD_IRQHandler+0x572>
 8002ed6:	f890 303f 	ldrb.w	r3, [r0, #63]	; 0x3f
 8002eda:	f880 105c 	strb.w	r1, [r0, #92]	; 0x5c
 8002ede:	3b02      	subs	r3, #2
 8002ee0:	2b01      	cmp	r3, #1
 8002ee2:	d805      	bhi.n	8002ef0 <HAL_HCD_IRQHandler+0x55c>
 8002ee4:	f890 3051 	ldrb.w	r3, [r0, #81]	; 0x51
 8002ee8:	f083 0301 	eor.w	r3, r3, #1
 8002eec:	f880 3051 	strb.w	r3, [r0, #81]	; 0x51
 8002ef0:	fb07 5306 	mla	r3, r7, r6, r5
 8002ef4:	f8c4 8008 	str.w	r8, [r4, #8]
 8002ef8:	f893 205c 	ldrb.w	r2, [r3, #92]	; 0x5c
 8002efc:	4631      	mov	r1, r6
 8002efe:	4628      	mov	r0, r5
 8002f00:	f005 fd62 	bl	80089c8 <HAL_HCD_HC_NotifyURBChange_Callback>
 8002f04:	e6c3      	b.n	8002c8e <HAL_HCD_IRQHandler+0x2fa>
 8002f06:	2903      	cmp	r1, #3
 8002f08:	d102      	bne.n	8002f10 <HAL_HCD_IRQHandler+0x57c>
 8002f0a:	f880 805c 	strb.w	r8, [r0, #92]	; 0x5c
 8002f0e:	e7ef      	b.n	8002ef0 <HAL_HCD_IRQHandler+0x55c>
 8002f10:	2904      	cmp	r1, #4
 8002f12:	d0fa      	beq.n	8002f0a <HAL_HCD_IRQHandler+0x576>
 8002f14:	2905      	cmp	r1, #5
 8002f16:	f43f aedf 	beq.w	8002cd8 <HAL_HCD_IRQHandler+0x344>
 8002f1a:	2906      	cmp	r1, #6
 8002f1c:	f43f aee5 	beq.w	8002cea <HAL_HCD_IRQHandler+0x356>
 8002f20:	2908      	cmp	r1, #8
 8002f22:	d1e5      	bne.n	8002ef0 <HAL_HCD_IRQHandler+0x55c>
 8002f24:	e6e1      	b.n	8002cea <HAL_HCD_IRQHandler+0x356>
 8002f26:	bf00      	nop

08002f28 <HAL_HCD_Start>:
 8002f28:	b538      	push	{r3, r4, r5, lr}
 8002f2a:	f890 32b8 	ldrb.w	r3, [r0, #696]	; 0x2b8
 8002f2e:	2b01      	cmp	r3, #1
 8002f30:	4604      	mov	r4, r0
 8002f32:	d00d      	beq.n	8002f50 <HAL_HCD_Start+0x28>
 8002f34:	2501      	movs	r5, #1
 8002f36:	f880 52b8 	strb.w	r5, [r0, #696]	; 0x2b8
 8002f3a:	6800      	ldr	r0, [r0, #0]
 8002f3c:	f001 fd91 	bl	8004a62 <USB_EnableGlobalInt>
 8002f40:	4629      	mov	r1, r5
 8002f42:	6820      	ldr	r0, [r4, #0]
 8002f44:	f001 fe32 	bl	8004bac <USB_DriveVbus>
 8002f48:	2000      	movs	r0, #0
 8002f4a:	f884 02b8 	strb.w	r0, [r4, #696]	; 0x2b8
 8002f4e:	bd38      	pop	{r3, r4, r5, pc}
 8002f50:	2002      	movs	r0, #2
 8002f52:	e7fc      	b.n	8002f4e <HAL_HCD_Start+0x26>

08002f54 <HAL_HCD_Stop>:
 8002f54:	f890 32b8 	ldrb.w	r3, [r0, #696]	; 0x2b8
 8002f58:	2b01      	cmp	r3, #1
 8002f5a:	b510      	push	{r4, lr}
 8002f5c:	4604      	mov	r4, r0
 8002f5e:	d009      	beq.n	8002f74 <HAL_HCD_Stop+0x20>
 8002f60:	2301      	movs	r3, #1
 8002f62:	f880 32b8 	strb.w	r3, [r0, #696]	; 0x2b8
 8002f66:	6800      	ldr	r0, [r0, #0]
 8002f68:	f001 ffef 	bl	8004f4a <USB_StopHost>
 8002f6c:	2000      	movs	r0, #0
 8002f6e:	f884 02b8 	strb.w	r0, [r4, #696]	; 0x2b8
 8002f72:	bd10      	pop	{r4, pc}
 8002f74:	2002      	movs	r0, #2
 8002f76:	e7fc      	b.n	8002f72 <HAL_HCD_Stop+0x1e>

08002f78 <HAL_HCD_ResetPort>:
 8002f78:	6800      	ldr	r0, [r0, #0]
 8002f7a:	f001 bdf9 	b.w	8004b70 <USB_ResetPort>

08002f7e <HAL_HCD_HC_GetURBState>:
 8002f7e:	2328      	movs	r3, #40	; 0x28
 8002f80:	fb03 0101 	mla	r1, r3, r1, r0
 8002f84:	f891 005c 	ldrb.w	r0, [r1, #92]	; 0x5c
 8002f88:	4770      	bx	lr

08002f8a <HAL_HCD_HC_GetXferCount>:
 8002f8a:	2328      	movs	r3, #40	; 0x28
 8002f8c:	fb03 0101 	mla	r1, r3, r1, r0
 8002f90:	6cc8      	ldr	r0, [r1, #76]	; 0x4c
 8002f92:	4770      	bx	lr

08002f94 <HAL_HCD_GetCurrentFrame>:
 8002f94:	6800      	ldr	r0, [r0, #0]
 8002f96:	f001 be82 	b.w	8004c9e <USB_GetCurrentFrame>

08002f9a <HAL_HCD_GetCurrentSpeed>:
 8002f9a:	6800      	ldr	r0, [r0, #0]
 8002f9c:	f001 be74 	b.w	8004c88 <USB_GetHostSpeed>

08002fa0 <HAL_I2CEx_EnableFastModePlus>:
 8002fa0:	4b08      	ldr	r3, [pc, #32]	; (8002fc4 <HAL_I2CEx_EnableFastModePlus+0x24>)
 8002fa2:	6e1a      	ldr	r2, [r3, #96]	; 0x60
 8002fa4:	f042 0201 	orr.w	r2, r2, #1
 8002fa8:	661a      	str	r2, [r3, #96]	; 0x60
 8002faa:	6e1b      	ldr	r3, [r3, #96]	; 0x60
 8002fac:	4a06      	ldr	r2, [pc, #24]	; (8002fc8 <HAL_I2CEx_EnableFastModePlus+0x28>)
 8002fae:	b082      	sub	sp, #8
 8002fb0:	f003 0301 	and.w	r3, r3, #1
 8002fb4:	9301      	str	r3, [sp, #4]
 8002fb6:	9b01      	ldr	r3, [sp, #4]
 8002fb8:	6853      	ldr	r3, [r2, #4]
 8002fba:	4318      	orrs	r0, r3
 8002fbc:	6050      	str	r0, [r2, #4]
 8002fbe:	b002      	add	sp, #8
 8002fc0:	4770      	bx	lr
 8002fc2:	bf00      	nop
 8002fc4:	40021000 	.word	0x40021000
 8002fc8:	40010000 	.word	0x40010000

08002fcc <HAL_PWREx_GetVoltageRange>:
 8002fcc:	4b02      	ldr	r3, [pc, #8]	; (8002fd8 <HAL_PWREx_GetVoltageRange+0xc>)
 8002fce:	6818      	ldr	r0, [r3, #0]
 8002fd0:	f400 60c0 	and.w	r0, r0, #1536	; 0x600
 8002fd4:	4770      	bx	lr
 8002fd6:	bf00      	nop
 8002fd8:	40007000 	.word	0x40007000

08002fdc <HAL_PWREx_ControlVoltageScaling>:
 8002fdc:	4b17      	ldr	r3, [pc, #92]	; (800303c <HAL_PWREx_ControlVoltageScaling+0x60>)
 8002fde:	681a      	ldr	r2, [r3, #0]
 8002fe0:	f5b0 7f00 	cmp.w	r0, #512	; 0x200
 8002fe4:	f402 62c0 	and.w	r2, r2, #1536	; 0x600
 8002fe8:	d11c      	bne.n	8003024 <HAL_PWREx_ControlVoltageScaling+0x48>
 8002fea:	f5b2 7f00 	cmp.w	r2, #512	; 0x200
 8002fee:	d015      	beq.n	800301c <HAL_PWREx_ControlVoltageScaling+0x40>
 8002ff0:	681a      	ldr	r2, [r3, #0]
 8002ff2:	f422 62c0 	bic.w	r2, r2, #1536	; 0x600
 8002ff6:	f442 7200 	orr.w	r2, r2, #512	; 0x200
 8002ffa:	601a      	str	r2, [r3, #0]
 8002ffc:	4a10      	ldr	r2, [pc, #64]	; (8003040 <HAL_PWREx_ControlVoltageScaling+0x64>)
 8002ffe:	6811      	ldr	r1, [r2, #0]
 8003000:	2232      	movs	r2, #50	; 0x32
 8003002:	434a      	muls	r2, r1
 8003004:	490f      	ldr	r1, [pc, #60]	; (8003044 <HAL_PWREx_ControlVoltageScaling+0x68>)
 8003006:	fbb2 f2f1 	udiv	r2, r2, r1
 800300a:	4619      	mov	r1, r3
 800300c:	3201      	adds	r2, #1
 800300e:	6958      	ldr	r0, [r3, #20]
 8003010:	0540      	lsls	r0, r0, #21
 8003012:	d500      	bpl.n	8003016 <HAL_PWREx_ControlVoltageScaling+0x3a>
 8003014:	b922      	cbnz	r2, 8003020 <HAL_PWREx_ControlVoltageScaling+0x44>
 8003016:	694b      	ldr	r3, [r1, #20]
 8003018:	055b      	lsls	r3, r3, #21
 800301a:	d40d      	bmi.n	8003038 <HAL_PWREx_ControlVoltageScaling+0x5c>
 800301c:	2000      	movs	r0, #0
 800301e:	4770      	bx	lr
 8003020:	3a01      	subs	r2, #1
 8003022:	e7f4      	b.n	800300e <HAL_PWREx_ControlVoltageScaling+0x32>
 8003024:	f5b2 6f80 	cmp.w	r2, #1024	; 0x400
 8003028:	bf1f      	itttt	ne
 800302a:	681a      	ldrne	r2, [r3, #0]
 800302c:	f422 62c0 	bicne.w	r2, r2, #1536	; 0x600
 8003030:	f442 6280 	orrne.w	r2, r2, #1024	; 0x400
 8003034:	601a      	strne	r2, [r3, #0]
 8003036:	e7f1      	b.n	800301c <HAL_PWREx_ControlVoltageScaling+0x40>
 8003038:	2003      	movs	r0, #3
 800303a:	4770      	bx	lr
 800303c:	40007000 	.word	0x40007000
 8003040:	20000000 	.word	0x20000000
 8003044:	000f4240 	.word	0x000f4240

08003048 <HAL_PWREx_EnableVddUSB>:
 8003048:	4a02      	ldr	r2, [pc, #8]	; (8003054 <HAL_PWREx_EnableVddUSB+0xc>)
 800304a:	6853      	ldr	r3, [r2, #4]
 800304c:	f443 6380 	orr.w	r3, r3, #1024	; 0x400
 8003050:	6053      	str	r3, [r2, #4]
 8003052:	4770      	bx	lr
 8003054:	40007000 	.word	0x40007000

08003058 <RCC_SetFlashLatencyFromMSIRange>:
 8003058:	b537      	push	{r0, r1, r2, r4, r5, lr}
 800305a:	4d1e      	ldr	r5, [pc, #120]	; (80030d4 <RCC_SetFlashLatencyFromMSIRange+0x7c>)
 800305c:	6dab      	ldr	r3, [r5, #88]	; 0x58
 800305e:	00da      	lsls	r2, r3, #3
 8003060:	4604      	mov	r4, r0
 8003062:	d518      	bpl.n	8003096 <RCC_SetFlashLatencyFromMSIRange+0x3e>
 8003064:	f7ff ffb2 	bl	8002fcc <HAL_PWREx_GetVoltageRange>
 8003068:	f5b0 7f00 	cmp.w	r0, #512	; 0x200
 800306c:	d123      	bne.n	80030b6 <RCC_SetFlashLatencyFromMSIRange+0x5e>
 800306e:	2c80      	cmp	r4, #128	; 0x80
 8003070:	d929      	bls.n	80030c6 <RCC_SetFlashLatencyFromMSIRange+0x6e>
 8003072:	2ca0      	cmp	r4, #160	; 0xa0
 8003074:	bf8c      	ite	hi
 8003076:	2002      	movhi	r0, #2
 8003078:	2001      	movls	r0, #1
 800307a:	4a17      	ldr	r2, [pc, #92]	; (80030d8 <RCC_SetFlashLatencyFromMSIRange+0x80>)
 800307c:	6813      	ldr	r3, [r2, #0]
 800307e:	f023 0307 	bic.w	r3, r3, #7
 8003082:	4303      	orrs	r3, r0
 8003084:	6013      	str	r3, [r2, #0]
 8003086:	6813      	ldr	r3, [r2, #0]
 8003088:	f003 0307 	and.w	r3, r3, #7
 800308c:	1a18      	subs	r0, r3, r0
 800308e:	bf18      	it	ne
 8003090:	2001      	movne	r0, #1
 8003092:	b003      	add	sp, #12
 8003094:	bd30      	pop	{r4, r5, pc}
 8003096:	6dab      	ldr	r3, [r5, #88]	; 0x58
 8003098:	f043 5380 	orr.w	r3, r3, #268435456	; 0x10000000
 800309c:	65ab      	str	r3, [r5, #88]	; 0x58
 800309e:	6dab      	ldr	r3, [r5, #88]	; 0x58
 80030a0:	f003 5380 	and.w	r3, r3, #268435456	; 0x10000000
 80030a4:	9301      	str	r3, [sp, #4]
 80030a6:	9b01      	ldr	r3, [sp, #4]
 80030a8:	f7ff ff90 	bl	8002fcc <HAL_PWREx_GetVoltageRange>
 80030ac:	6dab      	ldr	r3, [r5, #88]	; 0x58
 80030ae:	f023 5380 	bic.w	r3, r3, #268435456	; 0x10000000
 80030b2:	65ab      	str	r3, [r5, #88]	; 0x58
 80030b4:	e7d8      	b.n	8003068 <RCC_SetFlashLatencyFromMSIRange+0x10>
 80030b6:	2c80      	cmp	r4, #128	; 0x80
 80030b8:	d807      	bhi.n	80030ca <RCC_SetFlashLatencyFromMSIRange+0x72>
 80030ba:	d008      	beq.n	80030ce <RCC_SetFlashLatencyFromMSIRange+0x76>
 80030bc:	f1a4 0370 	sub.w	r3, r4, #112	; 0x70
 80030c0:	4258      	negs	r0, r3
 80030c2:	4158      	adcs	r0, r3
 80030c4:	e7d9      	b.n	800307a <RCC_SetFlashLatencyFromMSIRange+0x22>
 80030c6:	2000      	movs	r0, #0
 80030c8:	e7d7      	b.n	800307a <RCC_SetFlashLatencyFromMSIRange+0x22>
 80030ca:	2003      	movs	r0, #3
 80030cc:	e7d5      	b.n	800307a <RCC_SetFlashLatencyFromMSIRange+0x22>
 80030ce:	2002      	movs	r0, #2
 80030d0:	e7d3      	b.n	800307a <RCC_SetFlashLatencyFromMSIRange+0x22>
 80030d2:	bf00      	nop
 80030d4:	40021000 	.word	0x40021000
 80030d8:	40022000 	.word	0x40022000

080030dc <HAL_RCC_GetSysClockFreq>:
 80030dc:	4b22      	ldr	r3, [pc, #136]	; (8003168 <HAL_RCC_GetSysClockFreq+0x8c>)
 80030de:	689a      	ldr	r2, [r3, #8]
 80030e0:	68d9      	ldr	r1, [r3, #12]
 80030e2:	f012 020c 	ands.w	r2, r2, #12
 80030e6:	d005      	beq.n	80030f4 <HAL_RCC_GetSysClockFreq+0x18>
 80030e8:	2a0c      	cmp	r2, #12
 80030ea:	d115      	bne.n	8003118 <HAL_RCC_GetSysClockFreq+0x3c>
 80030ec:	f001 0103 	and.w	r1, r1, #3
 80030f0:	2901      	cmp	r1, #1
 80030f2:	d118      	bne.n	8003126 <HAL_RCC_GetSysClockFreq+0x4a>
 80030f4:	6819      	ldr	r1, [r3, #0]
 80030f6:	481d      	ldr	r0, [pc, #116]	; (800316c <HAL_RCC_GetSysClockFreq+0x90>)
 80030f8:	0709      	lsls	r1, r1, #28
 80030fa:	bf55      	itete	pl
 80030fc:	f8d3 1094 	ldrpl.w	r1, [r3, #148]	; 0x94
 8003100:	6819      	ldrmi	r1, [r3, #0]
 8003102:	f3c1 2103 	ubfxpl	r1, r1, #8, #4
 8003106:	f3c1 1103 	ubfxmi	r1, r1, #4, #4
 800310a:	f850 0021 	ldr.w	r0, [r0, r1, lsl #2]
 800310e:	b34a      	cbz	r2, 8003164 <HAL_RCC_GetSysClockFreq+0x88>
 8003110:	2a0c      	cmp	r2, #12
 8003112:	d009      	beq.n	8003128 <HAL_RCC_GetSysClockFreq+0x4c>
 8003114:	2000      	movs	r0, #0
 8003116:	4770      	bx	lr
 8003118:	2a04      	cmp	r2, #4
 800311a:	d022      	beq.n	8003162 <HAL_RCC_GetSysClockFreq+0x86>
 800311c:	2a08      	cmp	r2, #8
 800311e:	4814      	ldr	r0, [pc, #80]	; (8003170 <HAL_RCC_GetSysClockFreq+0x94>)
 8003120:	bf18      	it	ne
 8003122:	2000      	movne	r0, #0
 8003124:	4770      	bx	lr
 8003126:	2000      	movs	r0, #0
 8003128:	68da      	ldr	r2, [r3, #12]
 800312a:	f002 0203 	and.w	r2, r2, #3
 800312e:	2a02      	cmp	r2, #2
 8003130:	d015      	beq.n	800315e <HAL_RCC_GetSysClockFreq+0x82>
 8003132:	490f      	ldr	r1, [pc, #60]	; (8003170 <HAL_RCC_GetSysClockFreq+0x94>)
 8003134:	2a03      	cmp	r2, #3
 8003136:	bf08      	it	eq
 8003138:	4608      	moveq	r0, r1
 800313a:	68da      	ldr	r2, [r3, #12]
 800313c:	68d9      	ldr	r1, [r3, #12]
 800313e:	68db      	ldr	r3, [r3, #12]
 8003140:	f3c3 6341 	ubfx	r3, r3, #25, #2
 8003144:	f3c1 2106 	ubfx	r1, r1, #8, #7
 8003148:	f3c2 1202 	ubfx	r2, r2, #4, #3
 800314c:	3301      	adds	r3, #1
 800314e:	4348      	muls	r0, r1
 8003150:	3201      	adds	r2, #1
 8003152:	005b      	lsls	r3, r3, #1
 8003154:	fbb0 f0f2 	udiv	r0, r0, r2
 8003158:	fbb0 f0f3 	udiv	r0, r0, r3
 800315c:	4770      	bx	lr
 800315e:	4805      	ldr	r0, [pc, #20]	; (8003174 <HAL_RCC_GetSysClockFreq+0x98>)
 8003160:	e7eb      	b.n	800313a <HAL_RCC_GetSysClockFreq+0x5e>
 8003162:	4804      	ldr	r0, [pc, #16]	; (8003174 <HAL_RCC_GetSysClockFreq+0x98>)
 8003164:	4770      	bx	lr
 8003166:	bf00      	nop
 8003168:	40021000 	.word	0x40021000
 800316c:	08009848 	.word	0x08009848
 8003170:	007a1200 	.word	0x007a1200
 8003174:	00f42400 	.word	0x00f42400

08003178 <HAL_RCC_OscConfig>:
 8003178:	e92d 43f7 	stmdb	sp!, {r0, r1, r2, r4, r5, r6, r7, r8, r9, lr}
 800317c:	4605      	mov	r5, r0
 800317e:	b918      	cbnz	r0, 8003188 <HAL_RCC_OscConfig+0x10>
 8003180:	2001      	movs	r0, #1
 8003182:	b003      	add	sp, #12
 8003184:	e8bd 83f0 	ldmia.w	sp!, {r4, r5, r6, r7, r8, r9, pc}
 8003188:	4ca7      	ldr	r4, [pc, #668]	; (8003428 <HAL_RCC_OscConfig+0x2b0>)
 800318a:	6803      	ldr	r3, [r0, #0]
 800318c:	68a6      	ldr	r6, [r4, #8]
 800318e:	68e7      	ldr	r7, [r4, #12]
 8003190:	06d8      	lsls	r0, r3, #27
 8003192:	f006 060c 	and.w	r6, r6, #12
 8003196:	f007 0703 	and.w	r7, r7, #3
 800319a:	d53d      	bpl.n	8003218 <HAL_RCC_OscConfig+0xa0>
 800319c:	b11e      	cbz	r6, 80031a6 <HAL_RCC_OscConfig+0x2e>
 800319e:	2e0c      	cmp	r6, #12
 80031a0:	d166      	bne.n	8003270 <HAL_RCC_OscConfig+0xf8>
 80031a2:	2f01      	cmp	r7, #1
 80031a4:	d164      	bne.n	8003270 <HAL_RCC_OscConfig+0xf8>
 80031a6:	6823      	ldr	r3, [r4, #0]
 80031a8:	0799      	lsls	r1, r3, #30
 80031aa:	d502      	bpl.n	80031b2 <HAL_RCC_OscConfig+0x3a>
 80031ac:	69ab      	ldr	r3, [r5, #24]
 80031ae:	2b00      	cmp	r3, #0
 80031b0:	d0e6      	beq.n	8003180 <HAL_RCC_OscConfig+0x8>
 80031b2:	6823      	ldr	r3, [r4, #0]
 80031b4:	6a28      	ldr	r0, [r5, #32]
 80031b6:	071a      	lsls	r2, r3, #28
 80031b8:	bf56      	itet	pl
 80031ba:	f8d4 3094 	ldrpl.w	r3, [r4, #148]	; 0x94
 80031be:	6823      	ldrmi	r3, [r4, #0]
 80031c0:	091b      	lsrpl	r3, r3, #4
 80031c2:	f003 03f0 	and.w	r3, r3, #240	; 0xf0
 80031c6:	4298      	cmp	r0, r3
 80031c8:	d93b      	bls.n	8003242 <HAL_RCC_OscConfig+0xca>
 80031ca:	f7ff ff45 	bl	8003058 <RCC_SetFlashLatencyFromMSIRange>
 80031ce:	2800      	cmp	r0, #0
 80031d0:	d1d6      	bne.n	8003180 <HAL_RCC_OscConfig+0x8>
 80031d2:	6823      	ldr	r3, [r4, #0]
 80031d4:	f043 0308 	orr.w	r3, r3, #8
 80031d8:	6023      	str	r3, [r4, #0]
 80031da:	6823      	ldr	r3, [r4, #0]
 80031dc:	6a2a      	ldr	r2, [r5, #32]
 80031de:	f023 03f0 	bic.w	r3, r3, #240	; 0xf0
 80031e2:	4313      	orrs	r3, r2
 80031e4:	6023      	str	r3, [r4, #0]
 80031e6:	6863      	ldr	r3, [r4, #4]
 80031e8:	69ea      	ldr	r2, [r5, #28]
 80031ea:	f423 437f 	bic.w	r3, r3, #65280	; 0xff00
 80031ee:	ea43 2302 	orr.w	r3, r3, r2, lsl #8
 80031f2:	6063      	str	r3, [r4, #4]
 80031f4:	f7ff ff72 	bl	80030dc <HAL_RCC_GetSysClockFreq>
 80031f8:	68a3      	ldr	r3, [r4, #8]
 80031fa:	4a8c      	ldr	r2, [pc, #560]	; (800342c <HAL_RCC_OscConfig+0x2b4>)
 80031fc:	f3c3 1303 	ubfx	r3, r3, #4, #4
 8003200:	5cd3      	ldrb	r3, [r2, r3]
 8003202:	f003 031f 	and.w	r3, r3, #31
 8003206:	40d8      	lsrs	r0, r3
 8003208:	4b89      	ldr	r3, [pc, #548]	; (8003430 <HAL_RCC_OscConfig+0x2b8>)
 800320a:	6018      	str	r0, [r3, #0]
 800320c:	4b89      	ldr	r3, [pc, #548]	; (8003434 <HAL_RCC_OscConfig+0x2bc>)
 800320e:	6818      	ldr	r0, [r3, #0]
 8003210:	f7ff f8fc 	bl	800240c <HAL_InitTick>
 8003214:	2800      	cmp	r0, #0
 8003216:	d1b4      	bne.n	8003182 <HAL_RCC_OscConfig+0xa>
 8003218:	682b      	ldr	r3, [r5, #0]
 800321a:	07d9      	lsls	r1, r3, #31
 800321c:	d45f      	bmi.n	80032de <HAL_RCC_OscConfig+0x166>
 800321e:	682b      	ldr	r3, [r5, #0]
 8003220:	079a      	lsls	r2, r3, #30
 8003222:	f100 809e 	bmi.w	8003362 <HAL_RCC_OscConfig+0x1ea>
 8003226:	682b      	ldr	r3, [r5, #0]
 8003228:	0719      	lsls	r1, r3, #28
 800322a:	f100 80d2 	bmi.w	80033d2 <HAL_RCC_OscConfig+0x25a>
 800322e:	682b      	ldr	r3, [r5, #0]
 8003230:	075a      	lsls	r2, r3, #29
 8003232:	f100 8101 	bmi.w	8003438 <HAL_RCC_OscConfig+0x2c0>
 8003236:	6aab      	ldr	r3, [r5, #40]	; 0x28
 8003238:	2b00      	cmp	r3, #0
 800323a:	f040 816a 	bne.w	8003512 <HAL_RCC_OscConfig+0x39a>
 800323e:	2000      	movs	r0, #0
 8003240:	e79f      	b.n	8003182 <HAL_RCC_OscConfig+0xa>
 8003242:	6823      	ldr	r3, [r4, #0]
 8003244:	f043 0308 	orr.w	r3, r3, #8
 8003248:	6023      	str	r3, [r4, #0]
 800324a:	6823      	ldr	r3, [r4, #0]
 800324c:	f023 03f0 	bic.w	r3, r3, #240	; 0xf0
 8003250:	4303      	orrs	r3, r0
 8003252:	6023      	str	r3, [r4, #0]
 8003254:	6863      	ldr	r3, [r4, #4]
 8003256:	69ea      	ldr	r2, [r5, #28]
 8003258:	f423 437f 	bic.w	r3, r3, #65280	; 0xff00
 800325c:	ea43 2302 	orr.w	r3, r3, r2, lsl #8
 8003260:	6063      	str	r3, [r4, #4]
 8003262:	2e00      	cmp	r6, #0
 8003264:	d1c6      	bne.n	80031f4 <HAL_RCC_OscConfig+0x7c>
 8003266:	f7ff fef7 	bl	8003058 <RCC_SetFlashLatencyFromMSIRange>
 800326a:	2800      	cmp	r0, #0
 800326c:	d0c2      	beq.n	80031f4 <HAL_RCC_OscConfig+0x7c>
 800326e:	e787      	b.n	8003180 <HAL_RCC_OscConfig+0x8>
 8003270:	69ab      	ldr	r3, [r5, #24]
 8003272:	b31b      	cbz	r3, 80032bc <HAL_RCC_OscConfig+0x144>
 8003274:	6823      	ldr	r3, [r4, #0]
 8003276:	f043 0301 	orr.w	r3, r3, #1
 800327a:	6023      	str	r3, [r4, #0]
 800327c:	f7ff f908 	bl	8002490 <HAL_GetTick>
 8003280:	4680      	mov	r8, r0
 8003282:	6823      	ldr	r3, [r4, #0]
 8003284:	079b      	lsls	r3, r3, #30
 8003286:	d511      	bpl.n	80032ac <HAL_RCC_OscConfig+0x134>
 8003288:	6823      	ldr	r3, [r4, #0]
 800328a:	f043 0308 	orr.w	r3, r3, #8
 800328e:	6023      	str	r3, [r4, #0]
 8003290:	6823      	ldr	r3, [r4, #0]
 8003292:	6a2a      	ldr	r2, [r5, #32]
 8003294:	f023 03f0 	bic.w	r3, r3, #240	; 0xf0
 8003298:	4313      	orrs	r3, r2
 800329a:	6023      	str	r3, [r4, #0]
 800329c:	6863      	ldr	r3, [r4, #4]
 800329e:	69ea      	ldr	r2, [r5, #28]
 80032a0:	f423 437f 	bic.w	r3, r3, #65280	; 0xff00
 80032a4:	ea43 2302 	orr.w	r3, r3, r2, lsl #8
 80032a8:	6063      	str	r3, [r4, #4]
 80032aa:	e7b5      	b.n	8003218 <HAL_RCC_OscConfig+0xa0>
 80032ac:	f7ff f8f0 	bl	8002490 <HAL_GetTick>
 80032b0:	eba0 0008 	sub.w	r0, r0, r8
 80032b4:	2802      	cmp	r0, #2
 80032b6:	d9e4      	bls.n	8003282 <HAL_RCC_OscConfig+0x10a>
 80032b8:	2003      	movs	r0, #3
 80032ba:	e762      	b.n	8003182 <HAL_RCC_OscConfig+0xa>
 80032bc:	6823      	ldr	r3, [r4, #0]
 80032be:	f023 0301 	bic.w	r3, r3, #1
 80032c2:	6023      	str	r3, [r4, #0]
 80032c4:	f7ff f8e4 	bl	8002490 <HAL_GetTick>
 80032c8:	4680      	mov	r8, r0
 80032ca:	6823      	ldr	r3, [r4, #0]
 80032cc:	0798      	lsls	r0, r3, #30
 80032ce:	d5a3      	bpl.n	8003218 <HAL_RCC_OscConfig+0xa0>
 80032d0:	f7ff f8de 	bl	8002490 <HAL_GetTick>
 80032d4:	eba0 0008 	sub.w	r0, r0, r8
 80032d8:	2802      	cmp	r0, #2
 80032da:	d9f6      	bls.n	80032ca <HAL_RCC_OscConfig+0x152>
 80032dc:	e7ec      	b.n	80032b8 <HAL_RCC_OscConfig+0x140>
 80032de:	2e08      	cmp	r6, #8
 80032e0:	d003      	beq.n	80032ea <HAL_RCC_OscConfig+0x172>
 80032e2:	2e0c      	cmp	r6, #12
 80032e4:	d108      	bne.n	80032f8 <HAL_RCC_OscConfig+0x180>
 80032e6:	2f03      	cmp	r7, #3
 80032e8:	d106      	bne.n	80032f8 <HAL_RCC_OscConfig+0x180>
 80032ea:	6823      	ldr	r3, [r4, #0]
 80032ec:	039b      	lsls	r3, r3, #14
 80032ee:	d596      	bpl.n	800321e <HAL_RCC_OscConfig+0xa6>
 80032f0:	686b      	ldr	r3, [r5, #4]
 80032f2:	2b00      	cmp	r3, #0
 80032f4:	d193      	bne.n	800321e <HAL_RCC_OscConfig+0xa6>
 80032f6:	e743      	b.n	8003180 <HAL_RCC_OscConfig+0x8>
 80032f8:	686b      	ldr	r3, [r5, #4]
 80032fa:	f5b3 3f80 	cmp.w	r3, #65536	; 0x10000
 80032fe:	d110      	bne.n	8003322 <HAL_RCC_OscConfig+0x1aa>
 8003300:	6823      	ldr	r3, [r4, #0]
 8003302:	f443 3380 	orr.w	r3, r3, #65536	; 0x10000
 8003306:	6023      	str	r3, [r4, #0]
 8003308:	f7ff f8c2 	bl	8002490 <HAL_GetTick>
 800330c:	4680      	mov	r8, r0
 800330e:	6823      	ldr	r3, [r4, #0]
 8003310:	0398      	lsls	r0, r3, #14
 8003312:	d484      	bmi.n	800321e <HAL_RCC_OscConfig+0xa6>
 8003314:	f7ff f8bc 	bl	8002490 <HAL_GetTick>
 8003318:	eba0 0008 	sub.w	r0, r0, r8
 800331c:	2864      	cmp	r0, #100	; 0x64
 800331e:	d9f6      	bls.n	800330e <HAL_RCC_OscConfig+0x196>
 8003320:	e7ca      	b.n	80032b8 <HAL_RCC_OscConfig+0x140>
 8003322:	f5b3 2fa0 	cmp.w	r3, #327680	; 0x50000
 8003326:	d104      	bne.n	8003332 <HAL_RCC_OscConfig+0x1ba>
 8003328:	6823      	ldr	r3, [r4, #0]
 800332a:	f443 2380 	orr.w	r3, r3, #262144	; 0x40000
 800332e:	6023      	str	r3, [r4, #0]
 8003330:	e7e6      	b.n	8003300 <HAL_RCC_OscConfig+0x188>
 8003332:	6822      	ldr	r2, [r4, #0]
 8003334:	f422 3280 	bic.w	r2, r2, #65536	; 0x10000
 8003338:	6022      	str	r2, [r4, #0]
 800333a:	6822      	ldr	r2, [r4, #0]
 800333c:	f422 2280 	bic.w	r2, r2, #262144	; 0x40000
 8003340:	6022      	str	r2, [r4, #0]
 8003342:	2b00      	cmp	r3, #0
 8003344:	d1e0      	bne.n	8003308 <HAL_RCC_OscConfig+0x190>
 8003346:	f7ff f8a3 	bl	8002490 <HAL_GetTick>
 800334a:	4680      	mov	r8, r0
 800334c:	6823      	ldr	r3, [r4, #0]
 800334e:	0399      	lsls	r1, r3, #14
 8003350:	f57f af65 	bpl.w	800321e <HAL_RCC_OscConfig+0xa6>
 8003354:	f7ff f89c 	bl	8002490 <HAL_GetTick>
 8003358:	eba0 0008 	sub.w	r0, r0, r8
 800335c:	2864      	cmp	r0, #100	; 0x64
 800335e:	d9f5      	bls.n	800334c <HAL_RCC_OscConfig+0x1d4>
 8003360:	e7aa      	b.n	80032b8 <HAL_RCC_OscConfig+0x140>
 8003362:	2e04      	cmp	r6, #4
 8003364:	d003      	beq.n	800336e <HAL_RCC_OscConfig+0x1f6>
 8003366:	2e0c      	cmp	r6, #12
 8003368:	d110      	bne.n	800338c <HAL_RCC_OscConfig+0x214>
 800336a:	2f02      	cmp	r7, #2
 800336c:	d10e      	bne.n	800338c <HAL_RCC_OscConfig+0x214>
 800336e:	6823      	ldr	r3, [r4, #0]
 8003370:	055a      	lsls	r2, r3, #21
 8003372:	d503      	bpl.n	800337c <HAL_RCC_OscConfig+0x204>
 8003374:	68eb      	ldr	r3, [r5, #12]
 8003376:	2b00      	cmp	r3, #0
 8003378:	f43f af02 	beq.w	8003180 <HAL_RCC_OscConfig+0x8>
 800337c:	6863      	ldr	r3, [r4, #4]
 800337e:	692a      	ldr	r2, [r5, #16]
 8003380:	f023 53f8 	bic.w	r3, r3, #520093696	; 0x1f000000
 8003384:	ea43 6302 	orr.w	r3, r3, r2, lsl #24
 8003388:	6063      	str	r3, [r4, #4]
 800338a:	e74c      	b.n	8003226 <HAL_RCC_OscConfig+0xae>
 800338c:	68eb      	ldr	r3, [r5, #12]
 800338e:	b17b      	cbz	r3, 80033b0 <HAL_RCC_OscConfig+0x238>
 8003390:	6823      	ldr	r3, [r4, #0]
 8003392:	f443 7380 	orr.w	r3, r3, #256	; 0x100
 8003396:	6023      	str	r3, [r4, #0]
 8003398:	f7ff f87a 	bl	8002490 <HAL_GetTick>
 800339c:	4607      	mov	r7, r0
 800339e:	6823      	ldr	r3, [r4, #0]
 80033a0:	055b      	lsls	r3, r3, #21
 80033a2:	d4eb      	bmi.n	800337c <HAL_RCC_OscConfig+0x204>
 80033a4:	f7ff f874 	bl	8002490 <HAL_GetTick>
 80033a8:	1bc0      	subs	r0, r0, r7
 80033aa:	2802      	cmp	r0, #2
 80033ac:	d9f7      	bls.n	800339e <HAL_RCC_OscConfig+0x226>
 80033ae:	e783      	b.n	80032b8 <HAL_RCC_OscConfig+0x140>
 80033b0:	6823      	ldr	r3, [r4, #0]
 80033b2:	f423 7380 	bic.w	r3, r3, #256	; 0x100
 80033b6:	6023      	str	r3, [r4, #0]
 80033b8:	f7ff f86a 	bl	8002490 <HAL_GetTick>
 80033bc:	4607      	mov	r7, r0
 80033be:	6823      	ldr	r3, [r4, #0]
 80033c0:	0558      	lsls	r0, r3, #21
 80033c2:	f57f af30 	bpl.w	8003226 <HAL_RCC_OscConfig+0xae>
 80033c6:	f7ff f863 	bl	8002490 <HAL_GetTick>
 80033ca:	1bc0      	subs	r0, r0, r7
 80033cc:	2802      	cmp	r0, #2
 80033ce:	d9f6      	bls.n	80033be <HAL_RCC_OscConfig+0x246>
 80033d0:	e772      	b.n	80032b8 <HAL_RCC_OscConfig+0x140>
 80033d2:	696b      	ldr	r3, [r5, #20]
 80033d4:	b19b      	cbz	r3, 80033fe <HAL_RCC_OscConfig+0x286>
 80033d6:	f8d4 3094 	ldr.w	r3, [r4, #148]	; 0x94
 80033da:	f043 0301 	orr.w	r3, r3, #1
 80033de:	f8c4 3094 	str.w	r3, [r4, #148]	; 0x94
 80033e2:	f7ff f855 	bl	8002490 <HAL_GetTick>
 80033e6:	4607      	mov	r7, r0
 80033e8:	f8d4 3094 	ldr.w	r3, [r4, #148]	; 0x94
 80033ec:	079b      	lsls	r3, r3, #30
 80033ee:	f53f af1e 	bmi.w	800322e <HAL_RCC_OscConfig+0xb6>
 80033f2:	f7ff f84d 	bl	8002490 <HAL_GetTick>
 80033f6:	1bc0      	subs	r0, r0, r7
 80033f8:	2802      	cmp	r0, #2
 80033fa:	d9f5      	bls.n	80033e8 <HAL_RCC_OscConfig+0x270>
 80033fc:	e75c      	b.n	80032b8 <HAL_RCC_OscConfig+0x140>
 80033fe:	f8d4 3094 	ldr.w	r3, [r4, #148]	; 0x94
 8003402:	f023 0301 	bic.w	r3, r3, #1
 8003406:	f8c4 3094 	str.w	r3, [r4, #148]	; 0x94
 800340a:	f7ff f841 	bl	8002490 <HAL_GetTick>
 800340e:	4607      	mov	r7, r0
 8003410:	f8d4 3094 	ldr.w	r3, [r4, #148]	; 0x94
 8003414:	0798      	lsls	r0, r3, #30
 8003416:	f57f af0a 	bpl.w	800322e <HAL_RCC_OscConfig+0xb6>
 800341a:	f7ff f839 	bl	8002490 <HAL_GetTick>
 800341e:	1bc0      	subs	r0, r0, r7
 8003420:	2802      	cmp	r0, #2
 8003422:	d9f5      	bls.n	8003410 <HAL_RCC_OscConfig+0x298>
 8003424:	e748      	b.n	80032b8 <HAL_RCC_OscConfig+0x140>
 8003426:	bf00      	nop
 8003428:	40021000 	.word	0x40021000
 800342c:	0800982d 	.word	0x0800982d
 8003430:	20000000 	.word	0x20000000
 8003434:	20000008 	.word	0x20000008
 8003438:	6da3      	ldr	r3, [r4, #88]	; 0x58
 800343a:	00d9      	lsls	r1, r3, #3
 800343c:	d429      	bmi.n	8003492 <HAL_RCC_OscConfig+0x31a>
 800343e:	6da3      	ldr	r3, [r4, #88]	; 0x58
 8003440:	f043 5380 	orr.w	r3, r3, #268435456	; 0x10000000
 8003444:	65a3      	str	r3, [r4, #88]	; 0x58
 8003446:	6da3      	ldr	r3, [r4, #88]	; 0x58
 8003448:	f003 5380 	and.w	r3, r3, #268435456	; 0x10000000
 800344c:	9301      	str	r3, [sp, #4]
 800344e:	9b01      	ldr	r3, [sp, #4]
 8003450:	f04f 0801 	mov.w	r8, #1
 8003454:	4f89      	ldr	r7, [pc, #548]	; (800367c <HAL_RCC_OscConfig+0x504>)
 8003456:	683b      	ldr	r3, [r7, #0]
 8003458:	05da      	lsls	r2, r3, #23
 800345a:	d51d      	bpl.n	8003498 <HAL_RCC_OscConfig+0x320>
 800345c:	68ab      	ldr	r3, [r5, #8]
 800345e:	2b01      	cmp	r3, #1
 8003460:	d12b      	bne.n	80034ba <HAL_RCC_OscConfig+0x342>
 8003462:	f8d4 3090 	ldr.w	r3, [r4, #144]	; 0x90
 8003466:	f043 0301 	orr.w	r3, r3, #1
 800346a:	f8c4 3090 	str.w	r3, [r4, #144]	; 0x90
 800346e:	f7ff f80f 	bl	8002490 <HAL_GetTick>
 8003472:	f241 3988 	movw	r9, #5000	; 0x1388
 8003476:	4607      	mov	r7, r0
 8003478:	f8d4 3090 	ldr.w	r3, [r4, #144]	; 0x90
 800347c:	0798      	lsls	r0, r3, #30
 800347e:	d542      	bpl.n	8003506 <HAL_RCC_OscConfig+0x38e>
 8003480:	f1b8 0f00 	cmp.w	r8, #0
 8003484:	f43f aed7 	beq.w	8003236 <HAL_RCC_OscConfig+0xbe>
 8003488:	6da3      	ldr	r3, [r4, #88]	; 0x58
 800348a:	f023 5380 	bic.w	r3, r3, #268435456	; 0x10000000
 800348e:	65a3      	str	r3, [r4, #88]	; 0x58
 8003490:	e6d1      	b.n	8003236 <HAL_RCC_OscConfig+0xbe>
 8003492:	f04f 0800 	mov.w	r8, #0
 8003496:	e7dd      	b.n	8003454 <HAL_RCC_OscConfig+0x2dc>
 8003498:	683b      	ldr	r3, [r7, #0]
 800349a:	f443 7380 	orr.w	r3, r3, #256	; 0x100
 800349e:	603b      	str	r3, [r7, #0]
 80034a0:	f7fe fff6 	bl	8002490 <HAL_GetTick>
 80034a4:	4681      	mov	r9, r0
 80034a6:	683b      	ldr	r3, [r7, #0]
 80034a8:	05db      	lsls	r3, r3, #23
 80034aa:	d4d7      	bmi.n	800345c <HAL_RCC_OscConfig+0x2e4>
 80034ac:	f7fe fff0 	bl	8002490 <HAL_GetTick>
 80034b0:	eba0 0009 	sub.w	r0, r0, r9
 80034b4:	2802      	cmp	r0, #2
 80034b6:	d9f6      	bls.n	80034a6 <HAL_RCC_OscConfig+0x32e>
 80034b8:	e6fe      	b.n	80032b8 <HAL_RCC_OscConfig+0x140>
 80034ba:	2b05      	cmp	r3, #5
 80034bc:	d106      	bne.n	80034cc <HAL_RCC_OscConfig+0x354>
 80034be:	f8d4 3090 	ldr.w	r3, [r4, #144]	; 0x90
 80034c2:	f043 0304 	orr.w	r3, r3, #4
 80034c6:	f8c4 3090 	str.w	r3, [r4, #144]	; 0x90
 80034ca:	e7ca      	b.n	8003462 <HAL_RCC_OscConfig+0x2ea>
 80034cc:	f8d4 2090 	ldr.w	r2, [r4, #144]	; 0x90
 80034d0:	f022 0201 	bic.w	r2, r2, #1
 80034d4:	f8c4 2090 	str.w	r2, [r4, #144]	; 0x90
 80034d8:	f8d4 2090 	ldr.w	r2, [r4, #144]	; 0x90
 80034dc:	f022 0204 	bic.w	r2, r2, #4
 80034e0:	f8c4 2090 	str.w	r2, [r4, #144]	; 0x90
 80034e4:	2b00      	cmp	r3, #0
 80034e6:	d1c2      	bne.n	800346e <HAL_RCC_OscConfig+0x2f6>
 80034e8:	f7fe ffd2 	bl	8002490 <HAL_GetTick>
 80034ec:	f241 3988 	movw	r9, #5000	; 0x1388
 80034f0:	4607      	mov	r7, r0
 80034f2:	f8d4 3090 	ldr.w	r3, [r4, #144]	; 0x90
 80034f6:	0799      	lsls	r1, r3, #30
 80034f8:	d5c2      	bpl.n	8003480 <HAL_RCC_OscConfig+0x308>
 80034fa:	f7fe ffc9 	bl	8002490 <HAL_GetTick>
 80034fe:	1bc0      	subs	r0, r0, r7
 8003500:	4548      	cmp	r0, r9
 8003502:	d9f6      	bls.n	80034f2 <HAL_RCC_OscConfig+0x37a>
 8003504:	e6d8      	b.n	80032b8 <HAL_RCC_OscConfig+0x140>
 8003506:	f7fe ffc3 	bl	8002490 <HAL_GetTick>
 800350a:	1bc0      	subs	r0, r0, r7
 800350c:	4548      	cmp	r0, r9
 800350e:	d9b3      	bls.n	8003478 <HAL_RCC_OscConfig+0x300>
 8003510:	e6d2      	b.n	80032b8 <HAL_RCC_OscConfig+0x140>
 8003512:	2b02      	cmp	r3, #2
 8003514:	f040 808f 	bne.w	8003636 <HAL_RCC_OscConfig+0x4be>
 8003518:	68e3      	ldr	r3, [r4, #12]
 800351a:	6aea      	ldr	r2, [r5, #44]	; 0x2c
 800351c:	f003 0103 	and.w	r1, r3, #3
 8003520:	4291      	cmp	r1, r2
 8003522:	d124      	bne.n	800356e <HAL_RCC_OscConfig+0x3f6>
 8003524:	6b29      	ldr	r1, [r5, #48]	; 0x30
 8003526:	f003 0270 	and.w	r2, r3, #112	; 0x70
 800352a:	3901      	subs	r1, #1
 800352c:	ebb2 1f01 	cmp.w	r2, r1, lsl #4
 8003530:	d11d      	bne.n	800356e <HAL_RCC_OscConfig+0x3f6>
 8003532:	6b69      	ldr	r1, [r5, #52]	; 0x34
 8003534:	f403 42fe 	and.w	r2, r3, #32512	; 0x7f00
 8003538:	ebb2 2f01 	cmp.w	r2, r1, lsl #8
 800353c:	d117      	bne.n	800356e <HAL_RCC_OscConfig+0x3f6>
 800353e:	6baa      	ldr	r2, [r5, #56]	; 0x38
 8003540:	3a07      	subs	r2, #7
 8003542:	f403 3100 	and.w	r1, r3, #131072	; 0x20000
 8003546:	bf18      	it	ne
 8003548:	2201      	movne	r2, #1
 800354a:	4291      	cmp	r1, r2
 800354c:	d10f      	bne.n	800356e <HAL_RCC_OscConfig+0x3f6>
 800354e:	6bea      	ldr	r2, [r5, #60]	; 0x3c
 8003550:	0852      	lsrs	r2, r2, #1
 8003552:	f403 01c0 	and.w	r1, r3, #6291456	; 0x600000
 8003556:	3a01      	subs	r2, #1
 8003558:	ebb1 5f42 	cmp.w	r1, r2, lsl #21
 800355c:	d107      	bne.n	800356e <HAL_RCC_OscConfig+0x3f6>
 800355e:	6c2a      	ldr	r2, [r5, #64]	; 0x40
 8003560:	0852      	lsrs	r2, r2, #1
 8003562:	f003 63c0 	and.w	r3, r3, #100663296	; 0x6000000
 8003566:	3a01      	subs	r2, #1
 8003568:	ebb3 6f42 	cmp.w	r3, r2, lsl #25
 800356c:	d04a      	beq.n	8003604 <HAL_RCC_OscConfig+0x48c>
 800356e:	2e0c      	cmp	r6, #12
 8003570:	f43f ae06 	beq.w	8003180 <HAL_RCC_OscConfig+0x8>
 8003574:	6823      	ldr	r3, [r4, #0]
 8003576:	015a      	lsls	r2, r3, #5
 8003578:	f53f ae02 	bmi.w	8003180 <HAL_RCC_OscConfig+0x8>
 800357c:	6823      	ldr	r3, [r4, #0]
 800357e:	00db      	lsls	r3, r3, #3
 8003580:	f53f adfe 	bmi.w	8003180 <HAL_RCC_OscConfig+0x8>
 8003584:	6823      	ldr	r3, [r4, #0]
 8003586:	f023 7380 	bic.w	r3, r3, #16777216	; 0x1000000
 800358a:	6023      	str	r3, [r4, #0]
 800358c:	f7fe ff80 	bl	8002490 <HAL_GetTick>
 8003590:	4606      	mov	r6, r0
 8003592:	6823      	ldr	r3, [r4, #0]
 8003594:	019f      	lsls	r7, r3, #6
 8003596:	d42f      	bmi.n	80035f8 <HAL_RCC_OscConfig+0x480>
 8003598:	68e2      	ldr	r2, [r4, #12]
 800359a:	4b39      	ldr	r3, [pc, #228]	; (8003680 <HAL_RCC_OscConfig+0x508>)
 800359c:	4013      	ands	r3, r2
 800359e:	6aea      	ldr	r2, [r5, #44]	; 0x2c
 80035a0:	4313      	orrs	r3, r2
 80035a2:	6b6a      	ldr	r2, [r5, #52]	; 0x34
 80035a4:	ea43 2302 	orr.w	r3, r3, r2, lsl #8
 80035a8:	6b2a      	ldr	r2, [r5, #48]	; 0x30
 80035aa:	3a01      	subs	r2, #1
 80035ac:	ea43 1302 	orr.w	r3, r3, r2, lsl #4
 80035b0:	6baa      	ldr	r2, [r5, #56]	; 0x38
 80035b2:	0912      	lsrs	r2, r2, #4
 80035b4:	ea43 4342 	orr.w	r3, r3, r2, lsl #17
 80035b8:	6bea      	ldr	r2, [r5, #60]	; 0x3c
 80035ba:	0852      	lsrs	r2, r2, #1
 80035bc:	3a01      	subs	r2, #1
 80035be:	ea43 5342 	orr.w	r3, r3, r2, lsl #21
 80035c2:	6c2a      	ldr	r2, [r5, #64]	; 0x40
 80035c4:	0852      	lsrs	r2, r2, #1
 80035c6:	3a01      	subs	r2, #1
 80035c8:	ea43 6342 	orr.w	r3, r3, r2, lsl #25
 80035cc:	60e3      	str	r3, [r4, #12]
 80035ce:	6823      	ldr	r3, [r4, #0]
 80035d0:	f043 7380 	orr.w	r3, r3, #16777216	; 0x1000000
 80035d4:	6023      	str	r3, [r4, #0]
 80035d6:	68e3      	ldr	r3, [r4, #12]
 80035d8:	f043 7380 	orr.w	r3, r3, #16777216	; 0x1000000
 80035dc:	60e3      	str	r3, [r4, #12]
 80035de:	f7fe ff57 	bl	8002490 <HAL_GetTick>
 80035e2:	4605      	mov	r5, r0
 80035e4:	6823      	ldr	r3, [r4, #0]
 80035e6:	0198      	lsls	r0, r3, #6
 80035e8:	f53f ae29 	bmi.w	800323e <HAL_RCC_OscConfig+0xc6>
 80035ec:	f7fe ff50 	bl	8002490 <HAL_GetTick>
 80035f0:	1b40      	subs	r0, r0, r5
 80035f2:	2802      	cmp	r0, #2
 80035f4:	d9f6      	bls.n	80035e4 <HAL_RCC_OscConfig+0x46c>
 80035f6:	e65f      	b.n	80032b8 <HAL_RCC_OscConfig+0x140>
 80035f8:	f7fe ff4a 	bl	8002490 <HAL_GetTick>
 80035fc:	1b80      	subs	r0, r0, r6
 80035fe:	2802      	cmp	r0, #2
 8003600:	d9c7      	bls.n	8003592 <HAL_RCC_OscConfig+0x41a>
 8003602:	e659      	b.n	80032b8 <HAL_RCC_OscConfig+0x140>
 8003604:	6823      	ldr	r3, [r4, #0]
 8003606:	0199      	lsls	r1, r3, #6
 8003608:	f53f ae19 	bmi.w	800323e <HAL_RCC_OscConfig+0xc6>
 800360c:	6823      	ldr	r3, [r4, #0]
 800360e:	f043 7380 	orr.w	r3, r3, #16777216	; 0x1000000
 8003612:	6023      	str	r3, [r4, #0]
 8003614:	68e3      	ldr	r3, [r4, #12]
 8003616:	f043 7380 	orr.w	r3, r3, #16777216	; 0x1000000
 800361a:	60e3      	str	r3, [r4, #12]
 800361c:	f7fe ff38 	bl	8002490 <HAL_GetTick>
 8003620:	4605      	mov	r5, r0
 8003622:	6823      	ldr	r3, [r4, #0]
 8003624:	019a      	lsls	r2, r3, #6
 8003626:	f53f ae0a 	bmi.w	800323e <HAL_RCC_OscConfig+0xc6>
 800362a:	f7fe ff31 	bl	8002490 <HAL_GetTick>
 800362e:	1b40      	subs	r0, r0, r5
 8003630:	2802      	cmp	r0, #2
 8003632:	d9f6      	bls.n	8003622 <HAL_RCC_OscConfig+0x4aa>
 8003634:	e640      	b.n	80032b8 <HAL_RCC_OscConfig+0x140>
 8003636:	2e0c      	cmp	r6, #12
 8003638:	f43f ada2 	beq.w	8003180 <HAL_RCC_OscConfig+0x8>
 800363c:	6823      	ldr	r3, [r4, #0]
 800363e:	f023 7380 	bic.w	r3, r3, #16777216	; 0x1000000
 8003642:	6023      	str	r3, [r4, #0]
 8003644:	6823      	ldr	r3, [r4, #0]
 8003646:	f013 5f20 	tst.w	r3, #671088640	; 0x28000000
 800364a:	bf02      	ittt	eq
 800364c:	68e3      	ldreq	r3, [r4, #12]
 800364e:	f023 0303 	biceq.w	r3, r3, #3
 8003652:	60e3      	streq	r3, [r4, #12]
 8003654:	68e3      	ldr	r3, [r4, #12]
 8003656:	f023 7388 	bic.w	r3, r3, #17825792	; 0x1100000
 800365a:	f423 3380 	bic.w	r3, r3, #65536	; 0x10000
 800365e:	60e3      	str	r3, [r4, #12]
 8003660:	f7fe ff16 	bl	8002490 <HAL_GetTick>
 8003664:	4605      	mov	r5, r0
 8003666:	6823      	ldr	r3, [r4, #0]
 8003668:	019b      	lsls	r3, r3, #6
 800366a:	f57f ade8 	bpl.w	800323e <HAL_RCC_OscConfig+0xc6>
 800366e:	f7fe ff0f 	bl	8002490 <HAL_GetTick>
 8003672:	1b40      	subs	r0, r0, r5
 8003674:	2802      	cmp	r0, #2
 8003676:	d9f6      	bls.n	8003666 <HAL_RCC_OscConfig+0x4ee>
 8003678:	e61e      	b.n	80032b8 <HAL_RCC_OscConfig+0x140>
 800367a:	bf00      	nop
 800367c:	40007000 	.word	0x40007000
 8003680:	f99d808c 	.word	0xf99d808c

08003684 <HAL_RCC_ClockConfig>:
 8003684:	e92d 41f0 	stmdb	sp!, {r4, r5, r6, r7, r8, lr}
 8003688:	460e      	mov	r6, r1
 800368a:	4604      	mov	r4, r0
 800368c:	b910      	cbnz	r0, 8003694 <HAL_RCC_ClockConfig+0x10>
 800368e:	2001      	movs	r0, #1
 8003690:	e8bd 81f0 	ldmia.w	sp!, {r4, r5, r6, r7, r8, pc}
 8003694:	4a40      	ldr	r2, [pc, #256]	; (8003798 <HAL_RCC_ClockConfig+0x114>)
 8003696:	6813      	ldr	r3, [r2, #0]
 8003698:	f003 0307 	and.w	r3, r3, #7
 800369c:	428b      	cmp	r3, r1
 800369e:	d32a      	bcc.n	80036f6 <HAL_RCC_ClockConfig+0x72>
 80036a0:	6823      	ldr	r3, [r4, #0]
 80036a2:	07d9      	lsls	r1, r3, #31
 80036a4:	d432      	bmi.n	800370c <HAL_RCC_ClockConfig+0x88>
 80036a6:	6821      	ldr	r1, [r4, #0]
 80036a8:	078a      	lsls	r2, r1, #30
 80036aa:	d45b      	bmi.n	8003764 <HAL_RCC_ClockConfig+0xe0>
 80036ac:	4a3a      	ldr	r2, [pc, #232]	; (8003798 <HAL_RCC_ClockConfig+0x114>)
 80036ae:	6813      	ldr	r3, [r2, #0]
 80036b0:	f003 0307 	and.w	r3, r3, #7
 80036b4:	42b3      	cmp	r3, r6
 80036b6:	d85d      	bhi.n	8003774 <HAL_RCC_ClockConfig+0xf0>
 80036b8:	f011 0f04 	tst.w	r1, #4
 80036bc:	4d37      	ldr	r5, [pc, #220]	; (800379c <HAL_RCC_ClockConfig+0x118>)
 80036be:	d164      	bne.n	800378a <HAL_RCC_ClockConfig+0x106>
 80036c0:	070b      	lsls	r3, r1, #28
 80036c2:	d506      	bpl.n	80036d2 <HAL_RCC_ClockConfig+0x4e>
 80036c4:	68ab      	ldr	r3, [r5, #8]
 80036c6:	6922      	ldr	r2, [r4, #16]
 80036c8:	f423 5360 	bic.w	r3, r3, #14336	; 0x3800
 80036cc:	ea43 03c2 	orr.w	r3, r3, r2, lsl #3
 80036d0:	60ab      	str	r3, [r5, #8]
 80036d2:	f7ff fd03 	bl	80030dc <HAL_RCC_GetSysClockFreq>
 80036d6:	68ab      	ldr	r3, [r5, #8]
 80036d8:	4a31      	ldr	r2, [pc, #196]	; (80037a0 <HAL_RCC_ClockConfig+0x11c>)
 80036da:	f3c3 1303 	ubfx	r3, r3, #4, #4
 80036de:	e8bd 41f0 	ldmia.w	sp!, {r4, r5, r6, r7, r8, lr}
 80036e2:	5cd3      	ldrb	r3, [r2, r3]
 80036e4:	f003 031f 	and.w	r3, r3, #31
 80036e8:	40d8      	lsrs	r0, r3
 80036ea:	4b2e      	ldr	r3, [pc, #184]	; (80037a4 <HAL_RCC_ClockConfig+0x120>)
 80036ec:	6018      	str	r0, [r3, #0]
 80036ee:	4b2e      	ldr	r3, [pc, #184]	; (80037a8 <HAL_RCC_ClockConfig+0x124>)
 80036f0:	6818      	ldr	r0, [r3, #0]
 80036f2:	f7fe be8b 	b.w	800240c <HAL_InitTick>
 80036f6:	6813      	ldr	r3, [r2, #0]
 80036f8:	f023 0307 	bic.w	r3, r3, #7
 80036fc:	430b      	orrs	r3, r1
 80036fe:	6013      	str	r3, [r2, #0]
 8003700:	6813      	ldr	r3, [r2, #0]
 8003702:	f003 0307 	and.w	r3, r3, #7
 8003706:	428b      	cmp	r3, r1
 8003708:	d1c1      	bne.n	800368e <HAL_RCC_ClockConfig+0xa>
 800370a:	e7c9      	b.n	80036a0 <HAL_RCC_ClockConfig+0x1c>
 800370c:	6862      	ldr	r2, [r4, #4]
 800370e:	4d23      	ldr	r5, [pc, #140]	; (800379c <HAL_RCC_ClockConfig+0x118>)
 8003710:	2a03      	cmp	r2, #3
 8003712:	682b      	ldr	r3, [r5, #0]
 8003714:	d11a      	bne.n	800374c <HAL_RCC_ClockConfig+0xc8>
 8003716:	f013 7f00 	tst.w	r3, #33554432	; 0x2000000
 800371a:	d0b8      	beq.n	800368e <HAL_RCC_ClockConfig+0xa>
 800371c:	68ab      	ldr	r3, [r5, #8]
 800371e:	f023 0303 	bic.w	r3, r3, #3
 8003722:	4313      	orrs	r3, r2
 8003724:	60ab      	str	r3, [r5, #8]
 8003726:	f7fe feb3 	bl	8002490 <HAL_GetTick>
 800372a:	f241 3888 	movw	r8, #5000	; 0x1388
 800372e:	4607      	mov	r7, r0
 8003730:	68ab      	ldr	r3, [r5, #8]
 8003732:	6862      	ldr	r2, [r4, #4]
 8003734:	f003 030c 	and.w	r3, r3, #12
 8003738:	ebb3 0f82 	cmp.w	r3, r2, lsl #2
 800373c:	d0b3      	beq.n	80036a6 <HAL_RCC_ClockConfig+0x22>
 800373e:	f7fe fea7 	bl	8002490 <HAL_GetTick>
 8003742:	1bc0      	subs	r0, r0, r7
 8003744:	4540      	cmp	r0, r8
 8003746:	d9f3      	bls.n	8003730 <HAL_RCC_ClockConfig+0xac>
 8003748:	2003      	movs	r0, #3
 800374a:	e7a1      	b.n	8003690 <HAL_RCC_ClockConfig+0xc>
 800374c:	2a02      	cmp	r2, #2
 800374e:	d102      	bne.n	8003756 <HAL_RCC_ClockConfig+0xd2>
 8003750:	f413 3f00 	tst.w	r3, #131072	; 0x20000
 8003754:	e7e1      	b.n	800371a <HAL_RCC_ClockConfig+0x96>
 8003756:	b912      	cbnz	r2, 800375e <HAL_RCC_ClockConfig+0xda>
 8003758:	f013 0f02 	tst.w	r3, #2
 800375c:	e7dd      	b.n	800371a <HAL_RCC_ClockConfig+0x96>
 800375e:	f413 6f80 	tst.w	r3, #1024	; 0x400
 8003762:	e7da      	b.n	800371a <HAL_RCC_ClockConfig+0x96>
 8003764:	4a0d      	ldr	r2, [pc, #52]	; (800379c <HAL_RCC_ClockConfig+0x118>)
 8003766:	68a0      	ldr	r0, [r4, #8]
 8003768:	6893      	ldr	r3, [r2, #8]
 800376a:	f023 03f0 	bic.w	r3, r3, #240	; 0xf0
 800376e:	4303      	orrs	r3, r0
 8003770:	6093      	str	r3, [r2, #8]
 8003772:	e79b      	b.n	80036ac <HAL_RCC_ClockConfig+0x28>
 8003774:	6813      	ldr	r3, [r2, #0]
 8003776:	f023 0307 	bic.w	r3, r3, #7
 800377a:	4333      	orrs	r3, r6
 800377c:	6013      	str	r3, [r2, #0]
 800377e:	6813      	ldr	r3, [r2, #0]
 8003780:	f003 0307 	and.w	r3, r3, #7
 8003784:	42b3      	cmp	r3, r6
 8003786:	d182      	bne.n	800368e <HAL_RCC_ClockConfig+0xa>
 8003788:	e796      	b.n	80036b8 <HAL_RCC_ClockConfig+0x34>
 800378a:	68ab      	ldr	r3, [r5, #8]
 800378c:	68e2      	ldr	r2, [r4, #12]
 800378e:	f423 63e0 	bic.w	r3, r3, #1792	; 0x700
 8003792:	4313      	orrs	r3, r2
 8003794:	60ab      	str	r3, [r5, #8]
 8003796:	e793      	b.n	80036c0 <HAL_RCC_ClockConfig+0x3c>
 8003798:	40022000 	.word	0x40022000
 800379c:	40021000 	.word	0x40021000
 80037a0:	0800982d 	.word	0x0800982d
 80037a4:	20000000 	.word	0x20000000
 80037a8:	20000008 	.word	0x20000008

080037ac <HAL_RCC_GetPCLK1Freq>:
 80037ac:	4b05      	ldr	r3, [pc, #20]	; (80037c4 <HAL_RCC_GetPCLK1Freq+0x18>)
 80037ae:	4a06      	ldr	r2, [pc, #24]	; (80037c8 <HAL_RCC_GetPCLK1Freq+0x1c>)
 80037b0:	689b      	ldr	r3, [r3, #8]
 80037b2:	f3c3 2302 	ubfx	r3, r3, #8, #3
 80037b6:	5cd3      	ldrb	r3, [r2, r3]
 80037b8:	4a04      	ldr	r2, [pc, #16]	; (80037cc <HAL_RCC_GetPCLK1Freq+0x20>)
 80037ba:	6810      	ldr	r0, [r2, #0]
 80037bc:	f003 031f 	and.w	r3, r3, #31
 80037c0:	40d8      	lsrs	r0, r3
 80037c2:	4770      	bx	lr
 80037c4:	40021000 	.word	0x40021000
 80037c8:	0800983d 	.word	0x0800983d
 80037cc:	20000000 	.word	0x20000000

080037d0 <HAL_RCC_GetPCLK2Freq>:
 80037d0:	4b05      	ldr	r3, [pc, #20]	; (80037e8 <HAL_RCC_GetPCLK2Freq+0x18>)
 80037d2:	4a06      	ldr	r2, [pc, #24]	; (80037ec <HAL_RCC_GetPCLK2Freq+0x1c>)
 80037d4:	689b      	ldr	r3, [r3, #8]
 80037d6:	f3c3 23c2 	ubfx	r3, r3, #11, #3
 80037da:	5cd3      	ldrb	r3, [r2, r3]
 80037dc:	4a04      	ldr	r2, [pc, #16]	; (80037f0 <HAL_RCC_GetPCLK2Freq+0x20>)
 80037de:	6810      	ldr	r0, [r2, #0]
 80037e0:	f003 031f 	and.w	r3, r3, #31
 80037e4:	40d8      	lsrs	r0, r3
 80037e6:	4770      	bx	lr
 80037e8:	40021000 	.word	0x40021000
 80037ec:	0800983d 	.word	0x0800983d
 80037f0:	20000000 	.word	0x20000000

080037f4 <RCCEx_PLLSAI1_Config>:
 80037f4:	b5f8      	push	{r3, r4, r5, r6, r7, lr}
 80037f6:	4b44      	ldr	r3, [pc, #272]	; (8003908 <RCCEx_PLLSAI1_Config+0x114>)
 80037f8:	68da      	ldr	r2, [r3, #12]
 80037fa:	f012 0f03 	tst.w	r2, #3
 80037fe:	4605      	mov	r5, r0
 8003800:	460e      	mov	r6, r1
 8003802:	6800      	ldr	r0, [r0, #0]
 8003804:	461c      	mov	r4, r3
 8003806:	d02a      	beq.n	800385e <RCCEx_PLLSAI1_Config+0x6a>
 8003808:	68da      	ldr	r2, [r3, #12]
 800380a:	f002 0203 	and.w	r2, r2, #3
 800380e:	4282      	cmp	r2, r0
 8003810:	d13c      	bne.n	800388c <RCCEx_PLLSAI1_Config+0x98>
 8003812:	2a00      	cmp	r2, #0
 8003814:	d03a      	beq.n	800388c <RCCEx_PLLSAI1_Config+0x98>
 8003816:	68db      	ldr	r3, [r3, #12]
 8003818:	686a      	ldr	r2, [r5, #4]
 800381a:	f3c3 1302 	ubfx	r3, r3, #4, #3
 800381e:	3301      	adds	r3, #1
 8003820:	4293      	cmp	r3, r2
 8003822:	d133      	bne.n	800388c <RCCEx_PLLSAI1_Config+0x98>
 8003824:	6823      	ldr	r3, [r4, #0]
 8003826:	f023 6380 	bic.w	r3, r3, #67108864	; 0x4000000
 800382a:	6023      	str	r3, [r4, #0]
 800382c:	f7fe fe30 	bl	8002490 <HAL_GetTick>
 8003830:	4607      	mov	r7, r0
 8003832:	6823      	ldr	r3, [r4, #0]
 8003834:	011a      	lsls	r2, r3, #4
 8003836:	d432      	bmi.n	800389e <RCCEx_PLLSAI1_Config+0xaa>
 8003838:	68ab      	ldr	r3, [r5, #8]
 800383a:	021f      	lsls	r7, r3, #8
 800383c:	2e00      	cmp	r6, #0
 800383e:	d035      	beq.n	80038ac <RCCEx_PLLSAI1_Config+0xb8>
 8003840:	2e01      	cmp	r6, #1
 8003842:	d14e      	bne.n	80038e2 <RCCEx_PLLSAI1_Config+0xee>
 8003844:	692a      	ldr	r2, [r5, #16]
 8003846:	6921      	ldr	r1, [r4, #16]
 8003848:	0852      	lsrs	r2, r2, #1
 800384a:	1e53      	subs	r3, r2, #1
 800384c:	f421 02c0 	bic.w	r2, r1, #6291456	; 0x600000
 8003850:	f422 42fe 	bic.w	r2, r2, #32512	; 0x7f00
 8003854:	433a      	orrs	r2, r7
 8003856:	ea42 5243 	orr.w	r2, r2, r3, lsl #21
 800385a:	6122      	str	r2, [r4, #16]
 800385c:	e031      	b.n	80038c2 <RCCEx_PLLSAI1_Config+0xce>
 800385e:	2802      	cmp	r0, #2
 8003860:	d010      	beq.n	8003884 <RCCEx_PLLSAI1_Config+0x90>
 8003862:	2803      	cmp	r0, #3
 8003864:	d014      	beq.n	8003890 <RCCEx_PLLSAI1_Config+0x9c>
 8003866:	2801      	cmp	r0, #1
 8003868:	d110      	bne.n	800388c <RCCEx_PLLSAI1_Config+0x98>
 800386a:	681b      	ldr	r3, [r3, #0]
 800386c:	079f      	lsls	r7, r3, #30
 800386e:	d51c      	bpl.n	80038aa <RCCEx_PLLSAI1_Config+0xb6>
 8003870:	68e3      	ldr	r3, [r4, #12]
 8003872:	686a      	ldr	r2, [r5, #4]
 8003874:	f023 0373 	bic.w	r3, r3, #115	; 0x73
 8003878:	3a01      	subs	r2, #1
 800387a:	4318      	orrs	r0, r3
 800387c:	ea40 1002 	orr.w	r0, r0, r2, lsl #4
 8003880:	60e0      	str	r0, [r4, #12]
 8003882:	e7cf      	b.n	8003824 <RCCEx_PLLSAI1_Config+0x30>
 8003884:	681b      	ldr	r3, [r3, #0]
 8003886:	f413 6f80 	tst.w	r3, #1024	; 0x400
 800388a:	d1f1      	bne.n	8003870 <RCCEx_PLLSAI1_Config+0x7c>
 800388c:	2001      	movs	r0, #1
 800388e:	e00c      	b.n	80038aa <RCCEx_PLLSAI1_Config+0xb6>
 8003890:	681a      	ldr	r2, [r3, #0]
 8003892:	0391      	lsls	r1, r2, #14
 8003894:	d4ec      	bmi.n	8003870 <RCCEx_PLLSAI1_Config+0x7c>
 8003896:	681b      	ldr	r3, [r3, #0]
 8003898:	f413 2f80 	tst.w	r3, #262144	; 0x40000
 800389c:	e7f5      	b.n	800388a <RCCEx_PLLSAI1_Config+0x96>
 800389e:	f7fe fdf7 	bl	8002490 <HAL_GetTick>
 80038a2:	1bc0      	subs	r0, r0, r7
 80038a4:	2802      	cmp	r0, #2
 80038a6:	d9c4      	bls.n	8003832 <RCCEx_PLLSAI1_Config+0x3e>
 80038a8:	2003      	movs	r0, #3
 80038aa:	bdf8      	pop	{r3, r4, r5, r6, r7, pc}
 80038ac:	6921      	ldr	r1, [r4, #16]
 80038ae:	68eb      	ldr	r3, [r5, #12]
 80038b0:	f421 311f 	bic.w	r1, r1, #162816	; 0x27c00
 80038b4:	f421 7140 	bic.w	r1, r1, #768	; 0x300
 80038b8:	091b      	lsrs	r3, r3, #4
 80038ba:	4339      	orrs	r1, r7
 80038bc:	ea41 4143 	orr.w	r1, r1, r3, lsl #17
 80038c0:	6121      	str	r1, [r4, #16]
 80038c2:	6823      	ldr	r3, [r4, #0]
 80038c4:	f043 6380 	orr.w	r3, r3, #67108864	; 0x4000000
 80038c8:	6023      	str	r3, [r4, #0]
 80038ca:	f7fe fde1 	bl	8002490 <HAL_GetTick>
 80038ce:	4606      	mov	r6, r0
 80038d0:	6823      	ldr	r3, [r4, #0]
 80038d2:	011b      	lsls	r3, r3, #4
 80038d4:	d512      	bpl.n	80038fc <RCCEx_PLLSAI1_Config+0x108>
 80038d6:	6923      	ldr	r3, [r4, #16]
 80038d8:	69aa      	ldr	r2, [r5, #24]
 80038da:	4313      	orrs	r3, r2
 80038dc:	6123      	str	r3, [r4, #16]
 80038de:	2000      	movs	r0, #0
 80038e0:	e7e3      	b.n	80038aa <RCCEx_PLLSAI1_Config+0xb6>
 80038e2:	696b      	ldr	r3, [r5, #20]
 80038e4:	6922      	ldr	r2, [r4, #16]
 80038e6:	085b      	lsrs	r3, r3, #1
 80038e8:	1e59      	subs	r1, r3, #1
 80038ea:	f022 63c0 	bic.w	r3, r2, #100663296	; 0x6000000
 80038ee:	f423 43fe 	bic.w	r3, r3, #32512	; 0x7f00
 80038f2:	433b      	orrs	r3, r7
 80038f4:	ea43 6341 	orr.w	r3, r3, r1, lsl #25
 80038f8:	6123      	str	r3, [r4, #16]
 80038fa:	e7e2      	b.n	80038c2 <RCCEx_PLLSAI1_Config+0xce>
 80038fc:	f7fe fdc8 	bl	8002490 <HAL_GetTick>
 8003900:	1b80      	subs	r0, r0, r6
 8003902:	2802      	cmp	r0, #2
 8003904:	d9e4      	bls.n	80038d0 <RCCEx_PLLSAI1_Config+0xdc>
 8003906:	e7cf      	b.n	80038a8 <RCCEx_PLLSAI1_Config+0xb4>
 8003908:	40021000 	.word	0x40021000

0800390c <RCCEx_PLLSAI2_Config>:
 800390c:	b5f8      	push	{r3, r4, r5, r6, r7, lr}
 800390e:	4b3c      	ldr	r3, [pc, #240]	; (8003a00 <RCCEx_PLLSAI2_Config+0xf4>)
 8003910:	68da      	ldr	r2, [r3, #12]
 8003912:	f012 0f03 	tst.w	r2, #3
 8003916:	4605      	mov	r5, r0
 8003918:	460e      	mov	r6, r1
 800391a:	6800      	ldr	r0, [r0, #0]
 800391c:	461c      	mov	r4, r3
 800391e:	d027      	beq.n	8003970 <RCCEx_PLLSAI2_Config+0x64>
 8003920:	68da      	ldr	r2, [r3, #12]
 8003922:	f002 0203 	and.w	r2, r2, #3
 8003926:	4282      	cmp	r2, r0
 8003928:	d139      	bne.n	800399e <RCCEx_PLLSAI2_Config+0x92>
 800392a:	2a00      	cmp	r2, #0
 800392c:	d037      	beq.n	800399e <RCCEx_PLLSAI2_Config+0x92>
 800392e:	68db      	ldr	r3, [r3, #12]
 8003930:	686a      	ldr	r2, [r5, #4]
 8003932:	f3c3 1302 	ubfx	r3, r3, #4, #3
 8003936:	3301      	adds	r3, #1
 8003938:	4293      	cmp	r3, r2
 800393a:	d130      	bne.n	800399e <RCCEx_PLLSAI2_Config+0x92>
 800393c:	6823      	ldr	r3, [r4, #0]
 800393e:	f023 5380 	bic.w	r3, r3, #268435456	; 0x10000000
 8003942:	6023      	str	r3, [r4, #0]
 8003944:	f7fe fda4 	bl	8002490 <HAL_GetTick>
 8003948:	4607      	mov	r7, r0
 800394a:	6823      	ldr	r3, [r4, #0]
 800394c:	009a      	lsls	r2, r3, #2
 800394e:	d42f      	bmi.n	80039b0 <RCCEx_PLLSAI2_Config+0xa4>
 8003950:	68ab      	ldr	r3, [r5, #8]
 8003952:	0218      	lsls	r0, r3, #8
 8003954:	b39e      	cbz	r6, 80039be <RCCEx_PLLSAI2_Config+0xb2>
 8003956:	6963      	ldr	r3, [r4, #20]
 8003958:	6929      	ldr	r1, [r5, #16]
 800395a:	f023 63c0 	bic.w	r3, r3, #100663296	; 0x6000000
 800395e:	0849      	lsrs	r1, r1, #1
 8003960:	f423 43fe 	bic.w	r3, r3, #32512	; 0x7f00
 8003964:	3901      	subs	r1, #1
 8003966:	4303      	orrs	r3, r0
 8003968:	ea43 6341 	orr.w	r3, r3, r1, lsl #25
 800396c:	6163      	str	r3, [r4, #20]
 800396e:	e031      	b.n	80039d4 <RCCEx_PLLSAI2_Config+0xc8>
 8003970:	2802      	cmp	r0, #2
 8003972:	d010      	beq.n	8003996 <RCCEx_PLLSAI2_Config+0x8a>
 8003974:	2803      	cmp	r0, #3
 8003976:	d014      	beq.n	80039a2 <RCCEx_PLLSAI2_Config+0x96>
 8003978:	2801      	cmp	r0, #1
 800397a:	d110      	bne.n	800399e <RCCEx_PLLSAI2_Config+0x92>
 800397c:	681b      	ldr	r3, [r3, #0]
 800397e:	079f      	lsls	r7, r3, #30
 8003980:	d51c      	bpl.n	80039bc <RCCEx_PLLSAI2_Config+0xb0>
 8003982:	68e3      	ldr	r3, [r4, #12]
 8003984:	686a      	ldr	r2, [r5, #4]
 8003986:	f023 0373 	bic.w	r3, r3, #115	; 0x73
 800398a:	3a01      	subs	r2, #1
 800398c:	4318      	orrs	r0, r3
 800398e:	ea40 1002 	orr.w	r0, r0, r2, lsl #4
 8003992:	60e0      	str	r0, [r4, #12]
 8003994:	e7d2      	b.n	800393c <RCCEx_PLLSAI2_Config+0x30>
 8003996:	681b      	ldr	r3, [r3, #0]
 8003998:	f413 6f80 	tst.w	r3, #1024	; 0x400
 800399c:	d1f1      	bne.n	8003982 <RCCEx_PLLSAI2_Config+0x76>
 800399e:	2001      	movs	r0, #1
 80039a0:	e00c      	b.n	80039bc <RCCEx_PLLSAI2_Config+0xb0>
 80039a2:	681a      	ldr	r2, [r3, #0]
 80039a4:	0391      	lsls	r1, r2, #14
 80039a6:	d4ec      	bmi.n	8003982 <RCCEx_PLLSAI2_Config+0x76>
 80039a8:	681b      	ldr	r3, [r3, #0]
 80039aa:	f413 2f80 	tst.w	r3, #262144	; 0x40000
 80039ae:	e7f5      	b.n	800399c <RCCEx_PLLSAI2_Config+0x90>
 80039b0:	f7fe fd6e 	bl	8002490 <HAL_GetTick>
 80039b4:	1bc0      	subs	r0, r0, r7
 80039b6:	2802      	cmp	r0, #2
 80039b8:	d9c7      	bls.n	800394a <RCCEx_PLLSAI2_Config+0x3e>
 80039ba:	2003      	movs	r0, #3
 80039bc:	bdf8      	pop	{r3, r4, r5, r6, r7, pc}
 80039be:	6962      	ldr	r2, [r4, #20]
 80039c0:	68eb      	ldr	r3, [r5, #12]
 80039c2:	f422 321f 	bic.w	r2, r2, #162816	; 0x27c00
 80039c6:	f422 7240 	bic.w	r2, r2, #768	; 0x300
 80039ca:	091b      	lsrs	r3, r3, #4
 80039cc:	4302      	orrs	r2, r0
 80039ce:	ea42 4243 	orr.w	r2, r2, r3, lsl #17
 80039d2:	6162      	str	r2, [r4, #20]
 80039d4:	6823      	ldr	r3, [r4, #0]
 80039d6:	f043 5380 	orr.w	r3, r3, #268435456	; 0x10000000
 80039da:	6023      	str	r3, [r4, #0]
 80039dc:	f7fe fd58 	bl	8002490 <HAL_GetTick>
 80039e0:	4606      	mov	r6, r0
 80039e2:	6823      	ldr	r3, [r4, #0]
 80039e4:	009b      	lsls	r3, r3, #2
 80039e6:	d505      	bpl.n	80039f4 <RCCEx_PLLSAI2_Config+0xe8>
 80039e8:	6963      	ldr	r3, [r4, #20]
 80039ea:	696a      	ldr	r2, [r5, #20]
 80039ec:	4313      	orrs	r3, r2
 80039ee:	6163      	str	r3, [r4, #20]
 80039f0:	2000      	movs	r0, #0
 80039f2:	e7e3      	b.n	80039bc <RCCEx_PLLSAI2_Config+0xb0>
 80039f4:	f7fe fd4c 	bl	8002490 <HAL_GetTick>
 80039f8:	1b80      	subs	r0, r0, r6
 80039fa:	2802      	cmp	r0, #2
 80039fc:	d9f1      	bls.n	80039e2 <RCCEx_PLLSAI2_Config+0xd6>
 80039fe:	e7dc      	b.n	80039ba <RCCEx_PLLSAI2_Config+0xae>
 8003a00:	40021000 	.word	0x40021000

08003a04 <HAL_RCCEx_PeriphCLKConfig>:
 8003a04:	e92d 47f3 	stmdb	sp!, {r0, r1, r4, r5, r6, r7, r8, r9, sl, lr}
 8003a08:	6806      	ldr	r6, [r0, #0]
 8003a0a:	f416 6600 	ands.w	r6, r6, #2048	; 0x800
 8003a0e:	4604      	mov	r4, r0
 8003a10:	d024      	beq.n	8003a5c <HAL_RCCEx_PeriphCLKConfig+0x58>
 8003a12:	6e41      	ldr	r1, [r0, #100]	; 0x64
 8003a14:	f5b1 0f80 	cmp.w	r1, #4194304	; 0x400000
 8003a18:	d02c      	beq.n	8003a74 <HAL_RCCEx_PeriphCLKConfig+0x70>
 8003a1a:	d802      	bhi.n	8003a22 <HAL_RCCEx_PeriphCLKConfig+0x1e>
 8003a1c:	b1c1      	cbz	r1, 8003a50 <HAL_RCCEx_PeriphCLKConfig+0x4c>
 8003a1e:	2601      	movs	r6, #1
 8003a20:	e01c      	b.n	8003a5c <HAL_RCCEx_PeriphCLKConfig+0x58>
 8003a22:	f5b1 0f00 	cmp.w	r1, #8388608	; 0x800000
 8003a26:	d00d      	beq.n	8003a44 <HAL_RCCEx_PeriphCLKConfig+0x40>
 8003a28:	f5b1 0f40 	cmp.w	r1, #12582912	; 0xc00000
 8003a2c:	d1f7      	bne.n	8003a1e <HAL_RCCEx_PeriphCLKConfig+0x1a>
 8003a2e:	4a4e      	ldr	r2, [pc, #312]	; (8003b68 <HAL_RCCEx_PeriphCLKConfig+0x164>)
 8003a30:	6e61      	ldr	r1, [r4, #100]	; 0x64
 8003a32:	f8d2 3088 	ldr.w	r3, [r2, #136]	; 0x88
 8003a36:	f423 0340 	bic.w	r3, r3, #12582912	; 0xc00000
 8003a3a:	430b      	orrs	r3, r1
 8003a3c:	f8c2 3088 	str.w	r3, [r2, #136]	; 0x88
 8003a40:	2600      	movs	r6, #0
 8003a42:	e00b      	b.n	8003a5c <HAL_RCCEx_PeriphCLKConfig+0x58>
 8003a44:	4a48      	ldr	r2, [pc, #288]	; (8003b68 <HAL_RCCEx_PeriphCLKConfig+0x164>)
 8003a46:	68d3      	ldr	r3, [r2, #12]
 8003a48:	f443 3380 	orr.w	r3, r3, #65536	; 0x10000
 8003a4c:	60d3      	str	r3, [r2, #12]
 8003a4e:	e7ee      	b.n	8003a2e <HAL_RCCEx_PeriphCLKConfig+0x2a>
 8003a50:	3004      	adds	r0, #4
 8003a52:	f7ff fecf 	bl	80037f4 <RCCEx_PLLSAI1_Config>
 8003a56:	4606      	mov	r6, r0
 8003a58:	2800      	cmp	r0, #0
 8003a5a:	d0e8      	beq.n	8003a2e <HAL_RCCEx_PeriphCLKConfig+0x2a>
 8003a5c:	6823      	ldr	r3, [r4, #0]
 8003a5e:	04d8      	lsls	r0, r3, #19
 8003a60:	d506      	bpl.n	8003a70 <HAL_RCCEx_PeriphCLKConfig+0x6c>
 8003a62:	6ea1      	ldr	r1, [r4, #104]	; 0x68
 8003a64:	f1b1 7f80 	cmp.w	r1, #16777216	; 0x1000000
 8003a68:	d073      	beq.n	8003b52 <HAL_RCCEx_PeriphCLKConfig+0x14e>
 8003a6a:	d808      	bhi.n	8003a7e <HAL_RCCEx_PeriphCLKConfig+0x7a>
 8003a6c:	b1a9      	cbz	r1, 8003a9a <HAL_RCCEx_PeriphCLKConfig+0x96>
 8003a6e:	2601      	movs	r6, #1
 8003a70:	4635      	mov	r5, r6
 8003a72:	e021      	b.n	8003ab8 <HAL_RCCEx_PeriphCLKConfig+0xb4>
 8003a74:	2100      	movs	r1, #0
 8003a76:	3020      	adds	r0, #32
 8003a78:	f7ff ff48 	bl	800390c <RCCEx_PLLSAI2_Config>
 8003a7c:	e7eb      	b.n	8003a56 <HAL_RCCEx_PeriphCLKConfig+0x52>
 8003a7e:	f1b1 7f00 	cmp.w	r1, #33554432	; 0x2000000
 8003a82:	d004      	beq.n	8003a8e <HAL_RCCEx_PeriphCLKConfig+0x8a>
 8003a84:	f1b1 7f40 	cmp.w	r1, #50331648	; 0x3000000
 8003a88:	d1f1      	bne.n	8003a6e <HAL_RCCEx_PeriphCLKConfig+0x6a>
 8003a8a:	4635      	mov	r5, r6
 8003a8c:	e009      	b.n	8003aa2 <HAL_RCCEx_PeriphCLKConfig+0x9e>
 8003a8e:	4a36      	ldr	r2, [pc, #216]	; (8003b68 <HAL_RCCEx_PeriphCLKConfig+0x164>)
 8003a90:	68d3      	ldr	r3, [r2, #12]
 8003a92:	f443 3380 	orr.w	r3, r3, #65536	; 0x10000
 8003a96:	60d3      	str	r3, [r2, #12]
 8003a98:	e7f7      	b.n	8003a8a <HAL_RCCEx_PeriphCLKConfig+0x86>
 8003a9a:	1d20      	adds	r0, r4, #4
 8003a9c:	f7ff feaa 	bl	80037f4 <RCCEx_PLLSAI1_Config>
 8003aa0:	4605      	mov	r5, r0
 8003aa2:	2d00      	cmp	r5, #0
 8003aa4:	d15b      	bne.n	8003b5e <HAL_RCCEx_PeriphCLKConfig+0x15a>
 8003aa6:	4a30      	ldr	r2, [pc, #192]	; (8003b68 <HAL_RCCEx_PeriphCLKConfig+0x164>)
 8003aa8:	6ea1      	ldr	r1, [r4, #104]	; 0x68
 8003aaa:	f8d2 3088 	ldr.w	r3, [r2, #136]	; 0x88
 8003aae:	f023 7340 	bic.w	r3, r3, #50331648	; 0x3000000
 8003ab2:	430b      	orrs	r3, r1
 8003ab4:	f8c2 3088 	str.w	r3, [r2, #136]	; 0x88
 8003ab8:	6823      	ldr	r3, [r4, #0]
 8003aba:	0399      	lsls	r1, r3, #14
 8003abc:	f140 815a 	bpl.w	8003d74 <HAL_RCCEx_PeriphCLKConfig+0x370>
 8003ac0:	4f29      	ldr	r7, [pc, #164]	; (8003b68 <HAL_RCCEx_PeriphCLKConfig+0x164>)
 8003ac2:	6dbb      	ldr	r3, [r7, #88]	; 0x58
 8003ac4:	00da      	lsls	r2, r3, #3
 8003ac6:	d44c      	bmi.n	8003b62 <HAL_RCCEx_PeriphCLKConfig+0x15e>
 8003ac8:	6dbb      	ldr	r3, [r7, #88]	; 0x58
 8003aca:	f043 5380 	orr.w	r3, r3, #268435456	; 0x10000000
 8003ace:	65bb      	str	r3, [r7, #88]	; 0x58
 8003ad0:	6dbb      	ldr	r3, [r7, #88]	; 0x58
 8003ad2:	f003 5380 	and.w	r3, r3, #268435456	; 0x10000000
 8003ad6:	9301      	str	r3, [sp, #4]
 8003ad8:	9b01      	ldr	r3, [sp, #4]
 8003ada:	f04f 0801 	mov.w	r8, #1
 8003ade:	f8df 908c 	ldr.w	r9, [pc, #140]	; 8003b6c <HAL_RCCEx_PeriphCLKConfig+0x168>
 8003ae2:	f8d9 3000 	ldr.w	r3, [r9]
 8003ae6:	f443 7380 	orr.w	r3, r3, #256	; 0x100
 8003aea:	f8c9 3000 	str.w	r3, [r9]
 8003aee:	f7fe fccf 	bl	8002490 <HAL_GetTick>
 8003af2:	4682      	mov	sl, r0
 8003af4:	f8d9 3000 	ldr.w	r3, [r9]
 8003af8:	05db      	lsls	r3, r3, #23
 8003afa:	d539      	bpl.n	8003b70 <HAL_RCCEx_PeriphCLKConfig+0x16c>
 8003afc:	2d00      	cmp	r5, #0
 8003afe:	d13e      	bne.n	8003b7e <HAL_RCCEx_PeriphCLKConfig+0x17a>
 8003b00:	f8d7 3090 	ldr.w	r3, [r7, #144]	; 0x90
 8003b04:	f413 7340 	ands.w	r3, r3, #768	; 0x300
 8003b08:	d015      	beq.n	8003b36 <HAL_RCCEx_PeriphCLKConfig+0x132>
 8003b0a:	f8d4 2084 	ldr.w	r2, [r4, #132]	; 0x84
 8003b0e:	429a      	cmp	r2, r3
 8003b10:	d011      	beq.n	8003b36 <HAL_RCCEx_PeriphCLKConfig+0x132>
 8003b12:	f8d7 3090 	ldr.w	r3, [r7, #144]	; 0x90
 8003b16:	f8d7 2090 	ldr.w	r2, [r7, #144]	; 0x90
 8003b1a:	f442 3280 	orr.w	r2, r2, #65536	; 0x10000
 8003b1e:	f8c7 2090 	str.w	r2, [r7, #144]	; 0x90
 8003b22:	f8d7 2090 	ldr.w	r2, [r7, #144]	; 0x90
 8003b26:	f423 7340 	bic.w	r3, r3, #768	; 0x300
 8003b2a:	f422 3280 	bic.w	r2, r2, #65536	; 0x10000
 8003b2e:	f8c7 2090 	str.w	r2, [r7, #144]	; 0x90
 8003b32:	f8c7 3090 	str.w	r3, [r7, #144]	; 0x90
 8003b36:	07d8      	lsls	r0, r3, #31
 8003b38:	f100 810c 	bmi.w	8003d54 <HAL_RCCEx_PeriphCLKConfig+0x350>
 8003b3c:	f8d7 3090 	ldr.w	r3, [r7, #144]	; 0x90
 8003b40:	f8d4 2084 	ldr.w	r2, [r4, #132]	; 0x84
 8003b44:	f423 7340 	bic.w	r3, r3, #768	; 0x300
 8003b48:	4313      	orrs	r3, r2
 8003b4a:	f8c7 3090 	str.w	r3, [r7, #144]	; 0x90
 8003b4e:	4635      	mov	r5, r6
 8003b50:	e015      	b.n	8003b7e <HAL_RCCEx_PeriphCLKConfig+0x17a>
 8003b52:	2100      	movs	r1, #0
 8003b54:	f104 0020 	add.w	r0, r4, #32
 8003b58:	f7ff fed8 	bl	800390c <RCCEx_PLLSAI2_Config>
 8003b5c:	e7a0      	b.n	8003aa0 <HAL_RCCEx_PeriphCLKConfig+0x9c>
 8003b5e:	462e      	mov	r6, r5
 8003b60:	e7aa      	b.n	8003ab8 <HAL_RCCEx_PeriphCLKConfig+0xb4>
 8003b62:	f04f 0800 	mov.w	r8, #0
 8003b66:	e7ba      	b.n	8003ade <HAL_RCCEx_PeriphCLKConfig+0xda>
 8003b68:	40021000 	.word	0x40021000
 8003b6c:	40007000 	.word	0x40007000
 8003b70:	f7fe fc8e 	bl	8002490 <HAL_GetTick>
 8003b74:	eba0 000a 	sub.w	r0, r0, sl
 8003b78:	2802      	cmp	r0, #2
 8003b7a:	d9bb      	bls.n	8003af4 <HAL_RCCEx_PeriphCLKConfig+0xf0>
 8003b7c:	2503      	movs	r5, #3
 8003b7e:	f1b8 0f00 	cmp.w	r8, #0
 8003b82:	d003      	beq.n	8003b8c <HAL_RCCEx_PeriphCLKConfig+0x188>
 8003b84:	6dbb      	ldr	r3, [r7, #88]	; 0x58
 8003b86:	f023 5380 	bic.w	r3, r3, #268435456	; 0x10000000
 8003b8a:	65bb      	str	r3, [r7, #88]	; 0x58
 8003b8c:	6823      	ldr	r3, [r4, #0]
 8003b8e:	07da      	lsls	r2, r3, #31
 8003b90:	d508      	bpl.n	8003ba4 <HAL_RCCEx_PeriphCLKConfig+0x1a0>
 8003b92:	498e      	ldr	r1, [pc, #568]	; (8003dcc <HAL_RCCEx_PeriphCLKConfig+0x3c8>)
 8003b94:	6ba0      	ldr	r0, [r4, #56]	; 0x38
 8003b96:	f8d1 2088 	ldr.w	r2, [r1, #136]	; 0x88
 8003b9a:	f022 0203 	bic.w	r2, r2, #3
 8003b9e:	4302      	orrs	r2, r0
 8003ba0:	f8c1 2088 	str.w	r2, [r1, #136]	; 0x88
 8003ba4:	079f      	lsls	r7, r3, #30
 8003ba6:	d508      	bpl.n	8003bba <HAL_RCCEx_PeriphCLKConfig+0x1b6>
 8003ba8:	4988      	ldr	r1, [pc, #544]	; (8003dcc <HAL_RCCEx_PeriphCLKConfig+0x3c8>)
 8003baa:	6be0      	ldr	r0, [r4, #60]	; 0x3c
 8003bac:	f8d1 2088 	ldr.w	r2, [r1, #136]	; 0x88
 8003bb0:	f022 020c 	bic.w	r2, r2, #12
 8003bb4:	4302      	orrs	r2, r0
 8003bb6:	f8c1 2088 	str.w	r2, [r1, #136]	; 0x88
 8003bba:	075e      	lsls	r6, r3, #29
 8003bbc:	d508      	bpl.n	8003bd0 <HAL_RCCEx_PeriphCLKConfig+0x1cc>
 8003bbe:	4983      	ldr	r1, [pc, #524]	; (8003dcc <HAL_RCCEx_PeriphCLKConfig+0x3c8>)
 8003bc0:	6c20      	ldr	r0, [r4, #64]	; 0x40
 8003bc2:	f8d1 2088 	ldr.w	r2, [r1, #136]	; 0x88
 8003bc6:	f022 0230 	bic.w	r2, r2, #48	; 0x30
 8003bca:	4302      	orrs	r2, r0
 8003bcc:	f8c1 2088 	str.w	r2, [r1, #136]	; 0x88
 8003bd0:	0718      	lsls	r0, r3, #28
 8003bd2:	d508      	bpl.n	8003be6 <HAL_RCCEx_PeriphCLKConfig+0x1e2>
 8003bd4:	497d      	ldr	r1, [pc, #500]	; (8003dcc <HAL_RCCEx_PeriphCLKConfig+0x3c8>)
 8003bd6:	6c60      	ldr	r0, [r4, #68]	; 0x44
 8003bd8:	f8d1 2088 	ldr.w	r2, [r1, #136]	; 0x88
 8003bdc:	f022 02c0 	bic.w	r2, r2, #192	; 0xc0
 8003be0:	4302      	orrs	r2, r0
 8003be2:	f8c1 2088 	str.w	r2, [r1, #136]	; 0x88
 8003be6:	06d9      	lsls	r1, r3, #27
 8003be8:	d508      	bpl.n	8003bfc <HAL_RCCEx_PeriphCLKConfig+0x1f8>
 8003bea:	4978      	ldr	r1, [pc, #480]	; (8003dcc <HAL_RCCEx_PeriphCLKConfig+0x3c8>)
 8003bec:	6ca0      	ldr	r0, [r4, #72]	; 0x48
 8003bee:	f8d1 2088 	ldr.w	r2, [r1, #136]	; 0x88
 8003bf2:	f422 7240 	bic.w	r2, r2, #768	; 0x300
 8003bf6:	4302      	orrs	r2, r0
 8003bf8:	f8c1 2088 	str.w	r2, [r1, #136]	; 0x88
 8003bfc:	069a      	lsls	r2, r3, #26
 8003bfe:	d508      	bpl.n	8003c12 <HAL_RCCEx_PeriphCLKConfig+0x20e>
 8003c00:	4972      	ldr	r1, [pc, #456]	; (8003dcc <HAL_RCCEx_PeriphCLKConfig+0x3c8>)
 8003c02:	6ce0      	ldr	r0, [r4, #76]	; 0x4c
 8003c04:	f8d1 2088 	ldr.w	r2, [r1, #136]	; 0x88
 8003c08:	f422 6240 	bic.w	r2, r2, #3072	; 0xc00
 8003c0c:	4302      	orrs	r2, r0
 8003c0e:	f8c1 2088 	str.w	r2, [r1, #136]	; 0x88
 8003c12:	059f      	lsls	r7, r3, #22
 8003c14:	d508      	bpl.n	8003c28 <HAL_RCCEx_PeriphCLKConfig+0x224>
 8003c16:	496d      	ldr	r1, [pc, #436]	; (8003dcc <HAL_RCCEx_PeriphCLKConfig+0x3c8>)
 8003c18:	6de0      	ldr	r0, [r4, #92]	; 0x5c
 8003c1a:	f8d1 2088 	ldr.w	r2, [r1, #136]	; 0x88
 8003c1e:	f422 2240 	bic.w	r2, r2, #786432	; 0xc0000
 8003c22:	4302      	orrs	r2, r0
 8003c24:	f8c1 2088 	str.w	r2, [r1, #136]	; 0x88
 8003c28:	055e      	lsls	r6, r3, #21
 8003c2a:	d508      	bpl.n	8003c3e <HAL_RCCEx_PeriphCLKConfig+0x23a>
 8003c2c:	4967      	ldr	r1, [pc, #412]	; (8003dcc <HAL_RCCEx_PeriphCLKConfig+0x3c8>)
 8003c2e:	6e20      	ldr	r0, [r4, #96]	; 0x60
 8003c30:	f8d1 2088 	ldr.w	r2, [r1, #136]	; 0x88
 8003c34:	f422 1240 	bic.w	r2, r2, #3145728	; 0x300000
 8003c38:	4302      	orrs	r2, r0
 8003c3a:	f8c1 2088 	str.w	r2, [r1, #136]	; 0x88
 8003c3e:	0658      	lsls	r0, r3, #25
 8003c40:	d508      	bpl.n	8003c54 <HAL_RCCEx_PeriphCLKConfig+0x250>
 8003c42:	4962      	ldr	r1, [pc, #392]	; (8003dcc <HAL_RCCEx_PeriphCLKConfig+0x3c8>)
 8003c44:	6d20      	ldr	r0, [r4, #80]	; 0x50
 8003c46:	f8d1 2088 	ldr.w	r2, [r1, #136]	; 0x88
 8003c4a:	f422 5240 	bic.w	r2, r2, #12288	; 0x3000
 8003c4e:	4302      	orrs	r2, r0
 8003c50:	f8c1 2088 	str.w	r2, [r1, #136]	; 0x88
 8003c54:	0619      	lsls	r1, r3, #24
 8003c56:	d508      	bpl.n	8003c6a <HAL_RCCEx_PeriphCLKConfig+0x266>
 8003c58:	495c      	ldr	r1, [pc, #368]	; (8003dcc <HAL_RCCEx_PeriphCLKConfig+0x3c8>)
 8003c5a:	6d60      	ldr	r0, [r4, #84]	; 0x54
 8003c5c:	f8d1 2088 	ldr.w	r2, [r1, #136]	; 0x88
 8003c60:	f422 4240 	bic.w	r2, r2, #49152	; 0xc000
 8003c64:	4302      	orrs	r2, r0
 8003c66:	f8c1 2088 	str.w	r2, [r1, #136]	; 0x88
 8003c6a:	05da      	lsls	r2, r3, #23
 8003c6c:	d508      	bpl.n	8003c80 <HAL_RCCEx_PeriphCLKConfig+0x27c>
 8003c6e:	4957      	ldr	r1, [pc, #348]	; (8003dcc <HAL_RCCEx_PeriphCLKConfig+0x3c8>)
 8003c70:	6da0      	ldr	r0, [r4, #88]	; 0x58
 8003c72:	f8d1 2088 	ldr.w	r2, [r1, #136]	; 0x88
 8003c76:	f422 3240 	bic.w	r2, r2, #196608	; 0x30000
 8003c7a:	4302      	orrs	r2, r0
 8003c7c:	f8c1 2088 	str.w	r2, [r1, #136]	; 0x88
 8003c80:	049b      	lsls	r3, r3, #18
 8003c82:	d50f      	bpl.n	8003ca4 <HAL_RCCEx_PeriphCLKConfig+0x2a0>
 8003c84:	4a51      	ldr	r2, [pc, #324]	; (8003dcc <HAL_RCCEx_PeriphCLKConfig+0x3c8>)
 8003c86:	6ee1      	ldr	r1, [r4, #108]	; 0x6c
 8003c88:	f8d2 3088 	ldr.w	r3, [r2, #136]	; 0x88
 8003c8c:	f023 6340 	bic.w	r3, r3, #201326592	; 0xc000000
 8003c90:	430b      	orrs	r3, r1
 8003c92:	f1b1 6f00 	cmp.w	r1, #134217728	; 0x8000000
 8003c96:	f8c2 3088 	str.w	r3, [r2, #136]	; 0x88
 8003c9a:	d16d      	bne.n	8003d78 <HAL_RCCEx_PeriphCLKConfig+0x374>
 8003c9c:	68d3      	ldr	r3, [r2, #12]
 8003c9e:	f443 1380 	orr.w	r3, r3, #1048576	; 0x100000
 8003ca2:	60d3      	str	r3, [r2, #12]
 8003ca4:	6823      	ldr	r3, [r4, #0]
 8003ca6:	031f      	lsls	r7, r3, #12
 8003ca8:	d50f      	bpl.n	8003cca <HAL_RCCEx_PeriphCLKConfig+0x2c6>
 8003caa:	4a48      	ldr	r2, [pc, #288]	; (8003dcc <HAL_RCCEx_PeriphCLKConfig+0x3c8>)
 8003cac:	6f21      	ldr	r1, [r4, #112]	; 0x70
 8003cae:	f8d2 3088 	ldr.w	r3, [r2, #136]	; 0x88
 8003cb2:	f023 6340 	bic.w	r3, r3, #201326592	; 0xc000000
 8003cb6:	430b      	orrs	r3, r1
 8003cb8:	f1b1 6f00 	cmp.w	r1, #134217728	; 0x8000000
 8003cbc:	f8c2 3088 	str.w	r3, [r2, #136]	; 0x88
 8003cc0:	d165      	bne.n	8003d8e <HAL_RCCEx_PeriphCLKConfig+0x38a>
 8003cc2:	68d3      	ldr	r3, [r2, #12]
 8003cc4:	f443 1380 	orr.w	r3, r3, #1048576	; 0x100000
 8003cc8:	60d3      	str	r3, [r2, #12]
 8003cca:	6823      	ldr	r3, [r4, #0]
 8003ccc:	035e      	lsls	r6, r3, #13
 8003cce:	d50f      	bpl.n	8003cf0 <HAL_RCCEx_PeriphCLKConfig+0x2ec>
 8003cd0:	4a3e      	ldr	r2, [pc, #248]	; (8003dcc <HAL_RCCEx_PeriphCLKConfig+0x3c8>)
 8003cd2:	6f61      	ldr	r1, [r4, #116]	; 0x74
 8003cd4:	f8d2 3088 	ldr.w	r3, [r2, #136]	; 0x88
 8003cd8:	f023 6340 	bic.w	r3, r3, #201326592	; 0xc000000
 8003cdc:	430b      	orrs	r3, r1
 8003cde:	f1b1 6f00 	cmp.w	r1, #134217728	; 0x8000000
 8003ce2:	f8c2 3088 	str.w	r3, [r2, #136]	; 0x88
 8003ce6:	d15d      	bne.n	8003da4 <HAL_RCCEx_PeriphCLKConfig+0x3a0>
 8003ce8:	68d3      	ldr	r3, [r2, #12]
 8003cea:	f443 1380 	orr.w	r3, r3, #1048576	; 0x100000
 8003cee:	60d3      	str	r3, [r2, #12]
 8003cf0:	6823      	ldr	r3, [r4, #0]
 8003cf2:	0458      	lsls	r0, r3, #17
 8003cf4:	d512      	bpl.n	8003d1c <HAL_RCCEx_PeriphCLKConfig+0x318>
 8003cf6:	4935      	ldr	r1, [pc, #212]	; (8003dcc <HAL_RCCEx_PeriphCLKConfig+0x3c8>)
 8003cf8:	6fa2      	ldr	r2, [r4, #120]	; 0x78
 8003cfa:	f8d1 3088 	ldr.w	r3, [r1, #136]	; 0x88
 8003cfe:	f023 5340 	bic.w	r3, r3, #805306368	; 0x30000000
 8003d02:	4313      	orrs	r3, r2
 8003d04:	f1b2 5f80 	cmp.w	r2, #268435456	; 0x10000000
 8003d08:	f8c1 3088 	str.w	r3, [r1, #136]	; 0x88
 8003d0c:	d155      	bne.n	8003dba <HAL_RCCEx_PeriphCLKConfig+0x3b6>
 8003d0e:	2102      	movs	r1, #2
 8003d10:	1d20      	adds	r0, r4, #4
 8003d12:	f7ff fd6f 	bl	80037f4 <RCCEx_PLLSAI1_Config>
 8003d16:	2800      	cmp	r0, #0
 8003d18:	bf18      	it	ne
 8003d1a:	4605      	movne	r5, r0
 8003d1c:	6822      	ldr	r2, [r4, #0]
 8003d1e:	0411      	lsls	r1, r2, #16
 8003d20:	d508      	bpl.n	8003d34 <HAL_RCCEx_PeriphCLKConfig+0x330>
 8003d22:	492a      	ldr	r1, [pc, #168]	; (8003dcc <HAL_RCCEx_PeriphCLKConfig+0x3c8>)
 8003d24:	6fe0      	ldr	r0, [r4, #124]	; 0x7c
 8003d26:	f8d1 3088 	ldr.w	r3, [r1, #136]	; 0x88
 8003d2a:	f023 4380 	bic.w	r3, r3, #1073741824	; 0x40000000
 8003d2e:	4303      	orrs	r3, r0
 8003d30:	f8c1 3088 	str.w	r3, [r1, #136]	; 0x88
 8003d34:	03d3      	lsls	r3, r2, #15
 8003d36:	d509      	bpl.n	8003d4c <HAL_RCCEx_PeriphCLKConfig+0x348>
 8003d38:	4a24      	ldr	r2, [pc, #144]	; (8003dcc <HAL_RCCEx_PeriphCLKConfig+0x3c8>)
 8003d3a:	f8d4 1080 	ldr.w	r1, [r4, #128]	; 0x80
 8003d3e:	f8d2 3088 	ldr.w	r3, [r2, #136]	; 0x88
 8003d42:	f023 4300 	bic.w	r3, r3, #2147483648	; 0x80000000
 8003d46:	430b      	orrs	r3, r1
 8003d48:	f8c2 3088 	str.w	r3, [r2, #136]	; 0x88
 8003d4c:	4628      	mov	r0, r5
 8003d4e:	b002      	add	sp, #8
 8003d50:	e8bd 87f0 	ldmia.w	sp!, {r4, r5, r6, r7, r8, r9, sl, pc}
 8003d54:	f7fe fb9c 	bl	8002490 <HAL_GetTick>
 8003d58:	f241 3988 	movw	r9, #5000	; 0x1388
 8003d5c:	4605      	mov	r5, r0
 8003d5e:	f8d7 3090 	ldr.w	r3, [r7, #144]	; 0x90
 8003d62:	0799      	lsls	r1, r3, #30
 8003d64:	f53f aeea 	bmi.w	8003b3c <HAL_RCCEx_PeriphCLKConfig+0x138>
 8003d68:	f7fe fb92 	bl	8002490 <HAL_GetTick>
 8003d6c:	1b40      	subs	r0, r0, r5
 8003d6e:	4548      	cmp	r0, r9
 8003d70:	d9f5      	bls.n	8003d5e <HAL_RCCEx_PeriphCLKConfig+0x35a>
 8003d72:	e703      	b.n	8003b7c <HAL_RCCEx_PeriphCLKConfig+0x178>
 8003d74:	4635      	mov	r5, r6
 8003d76:	e709      	b.n	8003b8c <HAL_RCCEx_PeriphCLKConfig+0x188>
 8003d78:	f1b1 6f80 	cmp.w	r1, #67108864	; 0x4000000
 8003d7c:	d192      	bne.n	8003ca4 <HAL_RCCEx_PeriphCLKConfig+0x2a0>
 8003d7e:	2101      	movs	r1, #1
 8003d80:	1d20      	adds	r0, r4, #4
 8003d82:	f7ff fd37 	bl	80037f4 <RCCEx_PLLSAI1_Config>
 8003d86:	2800      	cmp	r0, #0
 8003d88:	bf18      	it	ne
 8003d8a:	4605      	movne	r5, r0
 8003d8c:	e78a      	b.n	8003ca4 <HAL_RCCEx_PeriphCLKConfig+0x2a0>
 8003d8e:	f1b1 6f80 	cmp.w	r1, #67108864	; 0x4000000
 8003d92:	d19a      	bne.n	8003cca <HAL_RCCEx_PeriphCLKConfig+0x2c6>
 8003d94:	2101      	movs	r1, #1
 8003d96:	1d20      	adds	r0, r4, #4
 8003d98:	f7ff fd2c 	bl	80037f4 <RCCEx_PLLSAI1_Config>
 8003d9c:	2800      	cmp	r0, #0
 8003d9e:	bf18      	it	ne
 8003da0:	4605      	movne	r5, r0
 8003da2:	e792      	b.n	8003cca <HAL_RCCEx_PeriphCLKConfig+0x2c6>
 8003da4:	f1b1 6f80 	cmp.w	r1, #67108864	; 0x4000000
 8003da8:	d1a2      	bne.n	8003cf0 <HAL_RCCEx_PeriphCLKConfig+0x2ec>
 8003daa:	2101      	movs	r1, #1
 8003dac:	1d20      	adds	r0, r4, #4
 8003dae:	f7ff fd21 	bl	80037f4 <RCCEx_PLLSAI1_Config>
 8003db2:	2800      	cmp	r0, #0
 8003db4:	bf18      	it	ne
 8003db6:	4605      	movne	r5, r0
 8003db8:	e79a      	b.n	8003cf0 <HAL_RCCEx_PeriphCLKConfig+0x2ec>
 8003dba:	f1b2 5f00 	cmp.w	r2, #536870912	; 0x20000000
 8003dbe:	d1ad      	bne.n	8003d1c <HAL_RCCEx_PeriphCLKConfig+0x318>
 8003dc0:	2102      	movs	r1, #2
 8003dc2:	f104 0020 	add.w	r0, r4, #32
 8003dc6:	f7ff fda1 	bl	800390c <RCCEx_PLLSAI2_Config>
 8003dca:	e7a4      	b.n	8003d16 <HAL_RCCEx_PeriphCLKConfig+0x312>
 8003dcc:	40021000 	.word	0x40021000

08003dd0 <HAL_TIM_Base_Start_IT>:
 8003dd0:	6803      	ldr	r3, [r0, #0]
 8003dd2:	68da      	ldr	r2, [r3, #12]
 8003dd4:	f042 0201 	orr.w	r2, r2, #1
 8003dd8:	60da      	str	r2, [r3, #12]
 8003dda:	6899      	ldr	r1, [r3, #8]
 8003ddc:	4a06      	ldr	r2, [pc, #24]	; (8003df8 <HAL_TIM_Base_Start_IT+0x28>)
 8003dde:	400a      	ands	r2, r1
 8003de0:	2a06      	cmp	r2, #6
 8003de2:	d006      	beq.n	8003df2 <HAL_TIM_Base_Start_IT+0x22>
 8003de4:	f5b2 3f80 	cmp.w	r2, #65536	; 0x10000
 8003de8:	bf1e      	ittt	ne
 8003dea:	681a      	ldrne	r2, [r3, #0]
 8003dec:	f042 0201 	orrne.w	r2, r2, #1
 8003df0:	601a      	strne	r2, [r3, #0]
 8003df2:	2000      	movs	r0, #0
 8003df4:	4770      	bx	lr
 8003df6:	bf00      	nop
 8003df8:	00010007 	.word	0x00010007

08003dfc <HAL_TIM_OC_DelayElapsedCallback>:
 8003dfc:	4770      	bx	lr

08003dfe <HAL_TIM_IC_CaptureCallback>:
 8003dfe:	4770      	bx	lr

08003e00 <HAL_TIM_PWM_PulseFinishedCallback>:
 8003e00:	4770      	bx	lr

08003e02 <HAL_TIM_TriggerCallback>:
 8003e02:	4770      	bx	lr

08003e04 <HAL_TIM_IRQHandler>:
 8003e04:	6803      	ldr	r3, [r0, #0]
 8003e06:	691a      	ldr	r2, [r3, #16]
 8003e08:	0791      	lsls	r1, r2, #30
 8003e0a:	b510      	push	{r4, lr}
 8003e0c:	4604      	mov	r4, r0
 8003e0e:	d50f      	bpl.n	8003e30 <HAL_TIM_IRQHandler+0x2c>
 8003e10:	68da      	ldr	r2, [r3, #12]
 8003e12:	0792      	lsls	r2, r2, #30
 8003e14:	d50c      	bpl.n	8003e30 <HAL_TIM_IRQHandler+0x2c>
 8003e16:	f06f 0202 	mvn.w	r2, #2
 8003e1a:	611a      	str	r2, [r3, #16]
 8003e1c:	699b      	ldr	r3, [r3, #24]
 8003e1e:	2201      	movs	r2, #1
 8003e20:	0799      	lsls	r1, r3, #30
 8003e22:	7702      	strb	r2, [r0, #28]
 8003e24:	f000 8085 	beq.w	8003f32 <HAL_TIM_IRQHandler+0x12e>
 8003e28:	f7ff ffe9 	bl	8003dfe <HAL_TIM_IC_CaptureCallback>
 8003e2c:	2300      	movs	r3, #0
 8003e2e:	7723      	strb	r3, [r4, #28]
 8003e30:	6823      	ldr	r3, [r4, #0]
 8003e32:	691a      	ldr	r2, [r3, #16]
 8003e34:	0752      	lsls	r2, r2, #29
 8003e36:	d510      	bpl.n	8003e5a <HAL_TIM_IRQHandler+0x56>
 8003e38:	68da      	ldr	r2, [r3, #12]
 8003e3a:	0750      	lsls	r0, r2, #29
 8003e3c:	d50d      	bpl.n	8003e5a <HAL_TIM_IRQHandler+0x56>
 8003e3e:	f06f 0204 	mvn.w	r2, #4
 8003e42:	611a      	str	r2, [r3, #16]
 8003e44:	699b      	ldr	r3, [r3, #24]
 8003e46:	2202      	movs	r2, #2
 8003e48:	f413 7f40 	tst.w	r3, #768	; 0x300
 8003e4c:	7722      	strb	r2, [r4, #28]
 8003e4e:	4620      	mov	r0, r4
 8003e50:	d075      	beq.n	8003f3e <HAL_TIM_IRQHandler+0x13a>
 8003e52:	f7ff ffd4 	bl	8003dfe <HAL_TIM_IC_CaptureCallback>
 8003e56:	2300      	movs	r3, #0
 8003e58:	7723      	strb	r3, [r4, #28]
 8003e5a:	6823      	ldr	r3, [r4, #0]
 8003e5c:	691a      	ldr	r2, [r3, #16]
 8003e5e:	0711      	lsls	r1, r2, #28
 8003e60:	d50f      	bpl.n	8003e82 <HAL_TIM_IRQHandler+0x7e>
 8003e62:	68da      	ldr	r2, [r3, #12]
 8003e64:	0712      	lsls	r2, r2, #28
 8003e66:	d50c      	bpl.n	8003e82 <HAL_TIM_IRQHandler+0x7e>
 8003e68:	f06f 0208 	mvn.w	r2, #8
 8003e6c:	611a      	str	r2, [r3, #16]
 8003e6e:	69db      	ldr	r3, [r3, #28]
 8003e70:	2204      	movs	r2, #4
 8003e72:	079b      	lsls	r3, r3, #30
 8003e74:	7722      	strb	r2, [r4, #28]
 8003e76:	4620      	mov	r0, r4
 8003e78:	d067      	beq.n	8003f4a <HAL_TIM_IRQHandler+0x146>
 8003e7a:	f7ff ffc0 	bl	8003dfe <HAL_TIM_IC_CaptureCallback>
 8003e7e:	2300      	movs	r3, #0
 8003e80:	7723      	strb	r3, [r4, #28]
 8003e82:	6823      	ldr	r3, [r4, #0]
 8003e84:	691a      	ldr	r2, [r3, #16]
 8003e86:	06d0      	lsls	r0, r2, #27
 8003e88:	d510      	bpl.n	8003eac <HAL_TIM_IRQHandler+0xa8>
 8003e8a:	68da      	ldr	r2, [r3, #12]
 8003e8c:	06d1      	lsls	r1, r2, #27
 8003e8e:	d50d      	bpl.n	8003eac <HAL_TIM_IRQHandler+0xa8>
 8003e90:	f06f 0210 	mvn.w	r2, #16
 8003e94:	611a      	str	r2, [r3, #16]
 8003e96:	69db      	ldr	r3, [r3, #28]
 8003e98:	2208      	movs	r2, #8
 8003e9a:	f413 7f40 	tst.w	r3, #768	; 0x300
 8003e9e:	7722      	strb	r2, [r4, #28]
 8003ea0:	4620      	mov	r0, r4
 8003ea2:	d058      	beq.n	8003f56 <HAL_TIM_IRQHandler+0x152>
 8003ea4:	f7ff ffab 	bl	8003dfe <HAL_TIM_IC_CaptureCallback>
 8003ea8:	2300      	movs	r3, #0
 8003eaa:	7723      	strb	r3, [r4, #28]
 8003eac:	6823      	ldr	r3, [r4, #0]
 8003eae:	691a      	ldr	r2, [r3, #16]
 8003eb0:	07d2      	lsls	r2, r2, #31
 8003eb2:	d508      	bpl.n	8003ec6 <HAL_TIM_IRQHandler+0xc2>
 8003eb4:	68da      	ldr	r2, [r3, #12]
 8003eb6:	07d0      	lsls	r0, r2, #31
 8003eb8:	d505      	bpl.n	8003ec6 <HAL_TIM_IRQHandler+0xc2>
 8003eba:	f06f 0201 	mvn.w	r2, #1
 8003ebe:	611a      	str	r2, [r3, #16]
 8003ec0:	4620      	mov	r0, r4
 8003ec2:	f7fe f97b 	bl	80021bc <HAL_TIM_PeriodElapsedCallback>
 8003ec6:	6823      	ldr	r3, [r4, #0]
 8003ec8:	691a      	ldr	r2, [r3, #16]
 8003eca:	0611      	lsls	r1, r2, #24
 8003ecc:	d508      	bpl.n	8003ee0 <HAL_TIM_IRQHandler+0xdc>
 8003ece:	68da      	ldr	r2, [r3, #12]
 8003ed0:	0612      	lsls	r2, r2, #24
 8003ed2:	d505      	bpl.n	8003ee0 <HAL_TIM_IRQHandler+0xdc>
 8003ed4:	f06f 0280 	mvn.w	r2, #128	; 0x80
 8003ed8:	611a      	str	r2, [r3, #16]
 8003eda:	4620      	mov	r0, r4
 8003edc:	f000 f90d 	bl	80040fa <HAL_TIMEx_BreakCallback>
 8003ee0:	6823      	ldr	r3, [r4, #0]
 8003ee2:	691a      	ldr	r2, [r3, #16]
 8003ee4:	05d0      	lsls	r0, r2, #23
 8003ee6:	d508      	bpl.n	8003efa <HAL_TIM_IRQHandler+0xf6>
 8003ee8:	68da      	ldr	r2, [r3, #12]
 8003eea:	0611      	lsls	r1, r2, #24
 8003eec:	d505      	bpl.n	8003efa <HAL_TIM_IRQHandler+0xf6>
 8003eee:	f46f 7280 	mvn.w	r2, #256	; 0x100
 8003ef2:	611a      	str	r2, [r3, #16]
 8003ef4:	4620      	mov	r0, r4
 8003ef6:	f000 f901 	bl	80040fc <HAL_TIMEx_Break2Callback>
 8003efa:	6823      	ldr	r3, [r4, #0]
 8003efc:	691a      	ldr	r2, [r3, #16]
 8003efe:	0652      	lsls	r2, r2, #25
 8003f00:	d508      	bpl.n	8003f14 <HAL_TIM_IRQHandler+0x110>
 8003f02:	68da      	ldr	r2, [r3, #12]
 8003f04:	0650      	lsls	r0, r2, #25
 8003f06:	d505      	bpl.n	8003f14 <HAL_TIM_IRQHandler+0x110>
 8003f08:	f06f 0240 	mvn.w	r2, #64	; 0x40
 8003f0c:	611a      	str	r2, [r3, #16]
 8003f0e:	4620      	mov	r0, r4
 8003f10:	f7ff ff77 	bl	8003e02 <HAL_TIM_TriggerCallback>
 8003f14:	6823      	ldr	r3, [r4, #0]
 8003f16:	691a      	ldr	r2, [r3, #16]
 8003f18:	0691      	lsls	r1, r2, #26
 8003f1a:	d522      	bpl.n	8003f62 <HAL_TIM_IRQHandler+0x15e>
 8003f1c:	68da      	ldr	r2, [r3, #12]
 8003f1e:	0692      	lsls	r2, r2, #26
 8003f20:	d51f      	bpl.n	8003f62 <HAL_TIM_IRQHandler+0x15e>
 8003f22:	f06f 0220 	mvn.w	r2, #32
 8003f26:	4620      	mov	r0, r4
 8003f28:	611a      	str	r2, [r3, #16]
 8003f2a:	e8bd 4010 	ldmia.w	sp!, {r4, lr}
 8003f2e:	f000 b8e3 	b.w	80040f8 <HAL_TIMEx_CommutCallback>
 8003f32:	f7ff ff63 	bl	8003dfc <HAL_TIM_OC_DelayElapsedCallback>
 8003f36:	4620      	mov	r0, r4
 8003f38:	f7ff ff62 	bl	8003e00 <HAL_TIM_PWM_PulseFinishedCallback>
 8003f3c:	e776      	b.n	8003e2c <HAL_TIM_IRQHandler+0x28>
 8003f3e:	f7ff ff5d 	bl	8003dfc <HAL_TIM_OC_DelayElapsedCallback>
 8003f42:	4620      	mov	r0, r4
 8003f44:	f7ff ff5c 	bl	8003e00 <HAL_TIM_PWM_PulseFinishedCallback>
 8003f48:	e785      	b.n	8003e56 <HAL_TIM_IRQHandler+0x52>
 8003f4a:	f7ff ff57 	bl	8003dfc <HAL_TIM_OC_DelayElapsedCallback>
 8003f4e:	4620      	mov	r0, r4
 8003f50:	f7ff ff56 	bl	8003e00 <HAL_TIM_PWM_PulseFinishedCallback>
 8003f54:	e793      	b.n	8003e7e <HAL_TIM_IRQHandler+0x7a>
 8003f56:	f7ff ff51 	bl	8003dfc <HAL_TIM_OC_DelayElapsedCallback>
 8003f5a:	4620      	mov	r0, r4
 8003f5c:	f7ff ff50 	bl	8003e00 <HAL_TIM_PWM_PulseFinishedCallback>
 8003f60:	e7a2      	b.n	8003ea8 <HAL_TIM_IRQHandler+0xa4>
 8003f62:	bd10      	pop	{r4, pc}

08003f64 <TIM_Base_SetConfig>:
 8003f64:	4a30      	ldr	r2, [pc, #192]	; (8004028 <TIM_Base_SetConfig+0xc4>)
 8003f66:	6803      	ldr	r3, [r0, #0]
 8003f68:	4290      	cmp	r0, r2
 8003f6a:	d012      	beq.n	8003f92 <TIM_Base_SetConfig+0x2e>
 8003f6c:	f1b0 4f80 	cmp.w	r0, #1073741824	; 0x40000000
 8003f70:	d00f      	beq.n	8003f92 <TIM_Base_SetConfig+0x2e>
 8003f72:	f5a2 3294 	sub.w	r2, r2, #75776	; 0x12800
 8003f76:	4290      	cmp	r0, r2
 8003f78:	d00b      	beq.n	8003f92 <TIM_Base_SetConfig+0x2e>
 8003f7a:	f502 6280 	add.w	r2, r2, #1024	; 0x400
 8003f7e:	4290      	cmp	r0, r2
 8003f80:	d007      	beq.n	8003f92 <TIM_Base_SetConfig+0x2e>
 8003f82:	f502 6280 	add.w	r2, r2, #1024	; 0x400
 8003f86:	4290      	cmp	r0, r2
 8003f88:	d003      	beq.n	8003f92 <TIM_Base_SetConfig+0x2e>
 8003f8a:	f502 3294 	add.w	r2, r2, #75776	; 0x12800
 8003f8e:	4290      	cmp	r0, r2
 8003f90:	d119      	bne.n	8003fc6 <TIM_Base_SetConfig+0x62>
 8003f92:	684a      	ldr	r2, [r1, #4]
 8003f94:	f023 0370 	bic.w	r3, r3, #112	; 0x70
 8003f98:	4313      	orrs	r3, r2
 8003f9a:	4a23      	ldr	r2, [pc, #140]	; (8004028 <TIM_Base_SetConfig+0xc4>)
 8003f9c:	4290      	cmp	r0, r2
 8003f9e:	d01d      	beq.n	8003fdc <TIM_Base_SetConfig+0x78>
 8003fa0:	f1b0 4f80 	cmp.w	r0, #1073741824	; 0x40000000
 8003fa4:	d01a      	beq.n	8003fdc <TIM_Base_SetConfig+0x78>
 8003fa6:	f5a2 3294 	sub.w	r2, r2, #75776	; 0x12800
 8003faa:	4290      	cmp	r0, r2
 8003fac:	d016      	beq.n	8003fdc <TIM_Base_SetConfig+0x78>
 8003fae:	f502 6280 	add.w	r2, r2, #1024	; 0x400
 8003fb2:	4290      	cmp	r0, r2
 8003fb4:	d012      	beq.n	8003fdc <TIM_Base_SetConfig+0x78>
 8003fb6:	f502 6280 	add.w	r2, r2, #1024	; 0x400
 8003fba:	4290      	cmp	r0, r2
 8003fbc:	d00e      	beq.n	8003fdc <TIM_Base_SetConfig+0x78>
 8003fbe:	f502 3294 	add.w	r2, r2, #75776	; 0x12800
 8003fc2:	4290      	cmp	r0, r2
 8003fc4:	d00a      	beq.n	8003fdc <TIM_Base_SetConfig+0x78>
 8003fc6:	4a19      	ldr	r2, [pc, #100]	; (800402c <TIM_Base_SetConfig+0xc8>)
 8003fc8:	4290      	cmp	r0, r2
 8003fca:	d007      	beq.n	8003fdc <TIM_Base_SetConfig+0x78>
 8003fcc:	f502 6280 	add.w	r2, r2, #1024	; 0x400
 8003fd0:	4290      	cmp	r0, r2
 8003fd2:	d003      	beq.n	8003fdc <TIM_Base_SetConfig+0x78>
 8003fd4:	f502 6280 	add.w	r2, r2, #1024	; 0x400
 8003fd8:	4290      	cmp	r0, r2
 8003fda:	d103      	bne.n	8003fe4 <TIM_Base_SetConfig+0x80>
 8003fdc:	68ca      	ldr	r2, [r1, #12]
 8003fde:	f423 7340 	bic.w	r3, r3, #768	; 0x300
 8003fe2:	4313      	orrs	r3, r2
 8003fe4:	694a      	ldr	r2, [r1, #20]
 8003fe6:	f023 0380 	bic.w	r3, r3, #128	; 0x80
 8003fea:	4313      	orrs	r3, r2
 8003fec:	6003      	str	r3, [r0, #0]
 8003fee:	688b      	ldr	r3, [r1, #8]
 8003ff0:	62c3      	str	r3, [r0, #44]	; 0x2c
 8003ff2:	680b      	ldr	r3, [r1, #0]
 8003ff4:	6283      	str	r3, [r0, #40]	; 0x28
 8003ff6:	4b0c      	ldr	r3, [pc, #48]	; (8004028 <TIM_Base_SetConfig+0xc4>)
 8003ff8:	4298      	cmp	r0, r3
 8003ffa:	d00f      	beq.n	800401c <TIM_Base_SetConfig+0xb8>
 8003ffc:	f503 6300 	add.w	r3, r3, #2048	; 0x800
 8004000:	4298      	cmp	r0, r3
 8004002:	d00b      	beq.n	800401c <TIM_Base_SetConfig+0xb8>
 8004004:	f503 6340 	add.w	r3, r3, #3072	; 0xc00
 8004008:	4298      	cmp	r0, r3
 800400a:	d007      	beq.n	800401c <TIM_Base_SetConfig+0xb8>
 800400c:	f503 6380 	add.w	r3, r3, #1024	; 0x400
 8004010:	4298      	cmp	r0, r3
 8004012:	d003      	beq.n	800401c <TIM_Base_SetConfig+0xb8>
 8004014:	f503 6380 	add.w	r3, r3, #1024	; 0x400
 8004018:	4298      	cmp	r0, r3
 800401a:	d101      	bne.n	8004020 <TIM_Base_SetConfig+0xbc>
 800401c:	690b      	ldr	r3, [r1, #16]
 800401e:	6303      	str	r3, [r0, #48]	; 0x30
 8004020:	2301      	movs	r3, #1
 8004022:	6143      	str	r3, [r0, #20]
 8004024:	4770      	bx	lr
 8004026:	bf00      	nop
 8004028:	40012c00 	.word	0x40012c00
 800402c:	40014000 	.word	0x40014000

08004030 <HAL_TIM_Base_Init>:
 8004030:	b510      	push	{r4, lr}
 8004032:	4604      	mov	r4, r0
 8004034:	b1a0      	cbz	r0, 8004060 <HAL_TIM_Base_Init+0x30>
 8004036:	f890 303d 	ldrb.w	r3, [r0, #61]	; 0x3d
 800403a:	f003 02ff 	and.w	r2, r3, #255	; 0xff
 800403e:	b91b      	cbnz	r3, 8004048 <HAL_TIM_Base_Init+0x18>
 8004040:	f880 203c 	strb.w	r2, [r0, #60]	; 0x3c
 8004044:	f7fe f8ea 	bl	800221c <HAL_TIM_Base_MspInit>
 8004048:	2302      	movs	r3, #2
 800404a:	f884 303d 	strb.w	r3, [r4, #61]	; 0x3d
 800404e:	6820      	ldr	r0, [r4, #0]
 8004050:	1d21      	adds	r1, r4, #4
 8004052:	f7ff ff87 	bl	8003f64 <TIM_Base_SetConfig>
 8004056:	2301      	movs	r3, #1
 8004058:	f884 303d 	strb.w	r3, [r4, #61]	; 0x3d
 800405c:	2000      	movs	r0, #0
 800405e:	bd10      	pop	{r4, pc}
 8004060:	2001      	movs	r0, #1
 8004062:	e7fc      	b.n	800405e <HAL_TIM_Base_Init+0x2e>

08004064 <HAL_TIMEx_MasterConfigSynchronization>:
 8004064:	f890 303c 	ldrb.w	r3, [r0, #60]	; 0x3c
 8004068:	2b01      	cmp	r3, #1
 800406a:	b570      	push	{r4, r5, r6, lr}
 800406c:	f04f 0302 	mov.w	r3, #2
 8004070:	d039      	beq.n	80040e6 <HAL_TIMEx_MasterConfigSynchronization+0x82>
 8004072:	f880 303d 	strb.w	r3, [r0, #61]	; 0x3d
 8004076:	4d1d      	ldr	r5, [pc, #116]	; (80040ec <HAL_TIMEx_MasterConfigSynchronization+0x88>)
 8004078:	6803      	ldr	r3, [r0, #0]
 800407a:	2201      	movs	r2, #1
 800407c:	42ab      	cmp	r3, r5
 800407e:	f880 203c 	strb.w	r2, [r0, #60]	; 0x3c
 8004082:	685a      	ldr	r2, [r3, #4]
 8004084:	689c      	ldr	r4, [r3, #8]
 8004086:	d002      	beq.n	800408e <HAL_TIMEx_MasterConfigSynchronization+0x2a>
 8004088:	4e19      	ldr	r6, [pc, #100]	; (80040f0 <HAL_TIMEx_MasterConfigSynchronization+0x8c>)
 800408a:	42b3      	cmp	r3, r6
 800408c:	d103      	bne.n	8004096 <HAL_TIMEx_MasterConfigSynchronization+0x32>
 800408e:	684e      	ldr	r6, [r1, #4]
 8004090:	f422 0270 	bic.w	r2, r2, #15728640	; 0xf00000
 8004094:	4332      	orrs	r2, r6
 8004096:	680e      	ldr	r6, [r1, #0]
 8004098:	f022 0270 	bic.w	r2, r2, #112	; 0x70
 800409c:	4332      	orrs	r2, r6
 800409e:	42ab      	cmp	r3, r5
 80040a0:	605a      	str	r2, [r3, #4]
 80040a2:	d015      	beq.n	80040d0 <HAL_TIMEx_MasterConfigSynchronization+0x6c>
 80040a4:	f1b3 4f80 	cmp.w	r3, #1073741824	; 0x40000000
 80040a8:	d012      	beq.n	80040d0 <HAL_TIMEx_MasterConfigSynchronization+0x6c>
 80040aa:	4a12      	ldr	r2, [pc, #72]	; (80040f4 <HAL_TIMEx_MasterConfigSynchronization+0x90>)
 80040ac:	4293      	cmp	r3, r2
 80040ae:	d00f      	beq.n	80040d0 <HAL_TIMEx_MasterConfigSynchronization+0x6c>
 80040b0:	f502 6280 	add.w	r2, r2, #1024	; 0x400
 80040b4:	4293      	cmp	r3, r2
 80040b6:	d00b      	beq.n	80040d0 <HAL_TIMEx_MasterConfigSynchronization+0x6c>
 80040b8:	f502 6280 	add.w	r2, r2, #1024	; 0x400
 80040bc:	4293      	cmp	r3, r2
 80040be:	d007      	beq.n	80040d0 <HAL_TIMEx_MasterConfigSynchronization+0x6c>
 80040c0:	f502 3294 	add.w	r2, r2, #75776	; 0x12800
 80040c4:	4293      	cmp	r3, r2
 80040c6:	d003      	beq.n	80040d0 <HAL_TIMEx_MasterConfigSynchronization+0x6c>
 80040c8:	f502 6240 	add.w	r2, r2, #3072	; 0xc00
 80040cc:	4293      	cmp	r3, r2
 80040ce:	d104      	bne.n	80040da <HAL_TIMEx_MasterConfigSynchronization+0x76>
 80040d0:	6889      	ldr	r1, [r1, #8]
 80040d2:	f024 0280 	bic.w	r2, r4, #128	; 0x80
 80040d6:	430a      	orrs	r2, r1
 80040d8:	609a      	str	r2, [r3, #8]
 80040da:	2301      	movs	r3, #1
 80040dc:	f880 303d 	strb.w	r3, [r0, #61]	; 0x3d
 80040e0:	2300      	movs	r3, #0
 80040e2:	f880 303c 	strb.w	r3, [r0, #60]	; 0x3c
 80040e6:	4618      	mov	r0, r3
 80040e8:	bd70      	pop	{r4, r5, r6, pc}
 80040ea:	bf00      	nop
 80040ec:	40012c00 	.word	0x40012c00
 80040f0:	40013400 	.word	0x40013400
 80040f4:	40000400 	.word	0x40000400

080040f8 <HAL_TIMEx_CommutCallback>:
 80040f8:	4770      	bx	lr

080040fa <HAL_TIMEx_BreakCallback>:
 80040fa:	4770      	bx	lr

080040fc <HAL_TIMEx_Break2Callback>:
 80040fc:	4770      	bx	lr

080040fe <UART_EndRxTransfer>:
 80040fe:	6803      	ldr	r3, [r0, #0]
 8004100:	681a      	ldr	r2, [r3, #0]
 8004102:	f422 7290 	bic.w	r2, r2, #288	; 0x120
 8004106:	601a      	str	r2, [r3, #0]
 8004108:	689a      	ldr	r2, [r3, #8]
 800410a:	f022 0201 	bic.w	r2, r2, #1
 800410e:	609a      	str	r2, [r3, #8]
 8004110:	2320      	movs	r3, #32
 8004112:	6783      	str	r3, [r0, #120]	; 0x78
 8004114:	2300      	movs	r3, #0
 8004116:	6603      	str	r3, [r0, #96]	; 0x60
 8004118:	4770      	bx	lr

0800411a <UART_TxISR_16BIT>:
 800411a:	6f43      	ldr	r3, [r0, #116]	; 0x74
 800411c:	2b21      	cmp	r3, #33	; 0x21
 800411e:	d11a      	bne.n	8004156 <UART_TxISR_16BIT+0x3c>
 8004120:	f8b0 2052 	ldrh.w	r2, [r0, #82]	; 0x52
 8004124:	6803      	ldr	r3, [r0, #0]
 8004126:	b292      	uxth	r2, r2
 8004128:	b942      	cbnz	r2, 800413c <UART_TxISR_16BIT+0x22>
 800412a:	681a      	ldr	r2, [r3, #0]
 800412c:	f022 0280 	bic.w	r2, r2, #128	; 0x80
 8004130:	601a      	str	r2, [r3, #0]
 8004132:	681a      	ldr	r2, [r3, #0]
 8004134:	f042 0240 	orr.w	r2, r2, #64	; 0x40
 8004138:	601a      	str	r2, [r3, #0]
 800413a:	4770      	bx	lr
 800413c:	6cc2      	ldr	r2, [r0, #76]	; 0x4c
 800413e:	f832 1b02 	ldrh.w	r1, [r2], #2
 8004142:	f3c1 0108 	ubfx	r1, r1, #0, #9
 8004146:	8519      	strh	r1, [r3, #40]	; 0x28
 8004148:	f8b0 3052 	ldrh.w	r3, [r0, #82]	; 0x52
 800414c:	64c2      	str	r2, [r0, #76]	; 0x4c
 800414e:	3b01      	subs	r3, #1
 8004150:	b29b      	uxth	r3, r3
 8004152:	f8a0 3052 	strh.w	r3, [r0, #82]	; 0x52
 8004156:	4770      	bx	lr

08004158 <UART_TxISR_8BIT>:
 8004158:	6f43      	ldr	r3, [r0, #116]	; 0x74
 800415a:	2b21      	cmp	r3, #33	; 0x21
 800415c:	d118      	bne.n	8004190 <UART_TxISR_8BIT+0x38>
 800415e:	f8b0 2052 	ldrh.w	r2, [r0, #82]	; 0x52
 8004162:	6803      	ldr	r3, [r0, #0]
 8004164:	b292      	uxth	r2, r2
 8004166:	b942      	cbnz	r2, 800417a <UART_TxISR_8BIT+0x22>
 8004168:	681a      	ldr	r2, [r3, #0]
 800416a:	f022 0280 	bic.w	r2, r2, #128	; 0x80
 800416e:	601a      	str	r2, [r3, #0]
 8004170:	681a      	ldr	r2, [r3, #0]
 8004172:	f042 0240 	orr.w	r2, r2, #64	; 0x40
 8004176:	601a      	str	r2, [r3, #0]
 8004178:	4770      	bx	lr
 800417a:	6cc2      	ldr	r2, [r0, #76]	; 0x4c
 800417c:	f812 1b01 	ldrb.w	r1, [r2], #1
 8004180:	8519      	strh	r1, [r3, #40]	; 0x28
 8004182:	f8b0 3052 	ldrh.w	r3, [r0, #82]	; 0x52
 8004186:	64c2      	str	r2, [r0, #76]	; 0x4c
 8004188:	3b01      	subs	r3, #1
 800418a:	b29b      	uxth	r3, r3
 800418c:	f8a0 3052 	strh.w	r3, [r0, #82]	; 0x52
 8004190:	4770      	bx	lr
	...

08004194 <HAL_UART_Transmit_IT>:
 8004194:	6f43      	ldr	r3, [r0, #116]	; 0x74
 8004196:	2b20      	cmp	r3, #32
 8004198:	d128      	bne.n	80041ec <HAL_UART_Transmit_IT+0x58>
 800419a:	b329      	cbz	r1, 80041e8 <HAL_UART_Transmit_IT+0x54>
 800419c:	b322      	cbz	r2, 80041e8 <HAL_UART_Transmit_IT+0x54>
 800419e:	f890 3070 	ldrb.w	r3, [r0, #112]	; 0x70
 80041a2:	2b01      	cmp	r3, #1
 80041a4:	d022      	beq.n	80041ec <HAL_UART_Transmit_IT+0x58>
 80041a6:	2301      	movs	r3, #1
 80041a8:	f880 3070 	strb.w	r3, [r0, #112]	; 0x70
 80041ac:	2300      	movs	r3, #0
 80041ae:	f8a0 2052 	strh.w	r2, [r0, #82]	; 0x52
 80041b2:	6643      	str	r3, [r0, #100]	; 0x64
 80041b4:	67c3      	str	r3, [r0, #124]	; 0x7c
 80041b6:	2321      	movs	r3, #33	; 0x21
 80041b8:	6743      	str	r3, [r0, #116]	; 0x74
 80041ba:	6883      	ldr	r3, [r0, #8]
 80041bc:	64c1      	str	r1, [r0, #76]	; 0x4c
 80041be:	f5b3 5f80 	cmp.w	r3, #4096	; 0x1000
 80041c2:	f8a0 2050 	strh.w	r2, [r0, #80]	; 0x50
 80041c6:	d10d      	bne.n	80041e4 <HAL_UART_Transmit_IT+0x50>
 80041c8:	6903      	ldr	r3, [r0, #16]
 80041ca:	b95b      	cbnz	r3, 80041e4 <HAL_UART_Transmit_IT+0x50>
 80041cc:	4b08      	ldr	r3, [pc, #32]	; (80041f0 <HAL_UART_Transmit_IT+0x5c>)
 80041ce:	6801      	ldr	r1, [r0, #0]
 80041d0:	6643      	str	r3, [r0, #100]	; 0x64
 80041d2:	680a      	ldr	r2, [r1, #0]
 80041d4:	2300      	movs	r3, #0
 80041d6:	f042 0280 	orr.w	r2, r2, #128	; 0x80
 80041da:	f880 3070 	strb.w	r3, [r0, #112]	; 0x70
 80041de:	600a      	str	r2, [r1, #0]
 80041e0:	4618      	mov	r0, r3
 80041e2:	4770      	bx	lr
 80041e4:	4b03      	ldr	r3, [pc, #12]	; (80041f4 <HAL_UART_Transmit_IT+0x60>)
 80041e6:	e7f2      	b.n	80041ce <HAL_UART_Transmit_IT+0x3a>
 80041e8:	2001      	movs	r0, #1
 80041ea:	4770      	bx	lr
 80041ec:	2002      	movs	r0, #2
 80041ee:	4770      	bx	lr
 80041f0:	0800411b 	.word	0x0800411b
 80041f4:	08004159 	.word	0x08004159

080041f8 <HAL_UART_Receive_IT>:
 80041f8:	6f83      	ldr	r3, [r0, #120]	; 0x78
 80041fa:	2b20      	cmp	r3, #32
 80041fc:	d149      	bne.n	8004292 <HAL_UART_Receive_IT+0x9a>
 80041fe:	2900      	cmp	r1, #0
 8004200:	d045      	beq.n	800428e <HAL_UART_Receive_IT+0x96>
 8004202:	2a00      	cmp	r2, #0
 8004204:	d043      	beq.n	800428e <HAL_UART_Receive_IT+0x96>
 8004206:	f890 3070 	ldrb.w	r3, [r0, #112]	; 0x70
 800420a:	2b01      	cmp	r3, #1
 800420c:	d041      	beq.n	8004292 <HAL_UART_Receive_IT+0x9a>
 800420e:	2301      	movs	r3, #1
 8004210:	f880 3070 	strb.w	r3, [r0, #112]	; 0x70
 8004214:	6883      	ldr	r3, [r0, #8]
 8004216:	f8a0 2058 	strh.w	r2, [r0, #88]	; 0x58
 800421a:	f8a0 205a 	strh.w	r2, [r0, #90]	; 0x5a
 800421e:	f5b3 5f80 	cmp.w	r3, #4096	; 0x1000
 8004222:	f04f 0200 	mov.w	r2, #0
 8004226:	6541      	str	r1, [r0, #84]	; 0x54
 8004228:	6602      	str	r2, [r0, #96]	; 0x60
 800422a:	d120      	bne.n	800426e <HAL_UART_Receive_IT+0x76>
 800422c:	6902      	ldr	r2, [r0, #16]
 800422e:	b9e2      	cbnz	r2, 800426a <HAL_UART_Receive_IT+0x72>
 8004230:	f240 12ff 	movw	r2, #511	; 0x1ff
 8004234:	f8a0 205c 	strh.w	r2, [r0, #92]	; 0x5c
 8004238:	2200      	movs	r2, #0
 800423a:	67c2      	str	r2, [r0, #124]	; 0x7c
 800423c:	2222      	movs	r2, #34	; 0x22
 800423e:	6782      	str	r2, [r0, #120]	; 0x78
 8004240:	6802      	ldr	r2, [r0, #0]
 8004242:	6891      	ldr	r1, [r2, #8]
 8004244:	f5b3 5f80 	cmp.w	r3, #4096	; 0x1000
 8004248:	f041 0101 	orr.w	r1, r1, #1
 800424c:	6091      	str	r1, [r2, #8]
 800424e:	d11c      	bne.n	800428a <HAL_UART_Receive_IT+0x92>
 8004250:	6903      	ldr	r3, [r0, #16]
 8004252:	b9d3      	cbnz	r3, 800428a <HAL_UART_Receive_IT+0x92>
 8004254:	4b10      	ldr	r3, [pc, #64]	; (8004298 <HAL_UART_Receive_IT+0xa0>)
 8004256:	6811      	ldr	r1, [r2, #0]
 8004258:	6603      	str	r3, [r0, #96]	; 0x60
 800425a:	f441 7190 	orr.w	r1, r1, #288	; 0x120
 800425e:	2300      	movs	r3, #0
 8004260:	f880 3070 	strb.w	r3, [r0, #112]	; 0x70
 8004264:	6011      	str	r1, [r2, #0]
 8004266:	4618      	mov	r0, r3
 8004268:	4770      	bx	lr
 800426a:	22ff      	movs	r2, #255	; 0xff
 800426c:	e7e2      	b.n	8004234 <HAL_UART_Receive_IT+0x3c>
 800426e:	b923      	cbnz	r3, 800427a <HAL_UART_Receive_IT+0x82>
 8004270:	6902      	ldr	r2, [r0, #16]
 8004272:	2a00      	cmp	r2, #0
 8004274:	d0f9      	beq.n	800426a <HAL_UART_Receive_IT+0x72>
 8004276:	227f      	movs	r2, #127	; 0x7f
 8004278:	e7dc      	b.n	8004234 <HAL_UART_Receive_IT+0x3c>
 800427a:	f1b3 5f80 	cmp.w	r3, #268435456	; 0x10000000
 800427e:	d1d9      	bne.n	8004234 <HAL_UART_Receive_IT+0x3c>
 8004280:	6902      	ldr	r2, [r0, #16]
 8004282:	2a00      	cmp	r2, #0
 8004284:	d0f7      	beq.n	8004276 <HAL_UART_Receive_IT+0x7e>
 8004286:	223f      	movs	r2, #63	; 0x3f
 8004288:	e7d4      	b.n	8004234 <HAL_UART_Receive_IT+0x3c>
 800428a:	4b04      	ldr	r3, [pc, #16]	; (800429c <HAL_UART_Receive_IT+0xa4>)
 800428c:	e7e3      	b.n	8004256 <HAL_UART_Receive_IT+0x5e>
 800428e:	2001      	movs	r0, #1
 8004290:	4770      	bx	lr
 8004292:	2002      	movs	r0, #2
 8004294:	4770      	bx	lr
 8004296:	bf00      	nop
 8004298:	080042f9 	.word	0x080042f9
 800429c:	080042a1 	.word	0x080042a1

080042a0 <UART_RxISR_8BIT>:
 80042a0:	6f81      	ldr	r1, [r0, #120]	; 0x78
 80042a2:	6802      	ldr	r2, [r0, #0]
 80042a4:	2922      	cmp	r1, #34	; 0x22
 80042a6:	b510      	push	{r4, lr}
 80042a8:	d121      	bne.n	80042ee <UART_RxISR_8BIT+0x4e>
 80042aa:	8c92      	ldrh	r2, [r2, #36]	; 0x24
 80042ac:	f890 405c 	ldrb.w	r4, [r0, #92]	; 0x5c
 80042b0:	6d41      	ldr	r1, [r0, #84]	; 0x54
 80042b2:	4022      	ands	r2, r4
 80042b4:	700a      	strb	r2, [r1, #0]
 80042b6:	6d42      	ldr	r2, [r0, #84]	; 0x54
 80042b8:	3201      	adds	r2, #1
 80042ba:	6542      	str	r2, [r0, #84]	; 0x54
 80042bc:	f8b0 205a 	ldrh.w	r2, [r0, #90]	; 0x5a
 80042c0:	3a01      	subs	r2, #1
 80042c2:	b292      	uxth	r2, r2
 80042c4:	f8a0 205a 	strh.w	r2, [r0, #90]	; 0x5a
 80042c8:	f8b0 205a 	ldrh.w	r2, [r0, #90]	; 0x5a
 80042cc:	b292      	uxth	r2, r2
 80042ce:	b96a      	cbnz	r2, 80042ec <UART_RxISR_8BIT+0x4c>
 80042d0:	6801      	ldr	r1, [r0, #0]
 80042d2:	680c      	ldr	r4, [r1, #0]
 80042d4:	f424 7490 	bic.w	r4, r4, #288	; 0x120
 80042d8:	600c      	str	r4, [r1, #0]
 80042da:	688c      	ldr	r4, [r1, #8]
 80042dc:	f024 0401 	bic.w	r4, r4, #1
 80042e0:	608c      	str	r4, [r1, #8]
 80042e2:	2120      	movs	r1, #32
 80042e4:	6781      	str	r1, [r0, #120]	; 0x78
 80042e6:	6602      	str	r2, [r0, #96]	; 0x60
 80042e8:	f7fd fd9c 	bl	8001e24 <HAL_UART_RxCpltCallback>
 80042ec:	bd10      	pop	{r4, pc}
 80042ee:	8b13      	ldrh	r3, [r2, #24]
 80042f0:	f043 0308 	orr.w	r3, r3, #8
 80042f4:	8313      	strh	r3, [r2, #24]
 80042f6:	e7f9      	b.n	80042ec <UART_RxISR_8BIT+0x4c>

080042f8 <UART_RxISR_16BIT>:
 80042f8:	6f81      	ldr	r1, [r0, #120]	; 0x78
 80042fa:	6802      	ldr	r2, [r0, #0]
 80042fc:	2922      	cmp	r1, #34	; 0x22
 80042fe:	b510      	push	{r4, lr}
 8004300:	d11f      	bne.n	8004342 <UART_RxISR_16BIT+0x4a>
 8004302:	8c94      	ldrh	r4, [r2, #36]	; 0x24
 8004304:	f8b0 105c 	ldrh.w	r1, [r0, #92]	; 0x5c
 8004308:	400c      	ands	r4, r1
 800430a:	6d41      	ldr	r1, [r0, #84]	; 0x54
 800430c:	f821 4b02 	strh.w	r4, [r1], #2
 8004310:	6541      	str	r1, [r0, #84]	; 0x54
 8004312:	f8b0 105a 	ldrh.w	r1, [r0, #90]	; 0x5a
 8004316:	3901      	subs	r1, #1
 8004318:	b289      	uxth	r1, r1
 800431a:	f8a0 105a 	strh.w	r1, [r0, #90]	; 0x5a
 800431e:	f8b0 105a 	ldrh.w	r1, [r0, #90]	; 0x5a
 8004322:	b289      	uxth	r1, r1
 8004324:	b961      	cbnz	r1, 8004340 <UART_RxISR_16BIT+0x48>
 8004326:	6814      	ldr	r4, [r2, #0]
 8004328:	f424 7490 	bic.w	r4, r4, #288	; 0x120
 800432c:	6014      	str	r4, [r2, #0]
 800432e:	6894      	ldr	r4, [r2, #8]
 8004330:	f024 0401 	bic.w	r4, r4, #1
 8004334:	6094      	str	r4, [r2, #8]
 8004336:	2220      	movs	r2, #32
 8004338:	6782      	str	r2, [r0, #120]	; 0x78
 800433a:	6601      	str	r1, [r0, #96]	; 0x60
 800433c:	f7fd fd72 	bl	8001e24 <HAL_UART_RxCpltCallback>
 8004340:	bd10      	pop	{r4, pc}
 8004342:	8b13      	ldrh	r3, [r2, #24]
 8004344:	f043 0308 	orr.w	r3, r3, #8
 8004348:	8313      	strh	r3, [r2, #24]
 800434a:	e7f9      	b.n	8004340 <UART_RxISR_16BIT+0x48>

0800434c <HAL_UART_ErrorCallback>:
 800434c:	4770      	bx	lr
	...

08004350 <HAL_UART_IRQHandler>:
 8004350:	6803      	ldr	r3, [r0, #0]
 8004352:	69da      	ldr	r2, [r3, #28]
 8004354:	6819      	ldr	r1, [r3, #0]
 8004356:	b570      	push	{r4, r5, r6, lr}
 8004358:	f640 060f 	movw	r6, #2063	; 0x80f
 800435c:	4232      	tst	r2, r6
 800435e:	4604      	mov	r4, r0
 8004360:	689d      	ldr	r5, [r3, #8]
 8004362:	d109      	bne.n	8004378 <HAL_UART_IRQHandler+0x28>
 8004364:	0696      	lsls	r6, r2, #26
 8004366:	d56e      	bpl.n	8004446 <HAL_UART_IRQHandler+0xf6>
 8004368:	068e      	lsls	r6, r1, #26
 800436a:	d56c      	bpl.n	8004446 <HAL_UART_IRQHandler+0xf6>
 800436c:	6e03      	ldr	r3, [r0, #96]	; 0x60
 800436e:	2b00      	cmp	r3, #0
 8004370:	d064      	beq.n	800443c <HAL_UART_IRQHandler+0xec>
 8004372:	e8bd 4070 	ldmia.w	sp!, {r4, r5, r6, lr}
 8004376:	4718      	bx	r3
 8004378:	f015 0001 	ands.w	r0, r5, #1
 800437c:	d102      	bne.n	8004384 <HAL_UART_IRQHandler+0x34>
 800437e:	f411 7f90 	tst.w	r1, #288	; 0x120
 8004382:	d060      	beq.n	8004446 <HAL_UART_IRQHandler+0xf6>
 8004384:	07d6      	lsls	r6, r2, #31
 8004386:	d507      	bpl.n	8004398 <HAL_UART_IRQHandler+0x48>
 8004388:	05cd      	lsls	r5, r1, #23
 800438a:	d505      	bpl.n	8004398 <HAL_UART_IRQHandler+0x48>
 800438c:	2501      	movs	r5, #1
 800438e:	621d      	str	r5, [r3, #32]
 8004390:	6fe5      	ldr	r5, [r4, #124]	; 0x7c
 8004392:	f045 0501 	orr.w	r5, r5, #1
 8004396:	67e5      	str	r5, [r4, #124]	; 0x7c
 8004398:	0796      	lsls	r6, r2, #30
 800439a:	d506      	bpl.n	80043aa <HAL_UART_IRQHandler+0x5a>
 800439c:	b128      	cbz	r0, 80043aa <HAL_UART_IRQHandler+0x5a>
 800439e:	2502      	movs	r5, #2
 80043a0:	621d      	str	r5, [r3, #32]
 80043a2:	6fe5      	ldr	r5, [r4, #124]	; 0x7c
 80043a4:	f045 0504 	orr.w	r5, r5, #4
 80043a8:	67e5      	str	r5, [r4, #124]	; 0x7c
 80043aa:	0755      	lsls	r5, r2, #29
 80043ac:	d506      	bpl.n	80043bc <HAL_UART_IRQHandler+0x6c>
 80043ae:	b128      	cbz	r0, 80043bc <HAL_UART_IRQHandler+0x6c>
 80043b0:	2504      	movs	r5, #4
 80043b2:	621d      	str	r5, [r3, #32]
 80043b4:	6fe5      	ldr	r5, [r4, #124]	; 0x7c
 80043b6:	f045 0502 	orr.w	r5, r5, #2
 80043ba:	67e5      	str	r5, [r4, #124]	; 0x7c
 80043bc:	0716      	lsls	r6, r2, #28
 80043be:	d508      	bpl.n	80043d2 <HAL_UART_IRQHandler+0x82>
 80043c0:	068d      	lsls	r5, r1, #26
 80043c2:	d400      	bmi.n	80043c6 <HAL_UART_IRQHandler+0x76>
 80043c4:	b128      	cbz	r0, 80043d2 <HAL_UART_IRQHandler+0x82>
 80043c6:	2008      	movs	r0, #8
 80043c8:	6218      	str	r0, [r3, #32]
 80043ca:	6fe0      	ldr	r0, [r4, #124]	; 0x7c
 80043cc:	f040 0008 	orr.w	r0, r0, #8
 80043d0:	67e0      	str	r0, [r4, #124]	; 0x7c
 80043d2:	0510      	lsls	r0, r2, #20
 80043d4:	d508      	bpl.n	80043e8 <HAL_UART_IRQHandler+0x98>
 80043d6:	014e      	lsls	r6, r1, #5
 80043d8:	d506      	bpl.n	80043e8 <HAL_UART_IRQHandler+0x98>
 80043da:	f44f 6000 	mov.w	r0, #2048	; 0x800
 80043de:	6218      	str	r0, [r3, #32]
 80043e0:	6fe3      	ldr	r3, [r4, #124]	; 0x7c
 80043e2:	f043 0320 	orr.w	r3, r3, #32
 80043e6:	67e3      	str	r3, [r4, #124]	; 0x7c
 80043e8:	6fe3      	ldr	r3, [r4, #124]	; 0x7c
 80043ea:	b33b      	cbz	r3, 800443c <HAL_UART_IRQHandler+0xec>
 80043ec:	0695      	lsls	r5, r2, #26
 80043ee:	d505      	bpl.n	80043fc <HAL_UART_IRQHandler+0xac>
 80043f0:	0688      	lsls	r0, r1, #26
 80043f2:	d503      	bpl.n	80043fc <HAL_UART_IRQHandler+0xac>
 80043f4:	6e23      	ldr	r3, [r4, #96]	; 0x60
 80043f6:	b10b      	cbz	r3, 80043fc <HAL_UART_IRQHandler+0xac>
 80043f8:	4620      	mov	r0, r4
 80043fa:	4798      	blx	r3
 80043fc:	6822      	ldr	r2, [r4, #0]
 80043fe:	6fe5      	ldr	r5, [r4, #124]	; 0x7c
 8004400:	6892      	ldr	r2, [r2, #8]
 8004402:	0651      	lsls	r1, r2, #25
 8004404:	4620      	mov	r0, r4
 8004406:	d402      	bmi.n	800440e <HAL_UART_IRQHandler+0xbe>
 8004408:	f015 0528 	ands.w	r5, r5, #40	; 0x28
 800440c:	d017      	beq.n	800443e <HAL_UART_IRQHandler+0xee>
 800440e:	f7ff fe76 	bl	80040fe <UART_EndRxTransfer>
 8004412:	6823      	ldr	r3, [r4, #0]
 8004414:	689a      	ldr	r2, [r3, #8]
 8004416:	0652      	lsls	r2, r2, #25
 8004418:	d50d      	bpl.n	8004436 <HAL_UART_IRQHandler+0xe6>
 800441a:	689a      	ldr	r2, [r3, #8]
 800441c:	6ee0      	ldr	r0, [r4, #108]	; 0x6c
 800441e:	f022 0240 	bic.w	r2, r2, #64	; 0x40
 8004422:	609a      	str	r2, [r3, #8]
 8004424:	b138      	cbz	r0, 8004436 <HAL_UART_IRQHandler+0xe6>
 8004426:	4b1a      	ldr	r3, [pc, #104]	; (8004490 <HAL_UART_IRQHandler+0x140>)
 8004428:	6383      	str	r3, [r0, #56]	; 0x38
 800442a:	f7fe f8b5 	bl	8002598 <HAL_DMA_Abort_IT>
 800442e:	b128      	cbz	r0, 800443c <HAL_UART_IRQHandler+0xec>
 8004430:	6ee0      	ldr	r0, [r4, #108]	; 0x6c
 8004432:	6b83      	ldr	r3, [r0, #56]	; 0x38
 8004434:	e79d      	b.n	8004372 <HAL_UART_IRQHandler+0x22>
 8004436:	4620      	mov	r0, r4
 8004438:	f7ff ff88 	bl	800434c <HAL_UART_ErrorCallback>
 800443c:	bd70      	pop	{r4, r5, r6, pc}
 800443e:	f7ff ff85 	bl	800434c <HAL_UART_ErrorCallback>
 8004442:	67e5      	str	r5, [r4, #124]	; 0x7c
 8004444:	e7fa      	b.n	800443c <HAL_UART_IRQHandler+0xec>
 8004446:	02d6      	lsls	r6, r2, #11
 8004448:	d509      	bpl.n	800445e <HAL_UART_IRQHandler+0x10e>
 800444a:	0268      	lsls	r0, r5, #9
 800444c:	d507      	bpl.n	800445e <HAL_UART_IRQHandler+0x10e>
 800444e:	f44f 1280 	mov.w	r2, #1048576	; 0x100000
 8004452:	4620      	mov	r0, r4
 8004454:	621a      	str	r2, [r3, #32]
 8004456:	e8bd 4070 	ldmia.w	sp!, {r4, r5, r6, lr}
 800445a:	f000 bab1 	b.w	80049c0 <HAL_UARTEx_WakeupCallback>
 800445e:	0616      	lsls	r6, r2, #24
 8004460:	d506      	bpl.n	8004470 <HAL_UART_IRQHandler+0x120>
 8004462:	060d      	lsls	r5, r1, #24
 8004464:	d504      	bpl.n	8004470 <HAL_UART_IRQHandler+0x120>
 8004466:	6e63      	ldr	r3, [r4, #100]	; 0x64
 8004468:	2b00      	cmp	r3, #0
 800446a:	d0e7      	beq.n	800443c <HAL_UART_IRQHandler+0xec>
 800446c:	4620      	mov	r0, r4
 800446e:	e780      	b.n	8004372 <HAL_UART_IRQHandler+0x22>
 8004470:	0650      	lsls	r0, r2, #25
 8004472:	d5e3      	bpl.n	800443c <HAL_UART_IRQHandler+0xec>
 8004474:	064a      	lsls	r2, r1, #25
 8004476:	d5e1      	bpl.n	800443c <HAL_UART_IRQHandler+0xec>
 8004478:	681a      	ldr	r2, [r3, #0]
 800447a:	f022 0240 	bic.w	r2, r2, #64	; 0x40
 800447e:	601a      	str	r2, [r3, #0]
 8004480:	2320      	movs	r3, #32
 8004482:	6763      	str	r3, [r4, #116]	; 0x74
 8004484:	2300      	movs	r3, #0
 8004486:	6663      	str	r3, [r4, #100]	; 0x64
 8004488:	4620      	mov	r0, r4
 800448a:	f7fd fe95 	bl	80021b8 <HAL_UART_TxCpltCallback>
 800448e:	e7d5      	b.n	800443c <HAL_UART_IRQHandler+0xec>
 8004490:	08004495 	.word	0x08004495

08004494 <UART_DMAAbortOnError>:
 8004494:	b508      	push	{r3, lr}
 8004496:	6a80      	ldr	r0, [r0, #40]	; 0x28
 8004498:	2300      	movs	r3, #0
 800449a:	f8a0 305a 	strh.w	r3, [r0, #90]	; 0x5a
 800449e:	f8a0 3052 	strh.w	r3, [r0, #82]	; 0x52
 80044a2:	f7ff ff53 	bl	800434c <HAL_UART_ErrorCallback>
 80044a6:	bd08      	pop	{r3, pc}

080044a8 <UART_SetConfig>:
 80044a8:	6802      	ldr	r2, [r0, #0]
 80044aa:	69c1      	ldr	r1, [r0, #28]
 80044ac:	b5f8      	push	{r3, r4, r5, r6, r7, lr}
 80044ae:	4604      	mov	r4, r0
 80044b0:	6883      	ldr	r3, [r0, #8]
 80044b2:	6900      	ldr	r0, [r0, #16]
 80044b4:	6815      	ldr	r5, [r2, #0]
 80044b6:	4303      	orrs	r3, r0
 80044b8:	6960      	ldr	r0, [r4, #20]
 80044ba:	4303      	orrs	r3, r0
 80044bc:	48ba      	ldr	r0, [pc, #744]	; (80047a8 <UART_SetConfig+0x300>)
 80044be:	430b      	orrs	r3, r1
 80044c0:	4028      	ands	r0, r5
 80044c2:	4303      	orrs	r3, r0
 80044c4:	6013      	str	r3, [r2, #0]
 80044c6:	6853      	ldr	r3, [r2, #4]
 80044c8:	68e0      	ldr	r0, [r4, #12]
 80044ca:	f423 5340 	bic.w	r3, r3, #12288	; 0x3000
 80044ce:	4303      	orrs	r3, r0
 80044d0:	6053      	str	r3, [r2, #4]
 80044d2:	4bb6      	ldr	r3, [pc, #728]	; (80047ac <UART_SetConfig+0x304>)
 80044d4:	69a0      	ldr	r0, [r4, #24]
 80044d6:	429a      	cmp	r2, r3
 80044d8:	bf1c      	itt	ne
 80044da:	6a23      	ldrne	r3, [r4, #32]
 80044dc:	4318      	orrne	r0, r3
 80044de:	6893      	ldr	r3, [r2, #8]
 80044e0:	f423 6330 	bic.w	r3, r3, #2816	; 0xb00
 80044e4:	4303      	orrs	r3, r0
 80044e6:	6093      	str	r3, [r2, #8]
 80044e8:	4bb1      	ldr	r3, [pc, #708]	; (80047b0 <UART_SetConfig+0x308>)
 80044ea:	429a      	cmp	r2, r3
 80044ec:	d119      	bne.n	8004522 <UART_SetConfig+0x7a>
 80044ee:	f503 4358 	add.w	r3, r3, #55296	; 0xd800
 80044f2:	4ab0      	ldr	r2, [pc, #704]	; (80047b4 <UART_SetConfig+0x30c>)
 80044f4:	f8d3 3088 	ldr.w	r3, [r3, #136]	; 0x88
 80044f8:	f003 0303 	and.w	r3, r3, #3
 80044fc:	f5b1 4f00 	cmp.w	r1, #32768	; 0x8000
 8004500:	5cd3      	ldrb	r3, [r2, r3]
 8004502:	f040 8139 	bne.w	8004778 <UART_SetConfig+0x2d0>
 8004506:	2b08      	cmp	r3, #8
 8004508:	f200 80d5 	bhi.w	80046b6 <UART_SetConfig+0x20e>
 800450c:	e8df f013 	tbh	[pc, r3, lsl #1]
 8004510:	00d0011b 	.word	0x00d0011b
 8004514:	00d30102 	.word	0x00d30102
 8004518:	00d30115 	.word	0x00d30115
 800451c:	00d300d3 	.word	0x00d300d3
 8004520:	0039      	.short	0x0039
 8004522:	4ba5      	ldr	r3, [pc, #660]	; (80047b8 <UART_SetConfig+0x310>)
 8004524:	429a      	cmp	r2, r3
 8004526:	d107      	bne.n	8004538 <UART_SetConfig+0x90>
 8004528:	f503 33e6 	add.w	r3, r3, #117760	; 0x1cc00
 800452c:	4aa3      	ldr	r2, [pc, #652]	; (80047bc <UART_SetConfig+0x314>)
 800452e:	f8d3 3088 	ldr.w	r3, [r3, #136]	; 0x88
 8004532:	f003 030c 	and.w	r3, r3, #12
 8004536:	e7e1      	b.n	80044fc <UART_SetConfig+0x54>
 8004538:	4ba1      	ldr	r3, [pc, #644]	; (80047c0 <UART_SetConfig+0x318>)
 800453a:	429a      	cmp	r2, r3
 800453c:	d126      	bne.n	800458c <UART_SetConfig+0xe4>
 800453e:	f503 33e4 	add.w	r3, r3, #116736	; 0x1c800
 8004542:	f8d3 3088 	ldr.w	r3, [r3, #136]	; 0x88
 8004546:	f003 0330 	and.w	r3, r3, #48	; 0x30
 800454a:	2b10      	cmp	r3, #16
 800454c:	f000 80eb 	beq.w	8004726 <UART_SetConfig+0x27e>
 8004550:	d80b      	bhi.n	800456a <UART_SetConfig+0xc2>
 8004552:	2b00      	cmp	r3, #0
 8004554:	d056      	beq.n	8004604 <UART_SetConfig+0x15c>
 8004556:	4b95      	ldr	r3, [pc, #596]	; (80047ac <UART_SetConfig+0x304>)
 8004558:	429a      	cmp	r2, r3
 800455a:	d064      	beq.n	8004626 <UART_SetConfig+0x17e>
 800455c:	f5b1 4f00 	cmp.w	r1, #32768	; 0x8000
 8004560:	f000 80a9 	beq.w	80046b6 <UART_SetConfig+0x20e>
 8004564:	2201      	movs	r2, #1
 8004566:	2300      	movs	r3, #0
 8004568:	e0b1      	b.n	80046ce <UART_SetConfig+0x226>
 800456a:	2b20      	cmp	r3, #32
 800456c:	f000 80cc 	beq.w	8004708 <UART_SetConfig+0x260>
 8004570:	2b30      	cmp	r3, #48	; 0x30
 8004572:	d1f0      	bne.n	8004556 <UART_SetConfig+0xae>
 8004574:	4b8d      	ldr	r3, [pc, #564]	; (80047ac <UART_SetConfig+0x304>)
 8004576:	429a      	cmp	r2, r3
 8004578:	d05b      	beq.n	8004632 <UART_SetConfig+0x18a>
 800457a:	f5b1 4f00 	cmp.w	r1, #32768	; 0x8000
 800457e:	f040 80be 	bne.w	80046fe <UART_SetConfig+0x256>
 8004582:	6860      	ldr	r0, [r4, #4]
 8004584:	0843      	lsrs	r3, r0, #1
 8004586:	f503 3380 	add.w	r3, r3, #65536	; 0x10000
 800458a:	e0c9      	b.n	8004720 <UART_SetConfig+0x278>
 800458c:	4b8d      	ldr	r3, [pc, #564]	; (80047c4 <UART_SetConfig+0x31c>)
 800458e:	429a      	cmp	r2, r3
 8004590:	d10e      	bne.n	80045b0 <UART_SetConfig+0x108>
 8004592:	f503 33e2 	add.w	r3, r3, #115712	; 0x1c400
 8004596:	f8d3 3088 	ldr.w	r3, [r3, #136]	; 0x88
 800459a:	f003 03c0 	and.w	r3, r3, #192	; 0xc0
 800459e:	2b40      	cmp	r3, #64	; 0x40
 80045a0:	f000 80c1 	beq.w	8004726 <UART_SetConfig+0x27e>
 80045a4:	d9d5      	bls.n	8004552 <UART_SetConfig+0xaa>
 80045a6:	2b80      	cmp	r3, #128	; 0x80
 80045a8:	f000 80ae 	beq.w	8004708 <UART_SetConfig+0x260>
 80045ac:	2bc0      	cmp	r3, #192	; 0xc0
 80045ae:	e7e0      	b.n	8004572 <UART_SetConfig+0xca>
 80045b0:	4b85      	ldr	r3, [pc, #532]	; (80047c8 <UART_SetConfig+0x320>)
 80045b2:	429a      	cmp	r2, r3
 80045b4:	d111      	bne.n	80045da <UART_SetConfig+0x132>
 80045b6:	f503 33e0 	add.w	r3, r3, #114688	; 0x1c000
 80045ba:	f8d3 3088 	ldr.w	r3, [r3, #136]	; 0x88
 80045be:	f403 7340 	and.w	r3, r3, #768	; 0x300
 80045c2:	f5b3 7f80 	cmp.w	r3, #256	; 0x100
 80045c6:	f000 80ae 	beq.w	8004726 <UART_SetConfig+0x27e>
 80045ca:	d9c2      	bls.n	8004552 <UART_SetConfig+0xaa>
 80045cc:	f5b3 7f00 	cmp.w	r3, #512	; 0x200
 80045d0:	f000 809a 	beq.w	8004708 <UART_SetConfig+0x260>
 80045d4:	f5b3 7f40 	cmp.w	r3, #768	; 0x300
 80045d8:	e7cb      	b.n	8004572 <UART_SetConfig+0xca>
 80045da:	4b74      	ldr	r3, [pc, #464]	; (80047ac <UART_SetConfig+0x304>)
 80045dc:	429a      	cmp	r2, r3
 80045de:	d1bd      	bne.n	800455c <UART_SetConfig+0xb4>
 80045e0:	f503 33c8 	add.w	r3, r3, #102400	; 0x19000
 80045e4:	f8d3 3088 	ldr.w	r3, [r3, #136]	; 0x88
 80045e8:	f403 6340 	and.w	r3, r3, #3072	; 0xc00
 80045ec:	f5b3 6f80 	cmp.w	r3, #1024	; 0x400
 80045f0:	f000 8099 	beq.w	8004726 <UART_SetConfig+0x27e>
 80045f4:	d9ad      	bls.n	8004552 <UART_SetConfig+0xaa>
 80045f6:	f5b3 6f00 	cmp.w	r3, #2048	; 0x800
 80045fa:	f000 8085 	beq.w	8004708 <UART_SetConfig+0x260>
 80045fe:	f5b3 6f40 	cmp.w	r3, #3072	; 0xc00
 8004602:	e7b6      	b.n	8004572 <UART_SetConfig+0xca>
 8004604:	4b69      	ldr	r3, [pc, #420]	; (80047ac <UART_SetConfig+0x304>)
 8004606:	429a      	cmp	r2, r3
 8004608:	f040 809a 	bne.w	8004740 <UART_SetConfig+0x298>
 800460c:	f7ff f8ce 	bl	80037ac <HAL_RCC_GetPCLK1Freq>
 8004610:	2300      	movs	r3, #0
 8004612:	b918      	cbnz	r0, 800461c <UART_SetConfig+0x174>
 8004614:	4602      	mov	r2, r0
 8004616:	e007      	b.n	8004628 <UART_SetConfig+0x180>
 8004618:	486c      	ldr	r0, [pc, #432]	; (80047cc <UART_SetConfig+0x324>)
 800461a:	2302      	movs	r3, #2
 800461c:	6862      	ldr	r2, [r4, #4]
 800461e:	eb02 0142 	add.w	r1, r2, r2, lsl #1
 8004622:	4281      	cmp	r1, r0
 8004624:	d909      	bls.n	800463a <UART_SetConfig+0x192>
 8004626:	2201      	movs	r2, #1
 8004628:	2300      	movs	r3, #0
 800462a:	e9c4 3318 	strd	r3, r3, [r4, #96]	; 0x60
 800462e:	4610      	mov	r0, r2
 8004630:	bdf8      	pop	{r3, r4, r5, r6, r7, pc}
 8004632:	2308      	movs	r3, #8
 8004634:	f44f 4000 	mov.w	r0, #32768	; 0x8000
 8004638:	e7f0      	b.n	800461c <UART_SetConfig+0x174>
 800463a:	ebb0 3f02 	cmp.w	r0, r2, lsl #12
 800463e:	d8f2      	bhi.n	8004626 <UART_SetConfig+0x17e>
 8004640:	2b08      	cmp	r3, #8
 8004642:	d832      	bhi.n	80046aa <UART_SetConfig+0x202>
 8004644:	e8df f003 	tbb	[pc, r3]
 8004648:	31123105 	.word	0x31123105
 800464c:	31313125 	.word	0x31313125
 8004650:	28          	.byte	0x28
 8004651:	00          	.byte	0x00
 8004652:	f7ff f8ab 	bl	80037ac <HAL_RCC_GetPCLK1Freq>
 8004656:	6862      	ldr	r2, [r4, #4]
 8004658:	f44f 7180 	mov.w	r1, #256	; 0x100
 800465c:	0856      	lsrs	r6, r2, #1
 800465e:	2700      	movs	r7, #0
 8004660:	fbe1 6700 	umlal	r6, r7, r1, r0
 8004664:	2300      	movs	r3, #0
 8004666:	4630      	mov	r0, r6
 8004668:	4639      	mov	r1, r7
 800466a:	e007      	b.n	800467c <UART_SetConfig+0x1d4>
 800466c:	4e58      	ldr	r6, [pc, #352]	; (80047d0 <UART_SetConfig+0x328>)
 800466e:	0855      	lsrs	r5, r2, #1
 8004670:	2700      	movs	r7, #0
 8004672:	1970      	adds	r0, r6, r5
 8004674:	f04f 0300 	mov.w	r3, #0
 8004678:	f147 0100 	adc.w	r1, r7, #0
 800467c:	f7fb fe10 	bl	80002a0 <__aeabi_uldivmod>
 8004680:	2200      	movs	r2, #0
 8004682:	4b54      	ldr	r3, [pc, #336]	; (80047d4 <UART_SetConfig+0x32c>)
 8004684:	f5a0 7140 	sub.w	r1, r0, #768	; 0x300
 8004688:	4299      	cmp	r1, r3
 800468a:	d8cc      	bhi.n	8004626 <UART_SetConfig+0x17e>
 800468c:	6823      	ldr	r3, [r4, #0]
 800468e:	60d8      	str	r0, [r3, #12]
 8004690:	e7ca      	b.n	8004628 <UART_SetConfig+0x180>
 8004692:	f7fe fd23 	bl	80030dc <HAL_RCC_GetSysClockFreq>
 8004696:	e7de      	b.n	8004656 <UART_SetConfig+0x1ae>
 8004698:	0850      	lsrs	r0, r2, #1
 800469a:	2600      	movs	r6, #0
 800469c:	f510 0000 	adds.w	r0, r0, #8388608	; 0x800000
 80046a0:	f04f 0300 	mov.w	r3, #0
 80046a4:	f146 0100 	adc.w	r1, r6, #0
 80046a8:	e7e8      	b.n	800467c <UART_SetConfig+0x1d4>
 80046aa:	2201      	movs	r2, #1
 80046ac:	2000      	movs	r0, #0
 80046ae:	e7e8      	b.n	8004682 <UART_SetConfig+0x1da>
 80046b0:	f7ff f88e 	bl	80037d0 <HAL_RCC_GetPCLK2Freq>
 80046b4:	e049      	b.n	800474a <UART_SetConfig+0x2a2>
 80046b6:	2201      	movs	r2, #1
 80046b8:	2300      	movs	r3, #0
 80046ba:	e04e      	b.n	800475a <UART_SetConfig+0x2b2>
 80046bc:	f7ff f876 	bl	80037ac <HAL_RCC_GetPCLK1Freq>
 80046c0:	6862      	ldr	r2, [r4, #4]
 80046c2:	eb00 0352 	add.w	r3, r0, r2, lsr #1
 80046c6:	fbb3 f3f2 	udiv	r3, r3, r2
 80046ca:	b29b      	uxth	r3, r3
 80046cc:	2200      	movs	r2, #0
 80046ce:	f1a3 0010 	sub.w	r0, r3, #16
 80046d2:	f64f 71ef 	movw	r1, #65519	; 0xffef
 80046d6:	4288      	cmp	r0, r1
 80046d8:	d8a5      	bhi.n	8004626 <UART_SetConfig+0x17e>
 80046da:	6821      	ldr	r1, [r4, #0]
 80046dc:	60cb      	str	r3, [r1, #12]
 80046de:	e7a3      	b.n	8004628 <UART_SetConfig+0x180>
 80046e0:	f7ff f876 	bl	80037d0 <HAL_RCC_GetPCLK2Freq>
 80046e4:	e7ec      	b.n	80046c0 <UART_SetConfig+0x218>
 80046e6:	6860      	ldr	r0, [r4, #4]
 80046e8:	0843      	lsrs	r3, r0, #1
 80046ea:	f503 0374 	add.w	r3, r3, #15990784	; 0xf40000
 80046ee:	f503 5310 	add.w	r3, r3, #9216	; 0x2400
 80046f2:	fbb3 f3f0 	udiv	r3, r3, r0
 80046f6:	e7e8      	b.n	80046ca <UART_SetConfig+0x222>
 80046f8:	f7fe fcf0 	bl	80030dc <HAL_RCC_GetSysClockFreq>
 80046fc:	e7e0      	b.n	80046c0 <UART_SetConfig+0x218>
 80046fe:	6860      	ldr	r0, [r4, #4]
 8004700:	0843      	lsrs	r3, r0, #1
 8004702:	f503 4300 	add.w	r3, r3, #32768	; 0x8000
 8004706:	e7f4      	b.n	80046f2 <UART_SetConfig+0x24a>
 8004708:	4b28      	ldr	r3, [pc, #160]	; (80047ac <UART_SetConfig+0x304>)
 800470a:	429a      	cmp	r2, r3
 800470c:	d084      	beq.n	8004618 <UART_SetConfig+0x170>
 800470e:	f5b1 4f00 	cmp.w	r1, #32768	; 0x8000
 8004712:	d1e8      	bne.n	80046e6 <UART_SetConfig+0x23e>
 8004714:	6860      	ldr	r0, [r4, #4]
 8004716:	0843      	lsrs	r3, r0, #1
 8004718:	f103 73f4 	add.w	r3, r3, #31981568	; 0x1e80000
 800471c:	f503 4390 	add.w	r3, r3, #18432	; 0x4800
 8004720:	fbb3 f3f0 	udiv	r3, r3, r0
 8004724:	e017      	b.n	8004756 <UART_SetConfig+0x2ae>
 8004726:	4b21      	ldr	r3, [pc, #132]	; (80047ac <UART_SetConfig+0x304>)
 8004728:	429a      	cmp	r2, r3
 800472a:	d103      	bne.n	8004734 <UART_SetConfig+0x28c>
 800472c:	f7fe fcd6 	bl	80030dc <HAL_RCC_GetSysClockFreq>
 8004730:	2304      	movs	r3, #4
 8004732:	e76e      	b.n	8004612 <UART_SetConfig+0x16a>
 8004734:	f5b1 4f00 	cmp.w	r1, #32768	; 0x8000
 8004738:	d1de      	bne.n	80046f8 <UART_SetConfig+0x250>
 800473a:	f7fe fccf 	bl	80030dc <HAL_RCC_GetSysClockFreq>
 800473e:	e004      	b.n	800474a <UART_SetConfig+0x2a2>
 8004740:	f5b1 4f00 	cmp.w	r1, #32768	; 0x8000
 8004744:	d1ba      	bne.n	80046bc <UART_SetConfig+0x214>
 8004746:	f7ff f831 	bl	80037ac <HAL_RCC_GetPCLK1Freq>
 800474a:	6861      	ldr	r1, [r4, #4]
 800474c:	084a      	lsrs	r2, r1, #1
 800474e:	eb02 0340 	add.w	r3, r2, r0, lsl #1
 8004752:	fbb3 f3f1 	udiv	r3, r3, r1
 8004756:	b29b      	uxth	r3, r3
 8004758:	2200      	movs	r2, #0
 800475a:	f1a3 0010 	sub.w	r0, r3, #16
 800475e:	f64f 71ef 	movw	r1, #65519	; 0xffef
 8004762:	4288      	cmp	r0, r1
 8004764:	f63f af5f 	bhi.w	8004626 <UART_SetConfig+0x17e>
 8004768:	f023 010f 	bic.w	r1, r3, #15
 800476c:	6820      	ldr	r0, [r4, #0]
 800476e:	f3c3 0342 	ubfx	r3, r3, #1, #3
 8004772:	430b      	orrs	r3, r1
 8004774:	60c3      	str	r3, [r0, #12]
 8004776:	e757      	b.n	8004628 <UART_SetConfig+0x180>
 8004778:	2b08      	cmp	r3, #8
 800477a:	f63f af54 	bhi.w	8004626 <UART_SetConfig+0x17e>
 800477e:	a201      	add	r2, pc, #4	; (adr r2, 8004784 <UART_SetConfig+0x2dc>)
 8004780:	f852 f023 	ldr.w	pc, [r2, r3, lsl #2]
 8004784:	080046bd 	.word	0x080046bd
 8004788:	080046e1 	.word	0x080046e1
 800478c:	080046e7 	.word	0x080046e7
 8004790:	08004627 	.word	0x08004627
 8004794:	080046f9 	.word	0x080046f9
 8004798:	08004627 	.word	0x08004627
 800479c:	08004627 	.word	0x08004627
 80047a0:	08004627 	.word	0x08004627
 80047a4:	080046ff 	.word	0x080046ff
 80047a8:	efff69f3 	.word	0xefff69f3
 80047ac:	40008000 	.word	0x40008000
 80047b0:	40013800 	.word	0x40013800
 80047b4:	08009878 	.word	0x08009878
 80047b8:	40004400 	.word	0x40004400
 80047bc:	0800987c 	.word	0x0800987c
 80047c0:	40004800 	.word	0x40004800
 80047c4:	40004c00 	.word	0x40004c00
 80047c8:	40005000 	.word	0x40005000
 80047cc:	00f42400 	.word	0x00f42400
 80047d0:	f4240000 	.word	0xf4240000
 80047d4:	000ffcff 	.word	0x000ffcff

080047d8 <UART_AdvFeatureConfig>:
 80047d8:	6a43      	ldr	r3, [r0, #36]	; 0x24
 80047da:	07da      	lsls	r2, r3, #31
 80047dc:	b510      	push	{r4, lr}
 80047de:	d506      	bpl.n	80047ee <UART_AdvFeatureConfig+0x16>
 80047e0:	6801      	ldr	r1, [r0, #0]
 80047e2:	6a84      	ldr	r4, [r0, #40]	; 0x28
 80047e4:	684a      	ldr	r2, [r1, #4]
 80047e6:	f422 3200 	bic.w	r2, r2, #131072	; 0x20000
 80047ea:	4322      	orrs	r2, r4
 80047ec:	604a      	str	r2, [r1, #4]
 80047ee:	079c      	lsls	r4, r3, #30
 80047f0:	d506      	bpl.n	8004800 <UART_AdvFeatureConfig+0x28>
 80047f2:	6801      	ldr	r1, [r0, #0]
 80047f4:	6ac4      	ldr	r4, [r0, #44]	; 0x2c
 80047f6:	684a      	ldr	r2, [r1, #4]
 80047f8:	f422 3280 	bic.w	r2, r2, #65536	; 0x10000
 80047fc:	4322      	orrs	r2, r4
 80047fe:	604a      	str	r2, [r1, #4]
 8004800:	0759      	lsls	r1, r3, #29
 8004802:	d506      	bpl.n	8004812 <UART_AdvFeatureConfig+0x3a>
 8004804:	6801      	ldr	r1, [r0, #0]
 8004806:	6b04      	ldr	r4, [r0, #48]	; 0x30
 8004808:	684a      	ldr	r2, [r1, #4]
 800480a:	f422 2280 	bic.w	r2, r2, #262144	; 0x40000
 800480e:	4322      	orrs	r2, r4
 8004810:	604a      	str	r2, [r1, #4]
 8004812:	071a      	lsls	r2, r3, #28
 8004814:	d506      	bpl.n	8004824 <UART_AdvFeatureConfig+0x4c>
 8004816:	6801      	ldr	r1, [r0, #0]
 8004818:	6b44      	ldr	r4, [r0, #52]	; 0x34
 800481a:	684a      	ldr	r2, [r1, #4]
 800481c:	f422 4200 	bic.w	r2, r2, #32768	; 0x8000
 8004820:	4322      	orrs	r2, r4
 8004822:	604a      	str	r2, [r1, #4]
 8004824:	06dc      	lsls	r4, r3, #27
 8004826:	d506      	bpl.n	8004836 <UART_AdvFeatureConfig+0x5e>
 8004828:	6801      	ldr	r1, [r0, #0]
 800482a:	6b84      	ldr	r4, [r0, #56]	; 0x38
 800482c:	688a      	ldr	r2, [r1, #8]
 800482e:	f422 5280 	bic.w	r2, r2, #4096	; 0x1000
 8004832:	4322      	orrs	r2, r4
 8004834:	608a      	str	r2, [r1, #8]
 8004836:	0699      	lsls	r1, r3, #26
 8004838:	d506      	bpl.n	8004848 <UART_AdvFeatureConfig+0x70>
 800483a:	6801      	ldr	r1, [r0, #0]
 800483c:	6bc4      	ldr	r4, [r0, #60]	; 0x3c
 800483e:	688a      	ldr	r2, [r1, #8]
 8004840:	f422 5200 	bic.w	r2, r2, #8192	; 0x2000
 8004844:	4322      	orrs	r2, r4
 8004846:	608a      	str	r2, [r1, #8]
 8004848:	065a      	lsls	r2, r3, #25
 800484a:	d50f      	bpl.n	800486c <UART_AdvFeatureConfig+0x94>
 800484c:	6801      	ldr	r1, [r0, #0]
 800484e:	6c04      	ldr	r4, [r0, #64]	; 0x40
 8004850:	684a      	ldr	r2, [r1, #4]
 8004852:	f422 1280 	bic.w	r2, r2, #1048576	; 0x100000
 8004856:	4322      	orrs	r2, r4
 8004858:	f5b4 1f80 	cmp.w	r4, #1048576	; 0x100000
 800485c:	604a      	str	r2, [r1, #4]
 800485e:	d105      	bne.n	800486c <UART_AdvFeatureConfig+0x94>
 8004860:	684a      	ldr	r2, [r1, #4]
 8004862:	6c44      	ldr	r4, [r0, #68]	; 0x44
 8004864:	f422 02c0 	bic.w	r2, r2, #6291456	; 0x600000
 8004868:	4322      	orrs	r2, r4
 800486a:	604a      	str	r2, [r1, #4]
 800486c:	061b      	lsls	r3, r3, #24
 800486e:	d506      	bpl.n	800487e <UART_AdvFeatureConfig+0xa6>
 8004870:	6802      	ldr	r2, [r0, #0]
 8004872:	6c81      	ldr	r1, [r0, #72]	; 0x48
 8004874:	6853      	ldr	r3, [r2, #4]
 8004876:	f423 2300 	bic.w	r3, r3, #524288	; 0x80000
 800487a:	430b      	orrs	r3, r1
 800487c:	6053      	str	r3, [r2, #4]
 800487e:	bd10      	pop	{r4, pc}

08004880 <UART_WaitOnFlagUntilTimeout>:
 8004880:	e92d 41f0 	stmdb	sp!, {r4, r5, r6, r7, r8, lr}
 8004884:	9d06      	ldr	r5, [sp, #24]
 8004886:	4604      	mov	r4, r0
 8004888:	460f      	mov	r7, r1
 800488a:	4616      	mov	r6, r2
 800488c:	4698      	mov	r8, r3
 800488e:	6821      	ldr	r1, [r4, #0]
 8004890:	69ca      	ldr	r2, [r1, #28]
 8004892:	ea37 0302 	bics.w	r3, r7, r2
 8004896:	bf0c      	ite	eq
 8004898:	2201      	moveq	r2, #1
 800489a:	2200      	movne	r2, #0
 800489c:	42b2      	cmp	r2, r6
 800489e:	d001      	beq.n	80048a4 <UART_WaitOnFlagUntilTimeout+0x24>
 80048a0:	2000      	movs	r0, #0
 80048a2:	e018      	b.n	80048d6 <UART_WaitOnFlagUntilTimeout+0x56>
 80048a4:	1c68      	adds	r0, r5, #1
 80048a6:	d0f3      	beq.n	8004890 <UART_WaitOnFlagUntilTimeout+0x10>
 80048a8:	f7fd fdf2 	bl	8002490 <HAL_GetTick>
 80048ac:	eba0 0008 	sub.w	r0, r0, r8
 80048b0:	42a8      	cmp	r0, r5
 80048b2:	6820      	ldr	r0, [r4, #0]
 80048b4:	6803      	ldr	r3, [r0, #0]
 80048b6:	d800      	bhi.n	80048ba <UART_WaitOnFlagUntilTimeout+0x3a>
 80048b8:	b97d      	cbnz	r5, 80048da <UART_WaitOnFlagUntilTimeout+0x5a>
 80048ba:	f423 73d0 	bic.w	r3, r3, #416	; 0x1a0
 80048be:	6003      	str	r3, [r0, #0]
 80048c0:	6883      	ldr	r3, [r0, #8]
 80048c2:	f023 0301 	bic.w	r3, r3, #1
 80048c6:	6083      	str	r3, [r0, #8]
 80048c8:	2320      	movs	r3, #32
 80048ca:	6763      	str	r3, [r4, #116]	; 0x74
 80048cc:	67a3      	str	r3, [r4, #120]	; 0x78
 80048ce:	2300      	movs	r3, #0
 80048d0:	f884 3070 	strb.w	r3, [r4, #112]	; 0x70
 80048d4:	2003      	movs	r0, #3
 80048d6:	e8bd 81f0 	ldmia.w	sp!, {r4, r5, r6, r7, r8, pc}
 80048da:	075a      	lsls	r2, r3, #29
 80048dc:	d5d7      	bpl.n	800488e <UART_WaitOnFlagUntilTimeout+0xe>
 80048de:	69c3      	ldr	r3, [r0, #28]
 80048e0:	051b      	lsls	r3, r3, #20
 80048e2:	d5d4      	bpl.n	800488e <UART_WaitOnFlagUntilTimeout+0xe>
 80048e4:	f44f 6300 	mov.w	r3, #2048	; 0x800
 80048e8:	6203      	str	r3, [r0, #32]
 80048ea:	6803      	ldr	r3, [r0, #0]
 80048ec:	f423 73d0 	bic.w	r3, r3, #416	; 0x1a0
 80048f0:	6003      	str	r3, [r0, #0]
 80048f2:	6883      	ldr	r3, [r0, #8]
 80048f4:	f023 0301 	bic.w	r3, r3, #1
 80048f8:	6083      	str	r3, [r0, #8]
 80048fa:	2320      	movs	r3, #32
 80048fc:	6763      	str	r3, [r4, #116]	; 0x74
 80048fe:	67a3      	str	r3, [r4, #120]	; 0x78
 8004900:	67e3      	str	r3, [r4, #124]	; 0x7c
 8004902:	e7e4      	b.n	80048ce <UART_WaitOnFlagUntilTimeout+0x4e>

08004904 <UART_CheckIdleState>:
 8004904:	b573      	push	{r0, r1, r4, r5, r6, lr}
 8004906:	4604      	mov	r4, r0
 8004908:	2600      	movs	r6, #0
 800490a:	67c6      	str	r6, [r0, #124]	; 0x7c
 800490c:	f7fd fdc0 	bl	8002490 <HAL_GetTick>
 8004910:	6823      	ldr	r3, [r4, #0]
 8004912:	681b      	ldr	r3, [r3, #0]
 8004914:	071a      	lsls	r2, r3, #28
 8004916:	4605      	mov	r5, r0
 8004918:	d415      	bmi.n	8004946 <UART_CheckIdleState+0x42>
 800491a:	6823      	ldr	r3, [r4, #0]
 800491c:	681b      	ldr	r3, [r3, #0]
 800491e:	075b      	lsls	r3, r3, #29
 8004920:	d50a      	bpl.n	8004938 <UART_CheckIdleState+0x34>
 8004922:	f06f 437e 	mvn.w	r3, #4261412864	; 0xfe000000
 8004926:	9300      	str	r3, [sp, #0]
 8004928:	2200      	movs	r2, #0
 800492a:	462b      	mov	r3, r5
 800492c:	f44f 0180 	mov.w	r1, #4194304	; 0x400000
 8004930:	4620      	mov	r0, r4
 8004932:	f7ff ffa5 	bl	8004880 <UART_WaitOnFlagUntilTimeout>
 8004936:	b990      	cbnz	r0, 800495e <UART_CheckIdleState+0x5a>
 8004938:	2320      	movs	r3, #32
 800493a:	2000      	movs	r0, #0
 800493c:	6763      	str	r3, [r4, #116]	; 0x74
 800493e:	f884 0070 	strb.w	r0, [r4, #112]	; 0x70
 8004942:	67a3      	str	r3, [r4, #120]	; 0x78
 8004944:	e00c      	b.n	8004960 <UART_CheckIdleState+0x5c>
 8004946:	f06f 437e 	mvn.w	r3, #4261412864	; 0xfe000000
 800494a:	9300      	str	r3, [sp, #0]
 800494c:	4632      	mov	r2, r6
 800494e:	4603      	mov	r3, r0
 8004950:	f44f 1100 	mov.w	r1, #2097152	; 0x200000
 8004954:	4620      	mov	r0, r4
 8004956:	f7ff ff93 	bl	8004880 <UART_WaitOnFlagUntilTimeout>
 800495a:	2800      	cmp	r0, #0
 800495c:	d0dd      	beq.n	800491a <UART_CheckIdleState+0x16>
 800495e:	2003      	movs	r0, #3
 8004960:	b002      	add	sp, #8
 8004962:	bd70      	pop	{r4, r5, r6, pc}

08004964 <HAL_UART_Init>:
 8004964:	b510      	push	{r4, lr}
 8004966:	4604      	mov	r4, r0
 8004968:	b340      	cbz	r0, 80049bc <HAL_UART_Init+0x58>
 800496a:	6f43      	ldr	r3, [r0, #116]	; 0x74
 800496c:	b91b      	cbnz	r3, 8004976 <HAL_UART_Init+0x12>
 800496e:	f880 3070 	strb.w	r3, [r0, #112]	; 0x70
 8004972:	f7fd fc73 	bl	800225c <HAL_UART_MspInit>
 8004976:	6822      	ldr	r2, [r4, #0]
 8004978:	2324      	movs	r3, #36	; 0x24
 800497a:	6763      	str	r3, [r4, #116]	; 0x74
 800497c:	6813      	ldr	r3, [r2, #0]
 800497e:	f023 0301 	bic.w	r3, r3, #1
 8004982:	6013      	str	r3, [r2, #0]
 8004984:	4620      	mov	r0, r4
 8004986:	f7ff fd8f 	bl	80044a8 <UART_SetConfig>
 800498a:	2801      	cmp	r0, #1
 800498c:	d016      	beq.n	80049bc <HAL_UART_Init+0x58>
 800498e:	6a63      	ldr	r3, [r4, #36]	; 0x24
 8004990:	b113      	cbz	r3, 8004998 <HAL_UART_Init+0x34>
 8004992:	4620      	mov	r0, r4
 8004994:	f7ff ff20 	bl	80047d8 <UART_AdvFeatureConfig>
 8004998:	6823      	ldr	r3, [r4, #0]
 800499a:	685a      	ldr	r2, [r3, #4]
 800499c:	f422 4290 	bic.w	r2, r2, #18432	; 0x4800
 80049a0:	605a      	str	r2, [r3, #4]
 80049a2:	689a      	ldr	r2, [r3, #8]
 80049a4:	f022 022a 	bic.w	r2, r2, #42	; 0x2a
 80049a8:	609a      	str	r2, [r3, #8]
 80049aa:	681a      	ldr	r2, [r3, #0]
 80049ac:	f042 0201 	orr.w	r2, r2, #1
 80049b0:	4620      	mov	r0, r4
 80049b2:	601a      	str	r2, [r3, #0]
 80049b4:	e8bd 4010 	ldmia.w	sp!, {r4, lr}
 80049b8:	f7ff bfa4 	b.w	8004904 <UART_CheckIdleState>
 80049bc:	2001      	movs	r0, #1
 80049be:	bd10      	pop	{r4, pc}

080049c0 <HAL_UARTEx_WakeupCallback>:
 80049c0:	4770      	bx	lr
	...

080049c4 <USB_CoreReset>:
 80049c4:	4b0a      	ldr	r3, [pc, #40]	; (80049f0 <USB_CoreReset+0x2c>)
 80049c6:	3b01      	subs	r3, #1
 80049c8:	d00f      	beq.n	80049ea <USB_CoreReset+0x26>
 80049ca:	6902      	ldr	r2, [r0, #16]
 80049cc:	2a00      	cmp	r2, #0
 80049ce:	dafa      	bge.n	80049c6 <USB_CoreReset+0x2>
 80049d0:	6903      	ldr	r3, [r0, #16]
 80049d2:	4a07      	ldr	r2, [pc, #28]	; (80049f0 <USB_CoreReset+0x2c>)
 80049d4:	f043 0301 	orr.w	r3, r3, #1
 80049d8:	6103      	str	r3, [r0, #16]
 80049da:	3a01      	subs	r2, #1
 80049dc:	d005      	beq.n	80049ea <USB_CoreReset+0x26>
 80049de:	6903      	ldr	r3, [r0, #16]
 80049e0:	f013 0301 	ands.w	r3, r3, #1
 80049e4:	d1f9      	bne.n	80049da <USB_CoreReset+0x16>
 80049e6:	4618      	mov	r0, r3
 80049e8:	4770      	bx	lr
 80049ea:	2003      	movs	r0, #3
 80049ec:	4770      	bx	lr
 80049ee:	bf00      	nop
 80049f0:	00030d41 	.word	0x00030d41

080049f4 <USB_CoreInit>:
 80049f4:	b084      	sub	sp, #16
 80049f6:	b538      	push	{r3, r4, r5, lr}
 80049f8:	ad05      	add	r5, sp, #20
 80049fa:	e885 000e 	stmia.w	r5, {r1, r2, r3}
 80049fe:	9b0a      	ldr	r3, [sp, #40]	; 0x28
 8004a00:	2b01      	cmp	r3, #1
 8004a02:	4604      	mov	r4, r0
 8004a04:	d119      	bne.n	8004a3a <USB_CoreInit+0x46>
 8004a06:	6b83      	ldr	r3, [r0, #56]	; 0x38
 8004a08:	f423 3380 	bic.w	r3, r3, #65536	; 0x10000
 8004a0c:	6383      	str	r3, [r0, #56]	; 0x38
 8004a0e:	68c3      	ldr	r3, [r0, #12]
 8004a10:	f423 0384 	bic.w	r3, r3, #4325376	; 0x420000
 8004a14:	f023 0340 	bic.w	r3, r3, #64	; 0x40
 8004a18:	60c3      	str	r3, [r0, #12]
 8004a1a:	68c3      	ldr	r3, [r0, #12]
 8004a1c:	f423 1340 	bic.w	r3, r3, #3145728	; 0x300000
 8004a20:	60c3      	str	r3, [r0, #12]
 8004a22:	9b11      	ldr	r3, [sp, #68]	; 0x44
 8004a24:	2b01      	cmp	r3, #1
 8004a26:	bf02      	ittt	eq
 8004a28:	68c3      	ldreq	r3, [r0, #12]
 8004a2a:	f443 1380 	orreq.w	r3, r3, #1048576	; 0x100000
 8004a2e:	60c3      	streq	r3, [r0, #12]
 8004a30:	e8bd 4038 	ldmia.w	sp!, {r3, r4, r5, lr}
 8004a34:	b004      	add	sp, #16
 8004a36:	f7ff bfc5 	b.w	80049c4 <USB_CoreReset>
 8004a3a:	68c3      	ldr	r3, [r0, #12]
 8004a3c:	f043 0340 	orr.w	r3, r3, #64	; 0x40
 8004a40:	60c3      	str	r3, [r0, #12]
 8004a42:	f7ff ffbf 	bl	80049c4 <USB_CoreReset>
 8004a46:	9b0e      	ldr	r3, [sp, #56]	; 0x38
 8004a48:	b93b      	cbnz	r3, 8004a5a <USB_CoreInit+0x66>
 8004a4a:	6ba3      	ldr	r3, [r4, #56]	; 0x38
 8004a4c:	f443 3380 	orr.w	r3, r3, #65536	; 0x10000
 8004a50:	63a3      	str	r3, [r4, #56]	; 0x38
 8004a52:	e8bd 4038 	ldmia.w	sp!, {r3, r4, r5, lr}
 8004a56:	b004      	add	sp, #16
 8004a58:	4770      	bx	lr
 8004a5a:	6ba3      	ldr	r3, [r4, #56]	; 0x38
 8004a5c:	f423 3380 	bic.w	r3, r3, #65536	; 0x10000
 8004a60:	e7f6      	b.n	8004a50 <USB_CoreInit+0x5c>

08004a62 <USB_EnableGlobalInt>:
 8004a62:	6883      	ldr	r3, [r0, #8]
 8004a64:	f043 0301 	orr.w	r3, r3, #1
 8004a68:	6083      	str	r3, [r0, #8]
 8004a6a:	2000      	movs	r0, #0
 8004a6c:	4770      	bx	lr

08004a6e <USB_DisableGlobalInt>:
 8004a6e:	6883      	ldr	r3, [r0, #8]
 8004a70:	f023 0301 	bic.w	r3, r3, #1
 8004a74:	6083      	str	r3, [r0, #8]
 8004a76:	2000      	movs	r0, #0
 8004a78:	4770      	bx	lr

08004a7a <USB_SetCurrentMode>:
 8004a7a:	b508      	push	{r3, lr}
 8004a7c:	68c3      	ldr	r3, [r0, #12]
 8004a7e:	2901      	cmp	r1, #1
 8004a80:	f023 43c0 	bic.w	r3, r3, #1610612736	; 0x60000000
 8004a84:	60c3      	str	r3, [r0, #12]
 8004a86:	d108      	bne.n	8004a9a <USB_SetCurrentMode+0x20>
 8004a88:	68c3      	ldr	r3, [r0, #12]
 8004a8a:	f043 5300 	orr.w	r3, r3, #536870912	; 0x20000000
 8004a8e:	60c3      	str	r3, [r0, #12]
 8004a90:	2032      	movs	r0, #50	; 0x32
 8004a92:	f7fd fd03 	bl	800249c <HAL_Delay>
 8004a96:	2000      	movs	r0, #0
 8004a98:	bd08      	pop	{r3, pc}
 8004a9a:	b919      	cbnz	r1, 8004aa4 <USB_SetCurrentMode+0x2a>
 8004a9c:	68c3      	ldr	r3, [r0, #12]
 8004a9e:	f043 4380 	orr.w	r3, r3, #1073741824	; 0x40000000
 8004aa2:	e7f4      	b.n	8004a8e <USB_SetCurrentMode+0x14>
 8004aa4:	2001      	movs	r0, #1
 8004aa6:	e7f7      	b.n	8004a98 <USB_SetCurrentMode+0x1e>

08004aa8 <USB_FlushTxFifo>:
 8004aa8:	0189      	lsls	r1, r1, #6
 8004aaa:	f041 0120 	orr.w	r1, r1, #32
 8004aae:	4a06      	ldr	r2, [pc, #24]	; (8004ac8 <USB_FlushTxFifo+0x20>)
 8004ab0:	6101      	str	r1, [r0, #16]
 8004ab2:	3a01      	subs	r2, #1
 8004ab4:	d005      	beq.n	8004ac2 <USB_FlushTxFifo+0x1a>
 8004ab6:	6903      	ldr	r3, [r0, #16]
 8004ab8:	f013 0320 	ands.w	r3, r3, #32
 8004abc:	d1f9      	bne.n	8004ab2 <USB_FlushTxFifo+0xa>
 8004abe:	4618      	mov	r0, r3
 8004ac0:	4770      	bx	lr
 8004ac2:	2003      	movs	r0, #3
 8004ac4:	4770      	bx	lr
 8004ac6:	bf00      	nop
 8004ac8:	00030d41 	.word	0x00030d41

08004acc <USB_FlushRxFifo>:
 8004acc:	2310      	movs	r3, #16
 8004ace:	4a06      	ldr	r2, [pc, #24]	; (8004ae8 <USB_FlushRxFifo+0x1c>)
 8004ad0:	6103      	str	r3, [r0, #16]
 8004ad2:	3a01      	subs	r2, #1
 8004ad4:	d005      	beq.n	8004ae2 <USB_FlushRxFifo+0x16>
 8004ad6:	6903      	ldr	r3, [r0, #16]
 8004ad8:	f013 0310 	ands.w	r3, r3, #16
 8004adc:	d1f9      	bne.n	8004ad2 <USB_FlushRxFifo+0x6>
 8004ade:	4618      	mov	r0, r3
 8004ae0:	4770      	bx	lr
 8004ae2:	2003      	movs	r0, #3
 8004ae4:	4770      	bx	lr
 8004ae6:	bf00      	nop
 8004ae8:	00030d41 	.word	0x00030d41

08004aec <USB_WritePacket>:
 8004aec:	3303      	adds	r3, #3
 8004aee:	eb00 3202 	add.w	r2, r0, r2, lsl #12
 8004af2:	089b      	lsrs	r3, r3, #2
 8004af4:	f502 5280 	add.w	r2, r2, #4096	; 0x1000
 8004af8:	eb01 0383 	add.w	r3, r1, r3, lsl #2
 8004afc:	4299      	cmp	r1, r3
 8004afe:	d101      	bne.n	8004b04 <USB_WritePacket+0x18>
 8004b00:	2000      	movs	r0, #0
 8004b02:	4770      	bx	lr
 8004b04:	f851 0b04 	ldr.w	r0, [r1], #4
 8004b08:	6010      	str	r0, [r2, #0]
 8004b0a:	e7f7      	b.n	8004afc <USB_WritePacket+0x10>

08004b0c <USB_ReadPacket>:
 8004b0c:	3203      	adds	r2, #3
 8004b0e:	0892      	lsrs	r2, r2, #2
 8004b10:	eb01 0282 	add.w	r2, r1, r2, lsl #2
 8004b14:	f500 5080 	add.w	r0, r0, #4096	; 0x1000
 8004b18:	4291      	cmp	r1, r2
 8004b1a:	d101      	bne.n	8004b20 <USB_ReadPacket+0x14>
 8004b1c:	4608      	mov	r0, r1
 8004b1e:	4770      	bx	lr
 8004b20:	6803      	ldr	r3, [r0, #0]
 8004b22:	f841 3b04 	str.w	r3, [r1], #4
 8004b26:	e7f7      	b.n	8004b18 <USB_ReadPacket+0xc>

08004b28 <USB_ReadInterrupts>:
 8004b28:	6942      	ldr	r2, [r0, #20]
 8004b2a:	6980      	ldr	r0, [r0, #24]
 8004b2c:	4010      	ands	r0, r2
 8004b2e:	4770      	bx	lr

08004b30 <USB_GetMode>:
 8004b30:	6940      	ldr	r0, [r0, #20]
 8004b32:	f000 0001 	and.w	r0, r0, #1
 8004b36:	4770      	bx	lr

08004b38 <USB_InitFSLSPClkSel>:
 8004b38:	f8d0 3400 	ldr.w	r3, [r0, #1024]	; 0x400
 8004b3c:	f023 0303 	bic.w	r3, r3, #3
 8004b40:	b510      	push	{r4, lr}
 8004b42:	f8c0 3400 	str.w	r3, [r0, #1024]	; 0x400
 8004b46:	f8d0 4400 	ldr.w	r4, [r0, #1024]	; 0x400
 8004b4a:	f001 0303 	and.w	r3, r1, #3
 8004b4e:	4323      	orrs	r3, r4
 8004b50:	2901      	cmp	r1, #1
 8004b52:	f500 6280 	add.w	r2, r0, #1024	; 0x400
 8004b56:	f8c0 3400 	str.w	r3, [r0, #1024]	; 0x400
 8004b5a:	d104      	bne.n	8004b66 <USB_InitFSLSPClkSel+0x2e>
 8004b5c:	f64b 3380 	movw	r3, #48000	; 0xbb80
 8004b60:	6053      	str	r3, [r2, #4]
 8004b62:	2000      	movs	r0, #0
 8004b64:	bd10      	pop	{r4, pc}
 8004b66:	2902      	cmp	r1, #2
 8004b68:	d1fb      	bne.n	8004b62 <USB_InitFSLSPClkSel+0x2a>
 8004b6a:	f241 7370 	movw	r3, #6000	; 0x1770
 8004b6e:	e7f7      	b.n	8004b60 <USB_InitFSLSPClkSel+0x28>

08004b70 <USB_ResetPort>:
 8004b70:	b537      	push	{r0, r1, r2, r4, r5, lr}
 8004b72:	2500      	movs	r5, #0
 8004b74:	9501      	str	r5, [sp, #4]
 8004b76:	f8d0 3440 	ldr.w	r3, [r0, #1088]	; 0x440
 8004b7a:	9301      	str	r3, [sp, #4]
 8004b7c:	9b01      	ldr	r3, [sp, #4]
 8004b7e:	f023 032e 	bic.w	r3, r3, #46	; 0x2e
 8004b82:	9301      	str	r3, [sp, #4]
 8004b84:	9b01      	ldr	r3, [sp, #4]
 8004b86:	f443 7380 	orr.w	r3, r3, #256	; 0x100
 8004b8a:	4604      	mov	r4, r0
 8004b8c:	f8c0 3440 	str.w	r3, [r0, #1088]	; 0x440
 8004b90:	2064      	movs	r0, #100	; 0x64
 8004b92:	f7fd fc83 	bl	800249c <HAL_Delay>
 8004b96:	9b01      	ldr	r3, [sp, #4]
 8004b98:	f423 7380 	bic.w	r3, r3, #256	; 0x100
 8004b9c:	f8c4 3440 	str.w	r3, [r4, #1088]	; 0x440
 8004ba0:	200a      	movs	r0, #10
 8004ba2:	f7fd fc7b 	bl	800249c <HAL_Delay>
 8004ba6:	4628      	mov	r0, r5
 8004ba8:	b003      	add	sp, #12
 8004baa:	bd30      	pop	{r4, r5, pc}

08004bac <USB_DriveVbus>:
 8004bac:	b082      	sub	sp, #8
 8004bae:	2300      	movs	r3, #0
 8004bb0:	9301      	str	r3, [sp, #4]
 8004bb2:	f8d0 3440 	ldr.w	r3, [r0, #1088]	; 0x440
 8004bb6:	9301      	str	r3, [sp, #4]
 8004bb8:	9b01      	ldr	r3, [sp, #4]
 8004bba:	f023 032e 	bic.w	r3, r3, #46	; 0x2e
 8004bbe:	9301      	str	r3, [sp, #4]
 8004bc0:	9b01      	ldr	r3, [sp, #4]
 8004bc2:	04da      	lsls	r2, r3, #19
 8004bc4:	d406      	bmi.n	8004bd4 <USB_DriveVbus+0x28>
 8004bc6:	2901      	cmp	r1, #1
 8004bc8:	bf02      	ittt	eq
 8004bca:	9b01      	ldreq	r3, [sp, #4]
 8004bcc:	f443 5380 	orreq.w	r3, r3, #4096	; 0x1000
 8004bd0:	f8c0 3440 	streq.w	r3, [r0, #1088]	; 0x440
 8004bd4:	9b01      	ldr	r3, [sp, #4]
 8004bd6:	04db      	lsls	r3, r3, #19
 8004bd8:	d505      	bpl.n	8004be6 <USB_DriveVbus+0x3a>
 8004bda:	b921      	cbnz	r1, 8004be6 <USB_DriveVbus+0x3a>
 8004bdc:	9b01      	ldr	r3, [sp, #4]
 8004bde:	f423 5380 	bic.w	r3, r3, #4096	; 0x1000
 8004be2:	f8c0 3440 	str.w	r3, [r0, #1088]	; 0x440
 8004be6:	2000      	movs	r0, #0
 8004be8:	b002      	add	sp, #8
 8004bea:	4770      	bx	lr

08004bec <USB_HostInit>:
 8004bec:	b084      	sub	sp, #16
 8004bee:	b538      	push	{r3, r4, r5, lr}
 8004bf0:	ad05      	add	r5, sp, #20
 8004bf2:	e885 000e 	stmia.w	r5, {r1, r2, r3}
 8004bf6:	2500      	movs	r5, #0
 8004bf8:	f8c0 5e00 	str.w	r5, [r0, #3584]	; 0xe00
 8004bfc:	6b83      	ldr	r3, [r0, #56]	; 0x38
 8004bfe:	f423 1300 	bic.w	r3, r3, #2097152	; 0x200000
 8004c02:	6383      	str	r3, [r0, #56]	; 0x38
 8004c04:	6b83      	ldr	r3, [r0, #56]	; 0x38
 8004c06:	f423 3300 	bic.w	r3, r3, #131072	; 0x20000
 8004c0a:	6383      	str	r3, [r0, #56]	; 0x38
 8004c0c:	f8d0 3400 	ldr.w	r3, [r0, #1024]	; 0x400
 8004c10:	f023 0304 	bic.w	r3, r3, #4
 8004c14:	4604      	mov	r4, r0
 8004c16:	f8c0 3400 	str.w	r3, [r0, #1024]	; 0x400
 8004c1a:	2110      	movs	r1, #16
 8004c1c:	f7ff ff44 	bl	8004aa8 <USB_FlushTxFifo>
 8004c20:	4620      	mov	r0, r4
 8004c22:	f7ff ff53 	bl	8004acc <USB_FlushRxFifo>
 8004c26:	9906      	ldr	r1, [sp, #24]
 8004c28:	f504 62a0 	add.w	r2, r4, #1280	; 0x500
 8004c2c:	462b      	mov	r3, r5
 8004c2e:	f04f 30ff 	mov.w	r0, #4294967295
 8004c32:	4299      	cmp	r1, r3
 8004c34:	d11f      	bne.n	8004c76 <USB_HostInit+0x8a>
 8004c36:	2101      	movs	r1, #1
 8004c38:	4620      	mov	r0, r4
 8004c3a:	f7ff ffb7 	bl	8004bac <USB_DriveVbus>
 8004c3e:	20c8      	movs	r0, #200	; 0xc8
 8004c40:	f7fd fc2c 	bl	800249c <HAL_Delay>
 8004c44:	2000      	movs	r0, #0
 8004c46:	f04f 33ff 	mov.w	r3, #4294967295
 8004c4a:	61a0      	str	r0, [r4, #24]
 8004c4c:	6163      	str	r3, [r4, #20]
 8004c4e:	2380      	movs	r3, #128	; 0x80
 8004c50:	6263      	str	r3, [r4, #36]	; 0x24
 8004c52:	f503 03c0 	add.w	r3, r3, #6291456	; 0x600000
 8004c56:	62a3      	str	r3, [r4, #40]	; 0x28
 8004c58:	4b09      	ldr	r3, [pc, #36]	; (8004c80 <USB_HostInit+0x94>)
 8004c5a:	f8c4 3100 	str.w	r3, [r4, #256]	; 0x100
 8004c5e:	69a3      	ldr	r3, [r4, #24]
 8004c60:	f043 0310 	orr.w	r3, r3, #16
 8004c64:	61a3      	str	r3, [r4, #24]
 8004c66:	69a2      	ldr	r2, [r4, #24]
 8004c68:	4b06      	ldr	r3, [pc, #24]	; (8004c84 <USB_HostInit+0x98>)
 8004c6a:	4313      	orrs	r3, r2
 8004c6c:	61a3      	str	r3, [r4, #24]
 8004c6e:	e8bd 4038 	ldmia.w	sp!, {r3, r4, r5, lr}
 8004c72:	b004      	add	sp, #16
 8004c74:	4770      	bx	lr
 8004c76:	6090      	str	r0, [r2, #8]
 8004c78:	3301      	adds	r3, #1
 8004c7a:	60d5      	str	r5, [r2, #12]
 8004c7c:	3220      	adds	r2, #32
 8004c7e:	e7d8      	b.n	8004c32 <USB_HostInit+0x46>
 8004c80:	004000e0 	.word	0x004000e0
 8004c84:	a3200008 	.word	0xa3200008

08004c88 <USB_GetHostSpeed>:
 8004c88:	b082      	sub	sp, #8
 8004c8a:	2300      	movs	r3, #0
 8004c8c:	9301      	str	r3, [sp, #4]
 8004c8e:	f8d0 3440 	ldr.w	r3, [r0, #1088]	; 0x440
 8004c92:	9301      	str	r3, [sp, #4]
 8004c94:	9801      	ldr	r0, [sp, #4]
 8004c96:	f3c0 4041 	ubfx	r0, r0, #17, #2
 8004c9a:	b002      	add	sp, #8
 8004c9c:	4770      	bx	lr

08004c9e <USB_GetCurrentFrame>:
 8004c9e:	f500 6080 	add.w	r0, r0, #1024	; 0x400
 8004ca2:	6880      	ldr	r0, [r0, #8]
 8004ca4:	b280      	uxth	r0, r0
 8004ca6:	4770      	bx	lr

08004ca8 <USB_HC_Init>:
 8004ca8:	e92d 41f0 	stmdb	sp!, {r4, r5, r6, r7, r8, lr}
 8004cac:	eb00 1741 	add.w	r7, r0, r1, lsl #5
 8004cb0:	f507 64a0 	add.w	r4, r7, #1280	; 0x500
 8004cb4:	f89d 601c 	ldrb.w	r6, [sp, #28]
 8004cb8:	4605      	mov	r5, r0
 8004cba:	f04f 30ff 	mov.w	r0, #4294967295
 8004cbe:	60a0      	str	r0, [r4, #8]
 8004cc0:	fa4f f882 	sxtb.w	r8, r2
 8004cc4:	f505 6e80 	add.w	lr, r5, #1024	; 0x400
 8004cc8:	f001 0c0f 	and.w	ip, r1, #15
 8004ccc:	2e03      	cmp	r6, #3
 8004cce:	d853      	bhi.n	8004d78 <USB_HC_Init+0xd0>
 8004cd0:	e8df f006 	tbb	[pc, r6]
 8004cd4:	45024802 	.word	0x45024802
 8004cd8:	f240 419d 	movw	r1, #1181	; 0x49d
 8004cdc:	f1b8 0f00 	cmp.w	r8, #0
 8004ce0:	60e1      	str	r1, [r4, #12]
 8004ce2:	da4b      	bge.n	8004d7c <USB_HC_Init+0xd4>
 8004ce4:	68e1      	ldr	r1, [r4, #12]
 8004ce6:	f441 7180 	orr.w	r1, r1, #256	; 0x100
 8004cea:	60e1      	str	r1, [r4, #12]
 8004cec:	2000      	movs	r0, #0
 8004cee:	f8de 4018 	ldr.w	r4, [lr, #24]
 8004cf2:	2101      	movs	r1, #1
 8004cf4:	fa01 f10c 	lsl.w	r1, r1, ip
 8004cf8:	4321      	orrs	r1, r4
 8004cfa:	f8ce 1018 	str.w	r1, [lr, #24]
 8004cfe:	69a9      	ldr	r1, [r5, #24]
 8004d00:	f1b8 0f00 	cmp.w	r8, #0
 8004d04:	f041 7100 	orr.w	r1, r1, #33554432	; 0x2000000
 8004d08:	61a9      	str	r1, [r5, #24]
 8004d0a:	bfac      	ite	ge
 8004d0c:	2400      	movge	r4, #0
 8004d0e:	f44f 4400 	movlt.w	r4, #32768	; 0x8000
 8004d12:	f8bd 5020 	ldrh.w	r5, [sp, #32]
 8004d16:	f89d 1018 	ldrb.w	r1, [sp, #24]
 8004d1a:	059b      	lsls	r3, r3, #22
 8004d1c:	f003 53fe 	and.w	r3, r3, #532676608	; 0x1fc00000
 8004d20:	f3c5 050a 	ubfx	r5, r5, #0, #11
 8004d24:	02d2      	lsls	r2, r2, #11
 8004d26:	f402 42f0 	and.w	r2, r2, #30720	; 0x7800
 8004d2a:	432b      	orrs	r3, r5
 8004d2c:	4313      	orrs	r3, r2
 8004d2e:	04b2      	lsls	r2, r6, #18
 8004d30:	f402 2240 	and.w	r2, r2, #786432	; 0xc0000
 8004d34:	2902      	cmp	r1, #2
 8004d36:	ea43 0302 	orr.w	r3, r3, r2
 8004d3a:	bf14      	ite	ne
 8004d3c:	2100      	movne	r1, #0
 8004d3e:	f44f 3100 	moveq.w	r1, #131072	; 0x20000
 8004d42:	4323      	orrs	r3, r4
 8004d44:	430b      	orrs	r3, r1
 8004d46:	2e03      	cmp	r6, #3
 8004d48:	f8c7 3500 	str.w	r3, [r7, #1280]	; 0x500
 8004d4c:	d105      	bne.n	8004d5a <USB_HC_Init+0xb2>
 8004d4e:	f8d7 3500 	ldr.w	r3, [r7, #1280]	; 0x500
 8004d52:	f043 5300 	orr.w	r3, r3, #536870912	; 0x20000000
 8004d56:	f8c7 3500 	str.w	r3, [r7, #1280]	; 0x500
 8004d5a:	e8bd 81f0 	ldmia.w	sp!, {r4, r5, r6, r7, r8, pc}
 8004d5e:	f240 619d 	movw	r1, #1693	; 0x69d
 8004d62:	e7bb      	b.n	8004cdc <USB_HC_Init+0x34>
 8004d64:	f240 2125 	movw	r1, #549	; 0x225
 8004d68:	f1b8 0f00 	cmp.w	r8, #0
 8004d6c:	60e1      	str	r1, [r4, #12]
 8004d6e:	da05      	bge.n	8004d7c <USB_HC_Init+0xd4>
 8004d70:	68e1      	ldr	r1, [r4, #12]
 8004d72:	f441 71c0 	orr.w	r1, r1, #384	; 0x180
 8004d76:	e7b8      	b.n	8004cea <USB_HC_Init+0x42>
 8004d78:	2001      	movs	r0, #1
 8004d7a:	e7b8      	b.n	8004cee <USB_HC_Init+0x46>
 8004d7c:	f8de 0018 	ldr.w	r0, [lr, #24]
 8004d80:	2101      	movs	r1, #1
 8004d82:	fa01 f10c 	lsl.w	r1, r1, ip
 8004d86:	4301      	orrs	r1, r0
 8004d88:	f8ce 1018 	str.w	r1, [lr, #24]
 8004d8c:	69a9      	ldr	r1, [r5, #24]
 8004d8e:	2000      	movs	r0, #0
 8004d90:	f041 7100 	orr.w	r1, r1, #33554432	; 0x2000000
 8004d94:	61a9      	str	r1, [r5, #24]
 8004d96:	4604      	mov	r4, r0
 8004d98:	e7bb      	b.n	8004d12 <USB_HC_Init+0x6a>
	...

08004d9c <USB_HC_StartXfer>:
 8004d9c:	b5f8      	push	{r3, r4, r5, r6, r7, lr}
 8004d9e:	690c      	ldr	r4, [r1, #16]
 8004da0:	784a      	ldrb	r2, [r1, #1]
 8004da2:	2c00      	cmp	r4, #0
 8004da4:	d057      	beq.n	8004e56 <USB_HC_StartXfer+0xba>
 8004da6:	890b      	ldrh	r3, [r1, #8]
 8004da8:	3c01      	subs	r4, #1
 8004daa:	441c      	add	r4, r3
 8004dac:	fbb4 f4f3 	udiv	r4, r4, r3
 8004db0:	b2a4      	uxth	r4, r4
 8004db2:	f5b4 7f80 	cmp.w	r4, #256	; 0x100
 8004db6:	d903      	bls.n	8004dc0 <USB_HC_StartXfer+0x24>
 8004db8:	021b      	lsls	r3, r3, #8
 8004dba:	610b      	str	r3, [r1, #16]
 8004dbc:	f44f 7480 	mov.w	r4, #256	; 0x100
 8004dc0:	78ce      	ldrb	r6, [r1, #3]
 8004dc2:	b116      	cbz	r6, 8004dca <USB_HC_StartXfer+0x2e>
 8004dc4:	890b      	ldrh	r3, [r1, #8]
 8004dc6:	4363      	muls	r3, r4
 8004dc8:	610b      	str	r3, [r1, #16]
 8004dca:	7a8f      	ldrb	r7, [r1, #10]
 8004dcc:	690b      	ldr	r3, [r1, #16]
 8004dce:	077f      	lsls	r7, r7, #29
 8004dd0:	f007 47c0 	and.w	r7, r7, #1610612736	; 0x60000000
 8004dd4:	f3c3 0e12 	ubfx	lr, r3, #0, #19
 8004dd8:	eb00 1542 	add.w	r5, r0, r2, lsl #5
 8004ddc:	ea47 070e 	orr.w	r7, r7, lr
 8004de0:	ea47 44c4 	orr.w	r4, r7, r4, lsl #19
 8004de4:	f500 6780 	add.w	r7, r0, #1024	; 0x400
 8004de8:	f8c5 4510 	str.w	r4, [r5, #1296]	; 0x510
 8004dec:	68bc      	ldr	r4, [r7, #8]
 8004dee:	f8d5 c500 	ldr.w	ip, [r5, #1280]	; 0x500
 8004df2:	f02c 5c00 	bic.w	ip, ip, #536870912	; 0x20000000
 8004df6:	f8c5 c500 	str.w	ip, [r5, #1280]	; 0x500
 8004dfa:	43e4      	mvns	r4, r4
 8004dfc:	f8d5 c500 	ldr.w	ip, [r5, #1280]	; 0x500
 8004e00:	0764      	lsls	r4, r4, #29
 8004e02:	f004 5400 	and.w	r4, r4, #536870912	; 0x20000000
 8004e06:	ea44 040c 	orr.w	r4, r4, ip
 8004e0a:	f8c5 4500 	str.w	r4, [r5, #1280]	; 0x500
 8004e0e:	4c22      	ldr	r4, [pc, #136]	; (8004e98 <USB_HC_StartXfer+0xfc>)
 8004e10:	f8d5 c500 	ldr.w	ip, [r5, #1280]	; 0x500
 8004e14:	f8c4 c000 	str.w	ip, [r4]
 8004e18:	f8d4 c000 	ldr.w	ip, [r4]
 8004e1c:	f02c 4c80 	bic.w	ip, ip, #1073741824	; 0x40000000
 8004e20:	f8c4 c000 	str.w	ip, [r4]
 8004e24:	f8d4 c000 	ldr.w	ip, [r4]
 8004e28:	b1be      	cbz	r6, 8004e5a <USB_HC_StartXfer+0xbe>
 8004e2a:	f44c 4c00 	orr.w	ip, ip, #32768	; 0x8000
 8004e2e:	f8c4 c000 	str.w	ip, [r4]
 8004e32:	f8d4 c000 	ldr.w	ip, [r4]
 8004e36:	f04c 4c00 	orr.w	ip, ip, #2147483648	; 0x80000000
 8004e3a:	f8c4 c000 	str.w	ip, [r4]
 8004e3e:	6824      	ldr	r4, [r4, #0]
 8004e40:	f8c5 4500 	str.w	r4, [r5, #1280]	; 0x500
 8004e44:	b9de      	cbnz	r6, 8004e7e <USB_HC_StartXfer+0xe2>
 8004e46:	b1d3      	cbz	r3, 8004e7e <USB_HC_StartXfer+0xe2>
 8004e48:	79cc      	ldrb	r4, [r1, #7]
 8004e4a:	2c03      	cmp	r4, #3
 8004e4c:	d813      	bhi.n	8004e76 <USB_HC_StartXfer+0xda>
 8004e4e:	e8df f004 	tbb	[pc, r4]
 8004e52:	1807      	.short	0x1807
 8004e54:	1807      	.short	0x1807
 8004e56:	2401      	movs	r4, #1
 8004e58:	e7b2      	b.n	8004dc0 <USB_HC_StartXfer+0x24>
 8004e5a:	f42c 4c00 	bic.w	ip, ip, #32768	; 0x8000
 8004e5e:	e7e6      	b.n	8004e2e <USB_HC_StartXfer+0x92>
 8004e60:	6ac5      	ldr	r5, [r0, #44]	; 0x2c
 8004e62:	1cdc      	adds	r4, r3, #3
 8004e64:	b2ad      	uxth	r5, r5
 8004e66:	f3c4 048f 	ubfx	r4, r4, #2, #16
 8004e6a:	42a5      	cmp	r5, r4
 8004e6c:	d203      	bcs.n	8004e76 <USB_HC_StartXfer+0xda>
 8004e6e:	6984      	ldr	r4, [r0, #24]
 8004e70:	f044 0420 	orr.w	r4, r4, #32
 8004e74:	6184      	str	r4, [r0, #24]
 8004e76:	b29b      	uxth	r3, r3
 8004e78:	68c9      	ldr	r1, [r1, #12]
 8004e7a:	f7ff fe37 	bl	8004aec <USB_WritePacket>
 8004e7e:	2000      	movs	r0, #0
 8004e80:	bdf8      	pop	{r3, r4, r5, r6, r7, pc}
 8004e82:	693d      	ldr	r5, [r7, #16]
 8004e84:	1cdc      	adds	r4, r3, #3
 8004e86:	b2ad      	uxth	r5, r5
 8004e88:	f3c4 048f 	ubfx	r4, r4, #2, #16
 8004e8c:	42a5      	cmp	r5, r4
 8004e8e:	d2f2      	bcs.n	8004e76 <USB_HC_StartXfer+0xda>
 8004e90:	6984      	ldr	r4, [r0, #24]
 8004e92:	f044 6480 	orr.w	r4, r4, #67108864	; 0x4000000
 8004e96:	e7ed      	b.n	8004e74 <USB_HC_StartXfer+0xd8>
 8004e98:	20001dc4 	.word	0x20001dc4

08004e9c <USB_HC_ReadInterrupt>:
 8004e9c:	f500 6080 	add.w	r0, r0, #1024	; 0x400
 8004ea0:	6940      	ldr	r0, [r0, #20]
 8004ea2:	b280      	uxth	r0, r0
 8004ea4:	4770      	bx	lr

08004ea6 <USB_HC_Halt>:
 8004ea6:	eb00 1141 	add.w	r1, r0, r1, lsl #5
 8004eaa:	f501 62a0 	add.w	r2, r1, #1280	; 0x500
 8004eae:	f8d1 3500 	ldr.w	r3, [r1, #1280]	; 0x500
 8004eb2:	f413 2f80 	tst.w	r3, #262144	; 0x40000
 8004eb6:	f8d1 3500 	ldr.w	r3, [r1, #1280]	; 0x500
 8004eba:	f043 4380 	orr.w	r3, r3, #1073741824	; 0x40000000
 8004ebe:	f8c1 3500 	str.w	r3, [r1, #1280]	; 0x500
 8004ec2:	d11e      	bne.n	8004f02 <USB_HC_Halt+0x5c>
 8004ec4:	6ac3      	ldr	r3, [r0, #44]	; 0x2c
 8004ec6:	f413 0f7f 	tst.w	r3, #16711680	; 0xff0000
 8004eca:	f8d1 3500 	ldr.w	r3, [r1, #1280]	; 0x500
 8004ece:	d137      	bne.n	8004f40 <USB_HC_Halt+0x9a>
 8004ed0:	f023 4300 	bic.w	r3, r3, #2147483648	; 0x80000000
 8004ed4:	f8c1 3500 	str.w	r3, [r1, #1280]	; 0x500
 8004ed8:	f8d1 3500 	ldr.w	r3, [r1, #1280]	; 0x500
 8004edc:	f043 4300 	orr.w	r3, r3, #2147483648	; 0x80000000
 8004ee0:	f8c1 3500 	str.w	r3, [r1, #1280]	; 0x500
 8004ee4:	f8d1 3500 	ldr.w	r3, [r1, #1280]	; 0x500
 8004ee8:	f423 4300 	bic.w	r3, r3, #32768	; 0x8000
 8004eec:	f8c1 3500 	str.w	r3, [r1, #1280]	; 0x500
 8004ef0:	f240 33e9 	movw	r3, #1001	; 0x3e9
 8004ef4:	3b01      	subs	r3, #1
 8004ef6:	d002      	beq.n	8004efe <USB_HC_Halt+0x58>
 8004ef8:	6811      	ldr	r1, [r2, #0]
 8004efa:	2900      	cmp	r1, #0
 8004efc:	dbfa      	blt.n	8004ef4 <USB_HC_Halt+0x4e>
 8004efe:	2000      	movs	r0, #0
 8004f00:	4770      	bx	lr
 8004f02:	f8d0 3410 	ldr.w	r3, [r0, #1040]	; 0x410
 8004f06:	f413 0f7f 	tst.w	r3, #16711680	; 0xff0000
 8004f0a:	f8d1 3500 	ldr.w	r3, [r1, #1280]	; 0x500
 8004f0e:	d117      	bne.n	8004f40 <USB_HC_Halt+0x9a>
 8004f10:	f023 4300 	bic.w	r3, r3, #2147483648	; 0x80000000
 8004f14:	f8c1 3500 	str.w	r3, [r1, #1280]	; 0x500
 8004f18:	f8d1 3500 	ldr.w	r3, [r1, #1280]	; 0x500
 8004f1c:	f043 4300 	orr.w	r3, r3, #2147483648	; 0x80000000
 8004f20:	f8c1 3500 	str.w	r3, [r1, #1280]	; 0x500
 8004f24:	f8d1 3500 	ldr.w	r3, [r1, #1280]	; 0x500
 8004f28:	f423 4300 	bic.w	r3, r3, #32768	; 0x8000
 8004f2c:	f8c1 3500 	str.w	r3, [r1, #1280]	; 0x500
 8004f30:	f240 33e9 	movw	r3, #1001	; 0x3e9
 8004f34:	3b01      	subs	r3, #1
 8004f36:	d0e2      	beq.n	8004efe <USB_HC_Halt+0x58>
 8004f38:	6811      	ldr	r1, [r2, #0]
 8004f3a:	2900      	cmp	r1, #0
 8004f3c:	dbfa      	blt.n	8004f34 <USB_HC_Halt+0x8e>
 8004f3e:	e7de      	b.n	8004efe <USB_HC_Halt+0x58>
 8004f40:	f043 4300 	orr.w	r3, r3, #2147483648	; 0x80000000
 8004f44:	f8c1 3500 	str.w	r3, [r1, #1280]	; 0x500
 8004f48:	e7d9      	b.n	8004efe <USB_HC_Halt+0x58>

08004f4a <USB_StopHost>:
 8004f4a:	6883      	ldr	r3, [r0, #8]
 8004f4c:	f023 0301 	bic.w	r3, r3, #1
 8004f50:	b510      	push	{r4, lr}
 8004f52:	2110      	movs	r1, #16
 8004f54:	4604      	mov	r4, r0
 8004f56:	6083      	str	r3, [r0, #8]
 8004f58:	f7ff fda6 	bl	8004aa8 <USB_FlushTxFifo>
 8004f5c:	4620      	mov	r0, r4
 8004f5e:	f7ff fdb5 	bl	8004acc <USB_FlushRxFifo>
 8004f62:	f504 63a0 	add.w	r3, r4, #1280	; 0x500
 8004f66:	f504 60e0 	add.w	r0, r4, #1792	; 0x700
 8004f6a:	461a      	mov	r2, r3
 8004f6c:	6811      	ldr	r1, [r2, #0]
 8004f6e:	f021 2180 	bic.w	r1, r1, #2147516416	; 0x80008000
 8004f72:	f041 4180 	orr.w	r1, r1, #1073741824	; 0x40000000
 8004f76:	f842 1b20 	str.w	r1, [r2], #32
 8004f7a:	4282      	cmp	r2, r0
 8004f7c:	d1f6      	bne.n	8004f6c <USB_StopHost+0x22>
 8004f7e:	2000      	movs	r0, #0
 8004f80:	6819      	ldr	r1, [r3, #0]
 8004f82:	f421 4100 	bic.w	r1, r1, #32768	; 0x8000
 8004f86:	f041 4140 	orr.w	r1, r1, #3221225472	; 0xc0000000
 8004f8a:	6019      	str	r1, [r3, #0]
 8004f8c:	3001      	adds	r0, #1
 8004f8e:	f5b0 7f7a 	cmp.w	r0, #1000	; 0x3e8
 8004f92:	d802      	bhi.n	8004f9a <USB_StopHost+0x50>
 8004f94:	6819      	ldr	r1, [r3, #0]
 8004f96:	2900      	cmp	r1, #0
 8004f98:	dbf8      	blt.n	8004f8c <USB_StopHost+0x42>
 8004f9a:	3320      	adds	r3, #32
 8004f9c:	429a      	cmp	r2, r3
 8004f9e:	d1ef      	bne.n	8004f80 <USB_StopHost+0x36>
 8004fa0:	f04f 33ff 	mov.w	r3, #4294967295
 8004fa4:	f8c4 3414 	str.w	r3, [r4, #1044]	; 0x414
 8004fa8:	6163      	str	r3, [r4, #20]
 8004faa:	68a3      	ldr	r3, [r4, #8]
 8004fac:	f043 0301 	orr.w	r3, r3, #1
 8004fb0:	60a3      	str	r3, [r4, #8]
 8004fb2:	2000      	movs	r0, #0
 8004fb4:	bd10      	pop	{r4, pc}
	...

08004fb8 <MX_FATFS_Init>:
 8004fb8:	b508      	push	{r3, lr}
 8004fba:	4903      	ldr	r1, [pc, #12]	; (8004fc8 <MX_FATFS_Init+0x10>)
 8004fbc:	4803      	ldr	r0, [pc, #12]	; (8004fcc <MX_FATFS_Init+0x14>)
 8004fbe:	f002 fc9f 	bl	8007900 <FATFS_LinkDriver>
 8004fc2:	4b03      	ldr	r3, [pc, #12]	; (8004fd0 <MX_FATFS_Init+0x18>)
 8004fc4:	7018      	strb	r0, [r3, #0]
 8004fc6:	bd08      	pop	{r3, pc}
 8004fc8:	20002ae4 	.word	0x20002ae4
 8004fcc:	0800988c 	.word	0x0800988c
 8004fd0:	20002f48 	.word	0x20002f48

08004fd4 <get_fattime>:
 8004fd4:	2000      	movs	r0, #0
 8004fd6:	4770      	bx	lr

08004fd8 <USBH_initialize>:
 8004fd8:	2000      	movs	r0, #0
 8004fda:	4770      	bx	lr

08004fdc <USBH_status>:
 8004fdc:	4601      	mov	r1, r0
 8004fde:	b508      	push	{r3, lr}
 8004fe0:	4803      	ldr	r0, [pc, #12]	; (8004ff0 <USBH_status+0x14>)
 8004fe2:	f000 fa82 	bl	80054ea <USBH_MSC_UnitIsReady>
 8004fe6:	fab0 f080 	clz	r0, r0
 8004fea:	0940      	lsrs	r0, r0, #5
 8004fec:	bd08      	pop	{r3, pc}
 8004fee:	bf00      	nop
 8004ff0:	20002f4c 	.word	0x20002f4c

08004ff4 <USBH_read>:
 8004ff4:	b510      	push	{r4, lr}
 8004ff6:	b090      	sub	sp, #64	; 0x40
 8004ff8:	4604      	mov	r4, r0
 8004ffa:	9300      	str	r3, [sp, #0]
 8004ffc:	460b      	mov	r3, r1
 8004ffe:	4601      	mov	r1, r0
 8005000:	480a      	ldr	r0, [pc, #40]	; (800502c <USBH_read+0x38>)
 8005002:	f000 fa9b 	bl	800553c <USBH_MSC_Read>
 8005006:	b168      	cbz	r0, 8005024 <USBH_read+0x30>
 8005008:	aa03      	add	r2, sp, #12
 800500a:	4621      	mov	r1, r4
 800500c:	4807      	ldr	r0, [pc, #28]	; (800502c <USBH_read+0x38>)
 800500e:	f000 fa7d 	bl	800550c <USBH_MSC_GetLUNInfo>
 8005012:	f89d 3019 	ldrb.w	r3, [sp, #25]
 8005016:	2b28      	cmp	r3, #40	; 0x28
 8005018:	d006      	beq.n	8005028 <USBH_read+0x34>
 800501a:	2b3a      	cmp	r3, #58	; 0x3a
 800501c:	d004      	beq.n	8005028 <USBH_read+0x34>
 800501e:	2b04      	cmp	r3, #4
 8005020:	d002      	beq.n	8005028 <USBH_read+0x34>
 8005022:	2001      	movs	r0, #1
 8005024:	b010      	add	sp, #64	; 0x40
 8005026:	bd10      	pop	{r4, pc}
 8005028:	2003      	movs	r0, #3
 800502a:	e7fb      	b.n	8005024 <USBH_read+0x30>
 800502c:	20002f4c 	.word	0x20002f4c

08005030 <USBH_ioctl>:
 8005030:	b510      	push	{r4, lr}
 8005032:	4614      	mov	r4, r2
 8005034:	b08e      	sub	sp, #56	; 0x38
 8005036:	2903      	cmp	r1, #3
 8005038:	d803      	bhi.n	8005042 <USBH_ioctl+0x12>
 800503a:	e8df f001 	tbb	[pc, r1]
 800503e:	0525      	.short	0x0525
 8005040:	1a10      	.short	0x1a10
 8005042:	2004      	movs	r0, #4
 8005044:	b00e      	add	sp, #56	; 0x38
 8005046:	bd10      	pop	{r4, pc}
 8005048:	4601      	mov	r1, r0
 800504a:	aa01      	add	r2, sp, #4
 800504c:	480f      	ldr	r0, [pc, #60]	; (800508c <USBH_ioctl+0x5c>)
 800504e:	f000 fa5d 	bl	800550c <USBH_MSC_GetLUNInfo>
 8005052:	b108      	cbz	r0, 8005058 <USBH_ioctl+0x28>
 8005054:	2001      	movs	r0, #1
 8005056:	e7f5      	b.n	8005044 <USBH_ioctl+0x14>
 8005058:	9b02      	ldr	r3, [sp, #8]
 800505a:	6023      	str	r3, [r4, #0]
 800505c:	e7f2      	b.n	8005044 <USBH_ioctl+0x14>
 800505e:	4601      	mov	r1, r0
 8005060:	aa01      	add	r2, sp, #4
 8005062:	480a      	ldr	r0, [pc, #40]	; (800508c <USBH_ioctl+0x5c>)
 8005064:	f000 fa52 	bl	800550c <USBH_MSC_GetLUNInfo>
 8005068:	2800      	cmp	r0, #0
 800506a:	d1f3      	bne.n	8005054 <USBH_ioctl+0x24>
 800506c:	f8bd 300c 	ldrh.w	r3, [sp, #12]
 8005070:	e7f3      	b.n	800505a <USBH_ioctl+0x2a>
 8005072:	4601      	mov	r1, r0
 8005074:	aa01      	add	r2, sp, #4
 8005076:	4805      	ldr	r0, [pc, #20]	; (800508c <USBH_ioctl+0x5c>)
 8005078:	f000 fa48 	bl	800550c <USBH_MSC_GetLUNInfo>
 800507c:	2800      	cmp	r0, #0
 800507e:	d1e9      	bne.n	8005054 <USBH_ioctl+0x24>
 8005080:	f8bd 300c 	ldrh.w	r3, [sp, #12]
 8005084:	0a5b      	lsrs	r3, r3, #9
 8005086:	e7e8      	b.n	800505a <USBH_ioctl+0x2a>
 8005088:	2000      	movs	r0, #0
 800508a:	e7db      	b.n	8005044 <USBH_ioctl+0x14>
 800508c:	20002f4c 	.word	0x20002f4c

08005090 <USBH_write>:
 8005090:	b510      	push	{r4, lr}
 8005092:	b090      	sub	sp, #64	; 0x40
 8005094:	4604      	mov	r4, r0
 8005096:	9300      	str	r3, [sp, #0]
 8005098:	460b      	mov	r3, r1
 800509a:	4601      	mov	r1, r0
 800509c:	480d      	ldr	r0, [pc, #52]	; (80050d4 <USBH_write+0x44>)
 800509e:	f000 fa90 	bl	80055c2 <USBH_MSC_Write>
 80050a2:	b160      	cbz	r0, 80050be <USBH_write+0x2e>
 80050a4:	aa03      	add	r2, sp, #12
 80050a6:	4621      	mov	r1, r4
 80050a8:	480a      	ldr	r0, [pc, #40]	; (80050d4 <USBH_write+0x44>)
 80050aa:	f000 fa2f 	bl	800550c <USBH_MSC_GetLUNInfo>
 80050ae:	f89d 3019 	ldrb.w	r3, [sp, #25]
 80050b2:	2b27      	cmp	r3, #39	; 0x27
 80050b4:	d00b      	beq.n	80050ce <USBH_write+0x3e>
 80050b6:	d804      	bhi.n	80050c2 <USBH_write+0x32>
 80050b8:	2b04      	cmp	r3, #4
 80050ba:	d106      	bne.n	80050ca <USBH_write+0x3a>
 80050bc:	2003      	movs	r0, #3
 80050be:	b010      	add	sp, #64	; 0x40
 80050c0:	bd10      	pop	{r4, pc}
 80050c2:	2b28      	cmp	r3, #40	; 0x28
 80050c4:	d0fa      	beq.n	80050bc <USBH_write+0x2c>
 80050c6:	2b3a      	cmp	r3, #58	; 0x3a
 80050c8:	e7f7      	b.n	80050ba <USBH_write+0x2a>
 80050ca:	2001      	movs	r0, #1
 80050cc:	e7f7      	b.n	80050be <USBH_write+0x2e>
 80050ce:	2002      	movs	r0, #2
 80050d0:	e7f5      	b.n	80050be <USBH_write+0x2e>
 80050d2:	bf00      	nop
 80050d4:	20002f4c 	.word	0x20002f4c

080050d8 <USBH_MSC_SOFProcess>:
 80050d8:	2000      	movs	r0, #0
 80050da:	4770      	bx	lr

080050dc <USBH_MSC_Process>:
 80050dc:	f8d0 3378 	ldr.w	r3, [r0, #888]	; 0x378
 80050e0:	b570      	push	{r4, r5, r6, lr}
 80050e2:	69dd      	ldr	r5, [r3, #28]
 80050e4:	7b2b      	ldrb	r3, [r5, #12]
 80050e6:	4606      	mov	r6, r0
 80050e8:	b123      	cbz	r3, 80050f4 <USBH_MSC_Process+0x18>
 80050ea:	2b01      	cmp	r3, #1
 80050ec:	f000 80e6 	beq.w	80052bc <USBH_MSC_Process+0x1e0>
 80050f0:	2001      	movs	r0, #1
 80050f2:	e075      	b.n	80051e0 <USBH_MSC_Process+0x104>
 80050f4:	f8b5 10f8 	ldrh.w	r1, [r5, #248]	; 0xf8
 80050f8:	682a      	ldr	r2, [r5, #0]
 80050fa:	4291      	cmp	r1, r2
 80050fc:	f04f 0401 	mov.w	r4, #1
 8005100:	f080 80d4 	bcs.w	80052ac <USBH_MSC_Process+0x1d0>
 8005104:	2234      	movs	r2, #52	; 0x34
 8005106:	fb02 5301 	mla	r3, r2, r1, r5
 800510a:	f883 4091 	strb.w	r4, [r3, #145]	; 0x91
 800510e:	f893 3090 	ldrb.w	r3, [r3, #144]	; 0x90
 8005112:	4614      	mov	r4, r2
 8005114:	2b08      	cmp	r3, #8
 8005116:	d8eb      	bhi.n	80050f0 <USBH_MSC_Process+0x14>
 8005118:	a201      	add	r2, pc, #4	; (adr r2, 8005120 <USBH_MSC_Process+0x44>)
 800511a:	f852 f023 	ldr.w	pc, [r2, r3, lsl #2]
 800511e:	bf00      	nop
 8005120:	08005145 	.word	0x08005145
 8005124:	080050f1 	.word	0x080050f1
 8005128:	08005179 	.word	0x08005179
 800512c:	080051ff 	.word	0x080051ff
 8005130:	08005159 	.word	0x08005159
 8005134:	08005247 	.word	0x08005247
 8005138:	080050f1 	.word	0x080050f1
 800513c:	080050f1 	.word	0x080050f1
 8005140:	080052a5 	.word	0x080052a5
 8005144:	fb04 5101 	mla	r1, r4, r1, r5
 8005148:	2304      	movs	r3, #4
 800514a:	f881 3090 	strb.w	r3, [r1, #144]	; 0x90
 800514e:	f8d0 33c0 	ldr.w	r3, [r0, #960]	; 0x3c0
 8005152:	f8c5 30fc 	str.w	r3, [r5, #252]	; 0xfc
 8005156:	e7cb      	b.n	80050f0 <USBH_MSC_Process+0x14>
 8005158:	fb04 5201 	mla	r2, r4, r1, r5
 800515c:	329f      	adds	r2, #159	; 0x9f
 800515e:	b2c9      	uxtb	r1, r1
 8005160:	f000 fbde 	bl	8005920 <USBH_MSC_SCSI_Inquiry>
 8005164:	2800      	cmp	r0, #0
 8005166:	d15e      	bne.n	8005226 <USBH_MSC_Process+0x14a>
 8005168:	f8b5 10f8 	ldrh.w	r1, [r5, #248]	; 0xf8
 800516c:	2302      	movs	r3, #2
 800516e:	fb04 5501 	mla	r5, r4, r1, r5
 8005172:	f885 3090 	strb.w	r3, [r5, #144]	; 0x90
 8005176:	e7bb      	b.n	80050f0 <USBH_MSC_Process+0x14>
 8005178:	b2c9      	uxtb	r1, r1
 800517a:	f000 fb77 	bl	800586c <USBH_MSC_SCSI_TestUnitReady>
 800517e:	b9a8      	cbnz	r0, 80051ac <USBH_MSC_Process+0xd0>
 8005180:	f8b5 30f8 	ldrh.w	r3, [r5, #248]	; 0xf8
 8005184:	2234      	movs	r2, #52	; 0x34
 8005186:	fb02 5103 	mla	r1, r2, r3, r5
 800518a:	f891 0092 	ldrb.w	r0, [r1, #146]	; 0x92
 800518e:	b100      	cbz	r0, 8005192 <USBH_MSC_Process+0xb6>
 8005190:	2001      	movs	r0, #1
 8005192:	fb02 5503 	mla	r5, r2, r3, r5
 8005196:	2303      	movs	r3, #3
 8005198:	f881 00c1 	strb.w	r0, [r1, #193]	; 0xc1
 800519c:	f885 3090 	strb.w	r3, [r5, #144]	; 0x90
 80051a0:	2300      	movs	r3, #0
 80051a2:	f885 3091 	strb.w	r3, [r5, #145]	; 0x91
 80051a6:	f885 3092 	strb.w	r3, [r5, #146]	; 0x92
 80051aa:	e7a1      	b.n	80050f0 <USBH_MSC_Process+0x14>
 80051ac:	2802      	cmp	r0, #2
 80051ae:	d118      	bne.n	80051e2 <USBH_MSC_Process+0x106>
 80051b0:	f8b5 30f8 	ldrh.w	r3, [r5, #248]	; 0xf8
 80051b4:	2234      	movs	r2, #52	; 0x34
 80051b6:	fb02 5103 	mla	r1, r2, r3, r5
 80051ba:	fb02 5503 	mla	r5, r2, r3, r5
 80051be:	f891 0092 	ldrb.w	r0, [r1, #146]	; 0x92
 80051c2:	2802      	cmp	r0, #2
 80051c4:	bf14      	ite	ne
 80051c6:	2001      	movne	r0, #1
 80051c8:	2000      	moveq	r0, #0
 80051ca:	2305      	movs	r3, #5
 80051cc:	f881 00c1 	strb.w	r0, [r1, #193]	; 0xc1
 80051d0:	f885 3090 	strb.w	r3, [r5, #144]	; 0x90
 80051d4:	2001      	movs	r0, #1
 80051d6:	2302      	movs	r3, #2
 80051d8:	f885 0091 	strb.w	r0, [r5, #145]	; 0x91
 80051dc:	f885 3092 	strb.w	r3, [r5, #146]	; 0x92
 80051e0:	bd70      	pop	{r4, r5, r6, pc}
 80051e2:	2804      	cmp	r0, #4
 80051e4:	d184      	bne.n	80050f0 <USBH_MSC_Process+0x14>
 80051e6:	f8b5 30f8 	ldrh.w	r3, [r5, #248]	; 0xf8
 80051ea:	2234      	movs	r2, #52	; 0x34
 80051ec:	fb02 5503 	mla	r5, r2, r3, r5
 80051f0:	2001      	movs	r0, #1
 80051f2:	2302      	movs	r3, #2
 80051f4:	f885 0090 	strb.w	r0, [r5, #144]	; 0x90
 80051f8:	f885 3091 	strb.w	r3, [r5, #145]	; 0x91
 80051fc:	e7f0      	b.n	80051e0 <USBH_MSC_Process+0x104>
 80051fe:	fb04 5201 	mla	r2, r4, r1, r5
 8005202:	3294      	adds	r2, #148	; 0x94
 8005204:	b2c9      	uxtb	r1, r1
 8005206:	f000 fb57 	bl	80058b8 <USBH_MSC_SCSI_ReadCapacity>
 800520a:	b960      	cbnz	r0, 8005226 <USBH_MSC_Process+0x14a>
 800520c:	f8b5 20f8 	ldrh.w	r2, [r5, #248]	; 0xf8
 8005210:	2301      	movs	r3, #1
 8005212:	fb04 5402 	mla	r4, r4, r2, r5
 8005216:	441a      	add	r2, r3
 8005218:	f884 3090 	strb.w	r3, [r4, #144]	; 0x90
 800521c:	f884 0091 	strb.w	r0, [r4, #145]	; 0x91
 8005220:	f8a5 20f8 	strh.w	r2, [r5, #248]	; 0xf8
 8005224:	e764      	b.n	80050f0 <USBH_MSC_Process+0x14>
 8005226:	2802      	cmp	r0, #2
 8005228:	d105      	bne.n	8005236 <USBH_MSC_Process+0x15a>
 800522a:	f8b5 10f8 	ldrh.w	r1, [r5, #248]	; 0xf8
 800522e:	2305      	movs	r3, #5
 8005230:	fb04 5501 	mla	r5, r4, r1, r5
 8005234:	e79d      	b.n	8005172 <USBH_MSC_Process+0x96>
 8005236:	2804      	cmp	r0, #4
 8005238:	f47f af5a 	bne.w	80050f0 <USBH_MSC_Process+0x14>
 800523c:	f8b5 10f8 	ldrh.w	r1, [r5, #248]	; 0xf8
 8005240:	fb04 5501 	mla	r5, r4, r1, r5
 8005244:	e7d4      	b.n	80051f0 <USBH_MSC_Process+0x114>
 8005246:	fb04 5201 	mla	r2, r4, r1, r5
 800524a:	329c      	adds	r2, #156	; 0x9c
 800524c:	b2c9      	uxtb	r1, r1
 800524e:	f000 fbd3 	bl	80059f8 <USBH_MSC_SCSI_RequestSense>
 8005252:	b9f8      	cbnz	r0, 8005294 <USBH_MSC_Process+0x1b8>
 8005254:	f8b5 30f8 	ldrh.w	r3, [r5, #248]	; 0xf8
 8005258:	fb04 5403 	mla	r4, r4, r3, r5
 800525c:	f894 209c 	ldrb.w	r2, [r4, #156]	; 0x9c
 8005260:	f002 02fb 	and.w	r2, r2, #251	; 0xfb
 8005264:	2a02      	cmp	r2, #2
 8005266:	d10b      	bne.n	8005280 <USBH_MSC_Process+0x1a4>
 8005268:	f8d5 10fc 	ldr.w	r1, [r5, #252]	; 0xfc
 800526c:	f8d6 03c0 	ldr.w	r0, [r6, #960]	; 0x3c0
 8005270:	1a40      	subs	r0, r0, r1
 8005272:	f242 710f 	movw	r1, #9999	; 0x270f
 8005276:	4288      	cmp	r0, r1
 8005278:	d802      	bhi.n	8005280 <USBH_MSC_Process+0x1a4>
 800527a:	f884 2090 	strb.w	r2, [r4, #144]	; 0x90
 800527e:	e737      	b.n	80050f0 <USBH_MSC_Process+0x14>
 8005280:	2234      	movs	r2, #52	; 0x34
 8005282:	fb02 5203 	mla	r2, r2, r3, r5
 8005286:	2001      	movs	r0, #1
 8005288:	4403      	add	r3, r0
 800528a:	f882 0090 	strb.w	r0, [r2, #144]	; 0x90
 800528e:	f8a5 30f8 	strh.w	r3, [r5, #248]	; 0xf8
 8005292:	e7a5      	b.n	80051e0 <USBH_MSC_Process+0x104>
 8005294:	2802      	cmp	r0, #2
 8005296:	d1ce      	bne.n	8005236 <USBH_MSC_Process+0x15a>
 8005298:	f8b5 10f8 	ldrh.w	r1, [r5, #248]	; 0xf8
 800529c:	2308      	movs	r3, #8
 800529e:	fb04 5501 	mla	r5, r4, r1, r5
 80052a2:	e766      	b.n	8005172 <USBH_MSC_Process+0x96>
 80052a4:	3101      	adds	r1, #1
 80052a6:	f8a5 10f8 	strh.w	r1, [r5, #248]	; 0xf8
 80052aa:	e721      	b.n	80050f0 <USBH_MSC_Process+0x14>
 80052ac:	f8a5 30f8 	strh.w	r3, [r5, #248]	; 0xf8
 80052b0:	732c      	strb	r4, [r5, #12]
 80052b2:	f8d0 33cc 	ldr.w	r3, [r0, #972]	; 0x3cc
 80052b6:	2102      	movs	r1, #2
 80052b8:	4798      	blx	r3
 80052ba:	e719      	b.n	80050f0 <USBH_MSC_Process+0x14>
 80052bc:	2000      	movs	r0, #0
 80052be:	e78f      	b.n	80051e0 <USBH_MSC_Process+0x104>

080052c0 <USBH_MSC_ClassRequest>:
 80052c0:	f8d0 3378 	ldr.w	r3, [r0, #888]	; 0x378
 80052c4:	b570      	push	{r4, r5, r6, lr}
 80052c6:	69dc      	ldr	r4, [r3, #28]
 80052c8:	7ba3      	ldrb	r3, [r4, #14]
 80052ca:	2b02      	cmp	r3, #2
 80052cc:	4602      	mov	r2, r0
 80052ce:	d002      	beq.n	80052d6 <USBH_MSC_ClassRequest+0x16>
 80052d0:	2b03      	cmp	r3, #3
 80052d2:	d023      	beq.n	800531c <USBH_MSC_ClassRequest+0x5c>
 80052d4:	bb43      	cbnz	r3, 8005328 <USBH_MSC_ClassRequest+0x68>
 80052d6:	4621      	mov	r1, r4
 80052d8:	4610      	mov	r0, r2
 80052da:	f000 f9bd 	bl	8005658 <USBH_MSC_BOT_REQ_GetMaxLUN>
 80052de:	2803      	cmp	r0, #3
 80052e0:	d111      	bne.n	8005306 <USBH_MSC_ClassRequest+0x46>
 80052e2:	2300      	movs	r3, #0
 80052e4:	6023      	str	r3, [r4, #0]
 80052e6:	7822      	ldrb	r2, [r4, #0]
 80052e8:	2a02      	cmp	r2, #2
 80052ea:	bf94      	ite	ls
 80052ec:	3201      	addls	r2, #1
 80052ee:	2202      	movhi	r2, #2
 80052f0:	2300      	movs	r3, #0
 80052f2:	6022      	str	r2, [r4, #0]
 80052f4:	2034      	movs	r0, #52	; 0x34
 80052f6:	2502      	movs	r5, #2
 80052f8:	461e      	mov	r6, r3
 80052fa:	1c59      	adds	r1, r3, #1
 80052fc:	b2db      	uxtb	r3, r3
 80052fe:	429a      	cmp	r2, r3
 8005300:	d804      	bhi.n	800530c <USBH_MSC_ClassRequest+0x4c>
 8005302:	2000      	movs	r0, #0
 8005304:	e001      	b.n	800530a <USBH_MSC_ClassRequest+0x4a>
 8005306:	2800      	cmp	r0, #0
 8005308:	d0ed      	beq.n	80052e6 <USBH_MSC_ClassRequest+0x26>
 800530a:	bd70      	pop	{r4, r5, r6, pc}
 800530c:	fb00 4303 	mla	r3, r0, r3, r4
 8005310:	f883 5092 	strb.w	r5, [r3, #146]	; 0x92
 8005314:	f883 60c1 	strb.w	r6, [r3, #193]	; 0xc1
 8005318:	460b      	mov	r3, r1
 800531a:	e7ee      	b.n	80052fa <USBH_MSC_ClassRequest+0x3a>
 800531c:	2100      	movs	r1, #0
 800531e:	f001 f840 	bl	80063a2 <USBH_ClrFeature>
 8005322:	b908      	cbnz	r0, 8005328 <USBH_MSC_ClassRequest+0x68>
 8005324:	7be3      	ldrb	r3, [r4, #15]
 8005326:	73a3      	strb	r3, [r4, #14]
 8005328:	2001      	movs	r0, #1
 800532a:	e7ee      	b.n	800530a <USBH_MSC_ClassRequest+0x4a>

0800532c <USBH_MSC_InterfaceDeInit>:
 800532c:	b538      	push	{r3, r4, r5, lr}
 800532e:	f8d0 3378 	ldr.w	r3, [r0, #888]	; 0x378
 8005332:	69dd      	ldr	r5, [r3, #28]
 8005334:	7969      	ldrb	r1, [r5, #5]
 8005336:	4604      	mov	r4, r0
 8005338:	b139      	cbz	r1, 800534a <USBH_MSC_InterfaceDeInit+0x1e>
 800533a:	f001 f8ad 	bl	8006498 <USBH_ClosePipe>
 800533e:	7969      	ldrb	r1, [r5, #5]
 8005340:	4620      	mov	r0, r4
 8005342:	f001 f8c5 	bl	80064d0 <USBH_FreePipe>
 8005346:	2300      	movs	r3, #0
 8005348:	716b      	strb	r3, [r5, #5]
 800534a:	7929      	ldrb	r1, [r5, #4]
 800534c:	b141      	cbz	r1, 8005360 <USBH_MSC_InterfaceDeInit+0x34>
 800534e:	4620      	mov	r0, r4
 8005350:	f001 f8a2 	bl	8006498 <USBH_ClosePipe>
 8005354:	7929      	ldrb	r1, [r5, #4]
 8005356:	4620      	mov	r0, r4
 8005358:	f001 f8ba 	bl	80064d0 <USBH_FreePipe>
 800535c:	2300      	movs	r3, #0
 800535e:	712b      	strb	r3, [r5, #4]
 8005360:	f8d4 3378 	ldr.w	r3, [r4, #888]	; 0x378
 8005364:	69d8      	ldr	r0, [r3, #28]
 8005366:	b128      	cbz	r0, 8005374 <USBH_MSC_InterfaceDeInit+0x48>
 8005368:	f003 fc46 	bl	8008bf8 <free>
 800536c:	f8d4 3378 	ldr.w	r3, [r4, #888]	; 0x378
 8005370:	2200      	movs	r2, #0
 8005372:	61da      	str	r2, [r3, #28]
 8005374:	2000      	movs	r0, #0
 8005376:	bd38      	pop	{r3, r4, r5, pc}

08005378 <USBH_MSC_InterfaceInit>:
 8005378:	e92d 41ff 	stmdb	sp!, {r0, r1, r2, r3, r4, r5, r6, r7, r8, lr}
 800537c:	f8d0 1378 	ldr.w	r1, [r0, #888]	; 0x378
 8005380:	2350      	movs	r3, #80	; 0x50
 8005382:	2206      	movs	r2, #6
 8005384:	7909      	ldrb	r1, [r1, #4]
 8005386:	4605      	mov	r5, r0
 8005388:	f000 fc5f 	bl	8005c4a <USBH_FindInterface>
 800538c:	2801      	cmp	r0, #1
 800538e:	4606      	mov	r6, r0
 8005390:	d904      	bls.n	800539c <USBH_MSC_InterfaceInit+0x24>
 8005392:	2702      	movs	r7, #2
 8005394:	4638      	mov	r0, r7
 8005396:	b004      	add	sp, #16
 8005398:	e8bd 81f0 	ldmia.w	sp!, {r4, r5, r6, r7, r8, pc}
 800539c:	4601      	mov	r1, r0
 800539e:	4628      	mov	r0, r5
 80053a0:	f000 fc4a 	bl	8005c38 <USBH_SelectInterface>
 80053a4:	4607      	mov	r7, r0
 80053a6:	2800      	cmp	r0, #0
 80053a8:	d1f3      	bne.n	8005392 <USBH_MSC_InterfaceInit+0x1a>
 80053aa:	f44f 7080 	mov.w	r0, #256	; 0x100
 80053ae:	f8d5 8378 	ldr.w	r8, [r5, #888]	; 0x378
 80053b2:	f003 fc19 	bl	8008be8 <malloc>
 80053b6:	4604      	mov	r4, r0
 80053b8:	f8c8 001c 	str.w	r0, [r8, #28]
 80053bc:	2800      	cmp	r0, #0
 80053be:	d0e8      	beq.n	8005392 <USBH_MSC_InterfaceInit+0x1a>
 80053c0:	4639      	mov	r1, r7
 80053c2:	f44f 7280 	mov.w	r2, #256	; 0x100
 80053c6:	f003 fc39 	bl	8008c3c <memset>
 80053ca:	231a      	movs	r3, #26
 80053cc:	fb03 5106 	mla	r1, r3, r6, r5
 80053d0:	fb03 5606 	mla	r6, r3, r6, r5
 80053d4:	f891 234c 	ldrb.w	r2, [r1, #844]	; 0x34c
 80053d8:	f896 3354 	ldrb.w	r3, [r6, #852]	; 0x354
 80053dc:	f8b1 134e 	ldrh.w	r1, [r1, #846]	; 0x34e
 80053e0:	0610      	lsls	r0, r2, #24
 80053e2:	bf53      	iteet	pl
 80053e4:	71a2      	strbpl	r2, [r4, #6]
 80053e6:	71e2      	strbmi	r2, [r4, #7]
 80053e8:	8161      	strhmi	r1, [r4, #10]
 80053ea:	8121      	strhpl	r1, [r4, #8]
 80053ec:	0619      	lsls	r1, r3, #24
 80053ee:	bf58      	it	pl
 80053f0:	71a3      	strbpl	r3, [r4, #6]
 80053f2:	f8b6 2356 	ldrh.w	r2, [r6, #854]	; 0x356
 80053f6:	79a1      	ldrb	r1, [r4, #6]
 80053f8:	bf48      	it	mi
 80053fa:	71e3      	strbmi	r3, [r4, #7]
 80053fc:	f04f 0600 	mov.w	r6, #0
 8005400:	4628      	mov	r0, r5
 8005402:	bf4c      	ite	mi
 8005404:	8162      	strhmi	r2, [r4, #10]
 8005406:	8122      	strhpl	r2, [r4, #8]
 8005408:	7326      	strb	r6, [r4, #12]
 800540a:	7366      	strb	r6, [r4, #13]
 800540c:	73a6      	strb	r6, [r4, #14]
 800540e:	f001 f848 	bl	80064a2 <USBH_AllocPipe>
 8005412:	79e1      	ldrb	r1, [r4, #7]
 8005414:	7160      	strb	r0, [r4, #5]
 8005416:	4628      	mov	r0, r5
 8005418:	f001 f843 	bl	80064a2 <USBH_AllocPipe>
 800541c:	7120      	strb	r0, [r4, #4]
 800541e:	4628      	mov	r0, r5
 8005420:	f000 f924 	bl	800566c <USBH_MSC_BOT_Init>
 8005424:	8920      	ldrh	r0, [r4, #8]
 8005426:	9002      	str	r0, [sp, #8]
 8005428:	f04f 0802 	mov.w	r8, #2
 800542c:	f895 031d 	ldrb.w	r0, [r5, #797]	; 0x31d
 8005430:	f895 331c 	ldrb.w	r3, [r5, #796]	; 0x31c
 8005434:	79a2      	ldrb	r2, [r4, #6]
 8005436:	7961      	ldrb	r1, [r4, #5]
 8005438:	9000      	str	r0, [sp, #0]
 800543a:	f8cd 8004 	str.w	r8, [sp, #4]
 800543e:	4628      	mov	r0, r5
 8005440:	f001 f81b 	bl	800647a <USBH_OpenPipe>
 8005444:	8960      	ldrh	r0, [r4, #10]
 8005446:	f895 331c 	ldrb.w	r3, [r5, #796]	; 0x31c
 800544a:	79e2      	ldrb	r2, [r4, #7]
 800544c:	7921      	ldrb	r1, [r4, #4]
 800544e:	e9cd 8001 	strd	r8, r0, [sp, #4]
 8005452:	f895 031d 	ldrb.w	r0, [r5, #797]	; 0x31d
 8005456:	9000      	str	r0, [sp, #0]
 8005458:	4628      	mov	r0, r5
 800545a:	f001 f80e 	bl	800647a <USBH_OpenPipe>
 800545e:	4632      	mov	r2, r6
 8005460:	7921      	ldrb	r1, [r4, #4]
 8005462:	4628      	mov	r0, r5
 8005464:	f003 fb6d 	bl	8008b42 <USBH_LL_SetToggle>
 8005468:	4632      	mov	r2, r6
 800546a:	7961      	ldrb	r1, [r4, #5]
 800546c:	4628      	mov	r0, r5
 800546e:	f003 fb68 	bl	8008b42 <USBH_LL_SetToggle>
 8005472:	e78f      	b.n	8005394 <USBH_MSC_InterfaceInit+0x1c>

08005474 <USBH_MSC_RdWrProcess>:
 8005474:	f8d0 3378 	ldr.w	r3, [r0, #888]	; 0x378
 8005478:	b573      	push	{r0, r1, r4, r5, r6, lr}
 800547a:	69dd      	ldr	r5, [r3, #28]
 800547c:	2634      	movs	r6, #52	; 0x34
 800547e:	fb06 5401 	mla	r4, r6, r1, r5
 8005482:	f894 3090 	ldrb.w	r3, [r4, #144]	; 0x90
 8005486:	2b06      	cmp	r3, #6
 8005488:	d010      	beq.n	80054ac <USBH_MSC_RdWrProcess+0x38>
 800548a:	2b07      	cmp	r3, #7
 800548c:	d019      	beq.n	80054c2 <USBH_MSC_RdWrProcess+0x4e>
 800548e:	2b05      	cmp	r3, #5
 8005490:	d122      	bne.n	80054d8 <USBH_MSC_RdWrProcess+0x64>
 8005492:	fb06 5201 	mla	r2, r6, r1, r5
 8005496:	329c      	adds	r2, #156	; 0x9c
 8005498:	f000 faae 	bl	80059f8 <USBH_MSC_SCSI_RequestSense>
 800549c:	b9f0      	cbnz	r0, 80054dc <USBH_MSC_RdWrProcess+0x68>
 800549e:	2301      	movs	r3, #1
 80054a0:	2002      	movs	r0, #2
 80054a2:	f884 3090 	strb.w	r3, [r4, #144]	; 0x90
 80054a6:	f884 0091 	strb.w	r0, [r4, #145]	; 0x91
 80054aa:	e008      	b.n	80054be <USBH_MSC_RdWrProcess+0x4a>
 80054ac:	2300      	movs	r3, #0
 80054ae:	9300      	str	r3, [sp, #0]
 80054b0:	461a      	mov	r2, r3
 80054b2:	f000 fb2e 	bl	8005b12 <USBH_MSC_SCSI_Read>
 80054b6:	b950      	cbnz	r0, 80054ce <USBH_MSC_RdWrProcess+0x5a>
 80054b8:	2301      	movs	r3, #1
 80054ba:	f884 3090 	strb.w	r3, [r4, #144]	; 0x90
 80054be:	b002      	add	sp, #8
 80054c0:	bd70      	pop	{r4, r5, r6, pc}
 80054c2:	2300      	movs	r3, #0
 80054c4:	9300      	str	r3, [sp, #0]
 80054c6:	461a      	mov	r2, r3
 80054c8:	f000 fadf 	bl	8005a8a <USBH_MSC_SCSI_Write>
 80054cc:	e7f3      	b.n	80054b6 <USBH_MSC_RdWrProcess+0x42>
 80054ce:	2802      	cmp	r0, #2
 80054d0:	d104      	bne.n	80054dc <USBH_MSC_RdWrProcess+0x68>
 80054d2:	2305      	movs	r3, #5
 80054d4:	f884 3090 	strb.w	r3, [r4, #144]	; 0x90
 80054d8:	2001      	movs	r0, #1
 80054da:	e7f0      	b.n	80054be <USBH_MSC_RdWrProcess+0x4a>
 80054dc:	2804      	cmp	r0, #4
 80054de:	d1fb      	bne.n	80054d8 <USBH_MSC_RdWrProcess+0x64>
 80054e0:	2308      	movs	r3, #8
 80054e2:	f884 3090 	strb.w	r3, [r4, #144]	; 0x90
 80054e6:	2002      	movs	r0, #2
 80054e8:	e7e9      	b.n	80054be <USBH_MSC_RdWrProcess+0x4a>

080054ea <USBH_MSC_UnitIsReady>:
 80054ea:	7803      	ldrb	r3, [r0, #0]
 80054ec:	2b0b      	cmp	r3, #11
 80054ee:	bf01      	itttt	eq
 80054f0:	f8d0 3378 	ldreq.w	r3, [r0, #888]	; 0x378
 80054f4:	69db      	ldreq	r3, [r3, #28]
 80054f6:	2234      	moveq	r2, #52	; 0x34
 80054f8:	fb02 3101 	mlaeq	r1, r2, r1, r3
 80054fc:	bf03      	ittte	eq
 80054fe:	f891 0091 	ldrbeq.w	r0, [r1, #145]	; 0x91
 8005502:	fab0 f080 	clzeq	r0, r0
 8005506:	0940      	lsreq	r0, r0, #5
 8005508:	2000      	movne	r0, #0
 800550a:	4770      	bx	lr

0800550c <USBH_MSC_GetLUNInfo>:
 800550c:	7803      	ldrb	r3, [r0, #0]
 800550e:	2b0b      	cmp	r3, #11
 8005510:	b510      	push	{r4, lr}
 8005512:	d111      	bne.n	8005538 <USBH_MSC_GetLUNInfo+0x2c>
 8005514:	f8d0 0378 	ldr.w	r0, [r0, #888]	; 0x378
 8005518:	2334      	movs	r3, #52	; 0x34
 800551a:	2490      	movs	r4, #144	; 0x90
 800551c:	fb13 4301 	smlabb	r3, r3, r1, r4
 8005520:	69c1      	ldr	r1, [r0, #28]
 8005522:	4419      	add	r1, r3
 8005524:	f101 0334 	add.w	r3, r1, #52	; 0x34
 8005528:	f851 0b04 	ldr.w	r0, [r1], #4
 800552c:	f842 0b04 	str.w	r0, [r2], #4
 8005530:	4299      	cmp	r1, r3
 8005532:	d1f9      	bne.n	8005528 <USBH_MSC_GetLUNInfo+0x1c>
 8005534:	2000      	movs	r0, #0
 8005536:	bd10      	pop	{r4, pc}
 8005538:	2002      	movs	r0, #2
 800553a:	e7fc      	b.n	8005536 <USBH_MSC_GetLUNInfo+0x2a>

0800553c <USBH_MSC_Read>:
 800553c:	e92d 43f7 	stmdb	sp!, {r0, r1, r2, r4, r5, r6, r7, r8, r9, lr}
 8005540:	f890 531e 	ldrb.w	r5, [r0, #798]	; 0x31e
 8005544:	f8dd 8028 	ldr.w	r8, [sp, #40]	; 0x28
 8005548:	4604      	mov	r4, r0
 800554a:	460f      	mov	r7, r1
 800554c:	b3bd      	cbz	r5, 80055be <USBH_MSC_Read+0x82>
 800554e:	7805      	ldrb	r5, [r0, #0]
 8005550:	2d0b      	cmp	r5, #11
 8005552:	d134      	bne.n	80055be <USBH_MSC_Read+0x82>
 8005554:	f8d0 5378 	ldr.w	r5, [r0, #888]	; 0x378
 8005558:	69ed      	ldr	r5, [r5, #28]
 800555a:	2634      	movs	r6, #52	; 0x34
 800555c:	fb06 5601 	mla	r6, r6, r1, r5
 8005560:	f896 c090 	ldrb.w	ip, [r6, #144]	; 0x90
 8005564:	f1bc 0f01 	cmp.w	ip, #1
 8005568:	d129      	bne.n	80055be <USBH_MSC_Read+0x82>
 800556a:	f04f 0c06 	mov.w	ip, #6
 800556e:	f885 c00c 	strb.w	ip, [r5, #12]
 8005572:	f886 c090 	strb.w	ip, [r6, #144]	; 0x90
 8005576:	f8a5 10fa 	strh.w	r1, [r5, #250]	; 0xfa
 800557a:	f8cd 8000 	str.w	r8, [sp]
 800557e:	f000 fac8 	bl	8005b12 <USBH_MSC_SCSI_Read>
 8005582:	f242 7610 	movw	r6, #10000	; 0x2710
 8005586:	f8d4 93c0 	ldr.w	r9, [r4, #960]	; 0x3c0
 800558a:	fb06 f608 	mul.w	r6, r6, r8
 800558e:	4639      	mov	r1, r7
 8005590:	4620      	mov	r0, r4
 8005592:	f7ff ff6f 	bl	8005474 <USBH_MSC_RdWrProcess>
 8005596:	2801      	cmp	r0, #1
 8005598:	d005      	beq.n	80055a6 <USBH_MSC_Read+0x6a>
 800559a:	2301      	movs	r3, #1
 800559c:	732b      	strb	r3, [r5, #12]
 800559e:	2000      	movs	r0, #0
 80055a0:	b003      	add	sp, #12
 80055a2:	e8bd 83f0 	ldmia.w	sp!, {r4, r5, r6, r7, r8, r9, pc}
 80055a6:	f8d4 33c0 	ldr.w	r3, [r4, #960]	; 0x3c0
 80055aa:	eba3 0309 	sub.w	r3, r3, r9
 80055ae:	42b3      	cmp	r3, r6
 80055b0:	d803      	bhi.n	80055ba <USBH_MSC_Read+0x7e>
 80055b2:	f894 331e 	ldrb.w	r3, [r4, #798]	; 0x31e
 80055b6:	2b00      	cmp	r3, #0
 80055b8:	d1e9      	bne.n	800558e <USBH_MSC_Read+0x52>
 80055ba:	2301      	movs	r3, #1
 80055bc:	732b      	strb	r3, [r5, #12]
 80055be:	2002      	movs	r0, #2
 80055c0:	e7ee      	b.n	80055a0 <USBH_MSC_Read+0x64>

080055c2 <USBH_MSC_Write>:
 80055c2:	e92d 43f7 	stmdb	sp!, {r0, r1, r2, r4, r5, r6, r7, r8, r9, lr}
 80055c6:	f890 531e 	ldrb.w	r5, [r0, #798]	; 0x31e
 80055ca:	f8dd 8028 	ldr.w	r8, [sp, #40]	; 0x28
 80055ce:	4604      	mov	r4, r0
 80055d0:	460f      	mov	r7, r1
 80055d2:	b3bd      	cbz	r5, 8005644 <USBH_MSC_Write+0x82>
 80055d4:	7805      	ldrb	r5, [r0, #0]
 80055d6:	2d0b      	cmp	r5, #11
 80055d8:	d134      	bne.n	8005644 <USBH_MSC_Write+0x82>
 80055da:	f8d0 5378 	ldr.w	r5, [r0, #888]	; 0x378
 80055de:	69ed      	ldr	r5, [r5, #28]
 80055e0:	2634      	movs	r6, #52	; 0x34
 80055e2:	fb06 5601 	mla	r6, r6, r1, r5
 80055e6:	f896 c090 	ldrb.w	ip, [r6, #144]	; 0x90
 80055ea:	f1bc 0f01 	cmp.w	ip, #1
 80055ee:	d129      	bne.n	8005644 <USBH_MSC_Write+0x82>
 80055f0:	f04f 0c07 	mov.w	ip, #7
 80055f4:	f885 c00c 	strb.w	ip, [r5, #12]
 80055f8:	f886 c090 	strb.w	ip, [r6, #144]	; 0x90
 80055fc:	f8a5 10fa 	strh.w	r1, [r5, #250]	; 0xfa
 8005600:	f8cd 8000 	str.w	r8, [sp]
 8005604:	f000 fa41 	bl	8005a8a <USBH_MSC_SCSI_Write>
 8005608:	f242 7610 	movw	r6, #10000	; 0x2710
 800560c:	f8d4 93c0 	ldr.w	r9, [r4, #960]	; 0x3c0
 8005610:	fb06 f608 	mul.w	r6, r6, r8
 8005614:	4639      	mov	r1, r7
 8005616:	4620      	mov	r0, r4
 8005618:	f7ff ff2c 	bl	8005474 <USBH_MSC_RdWrProcess>
 800561c:	2801      	cmp	r0, #1
 800561e:	d005      	beq.n	800562c <USBH_MSC_Write+0x6a>
 8005620:	2301      	movs	r3, #1
 8005622:	732b      	strb	r3, [r5, #12]
 8005624:	2000      	movs	r0, #0
 8005626:	b003      	add	sp, #12
 8005628:	e8bd 83f0 	ldmia.w	sp!, {r4, r5, r6, r7, r8, r9, pc}
 800562c:	f8d4 33c0 	ldr.w	r3, [r4, #960]	; 0x3c0
 8005630:	eba3 0309 	sub.w	r3, r3, r9
 8005634:	42b3      	cmp	r3, r6
 8005636:	d803      	bhi.n	8005640 <USBH_MSC_Write+0x7e>
 8005638:	f894 331e 	ldrb.w	r3, [r4, #798]	; 0x31e
 800563c:	2b00      	cmp	r3, #0
 800563e:	d1e9      	bne.n	8005614 <USBH_MSC_Write+0x52>
 8005640:	2301      	movs	r3, #1
 8005642:	732b      	strb	r3, [r5, #12]
 8005644:	2002      	movs	r0, #2
 8005646:	e7ee      	b.n	8005626 <USBH_MSC_Write+0x64>

08005648 <USBH_MSC_BOT_REQ_Reset>:
 8005648:	f64f 7121 	movw	r1, #65313	; 0xff21
 800564c:	2200      	movs	r2, #0
 800564e:	e9c0 1204 	strd	r1, r2, [r0, #16]
 8005652:	4611      	mov	r1, r2
 8005654:	f000 bca6 	b.w	8005fa4 <USBH_CtlReq>

08005658 <USBH_MSC_BOT_REQ_GetMaxLUN>:
 8005658:	f44f 3280 	mov.w	r2, #65536	; 0x10000
 800565c:	f64f 6ca1 	movw	ip, #65185	; 0xfea1
 8005660:	e9c0 c204 	strd	ip, r2, [r0, #16]
 8005664:	2201      	movs	r2, #1
 8005666:	f000 bc9d 	b.w	8005fa4 <USBH_CtlReq>
	...

0800566c <USBH_MSC_BOT_Init>:
 800566c:	f8d0 3378 	ldr.w	r3, [r0, #888]	; 0x378
 8005670:	4905      	ldr	r1, [pc, #20]	; (8005688 <USBH_MSC_BOT_Init+0x1c>)
 8005672:	69db      	ldr	r3, [r3, #28]
 8005674:	4a05      	ldr	r2, [pc, #20]	; (800568c <USBH_MSC_BOT_Init+0x20>)
 8005676:	e9c3 1215 	strd	r1, r2, [r3, #84]	; 0x54
 800567a:	2201      	movs	r2, #1
 800567c:	f883 2050 	strb.w	r2, [r3, #80]	; 0x50
 8005680:	f883 2052 	strb.w	r2, [r3, #82]	; 0x52
 8005684:	2000      	movs	r0, #0
 8005686:	4770      	bx	lr
 8005688:	43425355 	.word	0x43425355
 800568c:	20304050 	.word	0x20304050

08005690 <USBH_MSC_BOT_Process>:
 8005690:	f8d0 3378 	ldr.w	r3, [r0, #888]	; 0x378
 8005694:	b573      	push	{r0, r1, r4, r5, r6, lr}
 8005696:	69dc      	ldr	r4, [r3, #28]
 8005698:	f894 3050 	ldrb.w	r3, [r4, #80]	; 0x50
 800569c:	3b01      	subs	r3, #1
 800569e:	4606      	mov	r6, r0
 80056a0:	2b0a      	cmp	r3, #10
 80056a2:	d859      	bhi.n	8005758 <USBH_MSC_BOT_Process+0xc8>
 80056a4:	e8df f013 	tbh	[pc, r3, lsl #1]
 80056a8:	001a000b 	.word	0x001a000b
 80056ac:	003d0033 	.word	0x003d0033
 80056b0:	0068005e 	.word	0x0068005e
 80056b4:	0093008b 	.word	0x0093008b
 80056b8:	00be00b4 	.word	0x00be00b4
 80056bc:	00d6      	.short	0x00d6
 80056be:	2302      	movs	r3, #2
 80056c0:	2501      	movs	r5, #1
 80056c2:	f884 1061 	strb.w	r1, [r4, #97]	; 0x61
 80056c6:	f884 3050 	strb.w	r3, [r4, #80]	; 0x50
 80056ca:	221f      	movs	r2, #31
 80056cc:	7963      	ldrb	r3, [r4, #5]
 80056ce:	9500      	str	r5, [sp, #0]
 80056d0:	f104 0154 	add.w	r1, r4, #84	; 0x54
 80056d4:	4630      	mov	r0, r6
 80056d6:	f000 fea9 	bl	800642c <USBH_BulkSendData>
 80056da:	e03d      	b.n	8005758 <USBH_MSC_BOT_Process+0xc8>
 80056dc:	7961      	ldrb	r1, [r4, #5]
 80056de:	f003 fa1f 	bl	8008b20 <USBH_LL_GetURBState>
 80056e2:	2801      	cmp	r0, #1
 80056e4:	d10c      	bne.n	8005700 <USBH_MSC_BOT_Process+0x70>
 80056e6:	6de3      	ldr	r3, [r4, #92]	; 0x5c
 80056e8:	b143      	cbz	r3, 80056fc <USBH_MSC_BOT_Process+0x6c>
 80056ea:	f994 3060 	ldrsb.w	r3, [r4, #96]	; 0x60
 80056ee:	2b00      	cmp	r3, #0
 80056f0:	bfb4      	ite	lt
 80056f2:	2303      	movlt	r3, #3
 80056f4:	2305      	movge	r3, #5
 80056f6:	f884 3050 	strb.w	r3, [r4, #80]	; 0x50
 80056fa:	e006      	b.n	800570a <USBH_MSC_BOT_Process+0x7a>
 80056fc:	2307      	movs	r3, #7
 80056fe:	e7fa      	b.n	80056f6 <USBH_MSC_BOT_Process+0x66>
 8005700:	2802      	cmp	r0, #2
 8005702:	d158      	bne.n	80057b6 <USBH_MSC_BOT_Process+0x126>
 8005704:	2001      	movs	r0, #1
 8005706:	f884 0050 	strb.w	r0, [r4, #80]	; 0x50
 800570a:	b002      	add	sp, #8
 800570c:	bd70      	pop	{r4, r5, r6, pc}
 800570e:	7923      	ldrb	r3, [r4, #4]
 8005710:	8962      	ldrh	r2, [r4, #10]
 8005712:	f8d4 108c 	ldr.w	r1, [r4, #140]	; 0x8c
 8005716:	f000 fea0 	bl	800645a <USBH_BulkReceiveData>
 800571a:	2304      	movs	r3, #4
 800571c:	f884 3050 	strb.w	r3, [r4, #80]	; 0x50
 8005720:	e01a      	b.n	8005758 <USBH_MSC_BOT_Process+0xc8>
 8005722:	7921      	ldrb	r1, [r4, #4]
 8005724:	f003 f9fc 	bl	8008b20 <USBH_LL_GetURBState>
 8005728:	2801      	cmp	r0, #1
 800572a:	d117      	bne.n	800575c <USBH_MSC_BOT_Process+0xcc>
 800572c:	6de3      	ldr	r3, [r4, #92]	; 0x5c
 800572e:	8962      	ldrh	r2, [r4, #10]
 8005730:	4293      	cmp	r3, r2
 8005732:	bf8a      	itet	hi
 8005734:	1a9b      	subhi	r3, r3, r2
 8005736:	2300      	movls	r3, #0
 8005738:	f8d4 108c 	ldrhi.w	r1, [r4, #140]	; 0x8c
 800573c:	65e3      	str	r3, [r4, #92]	; 0x5c
 800573e:	6de3      	ldr	r3, [r4, #92]	; 0x5c
 8005740:	bf84      	itt	hi
 8005742:	1889      	addhi	r1, r1, r2
 8005744:	f8c4 108c 	strhi.w	r1, [r4, #140]	; 0x8c
 8005748:	2b00      	cmp	r3, #0
 800574a:	d065      	beq.n	8005818 <USBH_MSC_BOT_Process+0x188>
 800574c:	7923      	ldrb	r3, [r4, #4]
 800574e:	f8d4 108c 	ldr.w	r1, [r4, #140]	; 0x8c
 8005752:	4630      	mov	r0, r6
 8005754:	f000 fe81 	bl	800645a <USBH_BulkReceiveData>
 8005758:	2001      	movs	r0, #1
 800575a:	e7d6      	b.n	800570a <USBH_MSC_BOT_Process+0x7a>
 800575c:	2805      	cmp	r0, #5
 800575e:	d1fb      	bne.n	8005758 <USBH_MSC_BOT_Process+0xc8>
 8005760:	2309      	movs	r3, #9
 8005762:	e7db      	b.n	800571c <USBH_MSC_BOT_Process+0x8c>
 8005764:	2501      	movs	r5, #1
 8005766:	7963      	ldrb	r3, [r4, #5]
 8005768:	8922      	ldrh	r2, [r4, #8]
 800576a:	9500      	str	r5, [sp, #0]
 800576c:	f8d4 108c 	ldr.w	r1, [r4, #140]	; 0x8c
 8005770:	f000 fe5c 	bl	800642c <USBH_BulkSendData>
 8005774:	2306      	movs	r3, #6
 8005776:	e7d1      	b.n	800571c <USBH_MSC_BOT_Process+0x8c>
 8005778:	7961      	ldrb	r1, [r4, #5]
 800577a:	f003 f9d1 	bl	8008b20 <USBH_LL_GetURBState>
 800577e:	2801      	cmp	r0, #1
 8005780:	d115      	bne.n	80057ae <USBH_MSC_BOT_Process+0x11e>
 8005782:	6de3      	ldr	r3, [r4, #92]	; 0x5c
 8005784:	8922      	ldrh	r2, [r4, #8]
 8005786:	4293      	cmp	r3, r2
 8005788:	bf8a      	itet	hi
 800578a:	1a9b      	subhi	r3, r3, r2
 800578c:	2300      	movls	r3, #0
 800578e:	f8d4 108c 	ldrhi.w	r1, [r4, #140]	; 0x8c
 8005792:	65e3      	str	r3, [r4, #92]	; 0x5c
 8005794:	6de3      	ldr	r3, [r4, #92]	; 0x5c
 8005796:	bf84      	itt	hi
 8005798:	1889      	addhi	r1, r1, r2
 800579a:	f8c4 108c 	strhi.w	r1, [r4, #140]	; 0x8c
 800579e:	2501      	movs	r5, #1
 80057a0:	2b00      	cmp	r3, #0
 80057a2:	d039      	beq.n	8005818 <USBH_MSC_BOT_Process+0x188>
 80057a4:	7963      	ldrb	r3, [r4, #5]
 80057a6:	9500      	str	r5, [sp, #0]
 80057a8:	f8d4 108c 	ldr.w	r1, [r4, #140]	; 0x8c
 80057ac:	e792      	b.n	80056d4 <USBH_MSC_BOT_Process+0x44>
 80057ae:	2802      	cmp	r0, #2
 80057b0:	d101      	bne.n	80057b6 <USBH_MSC_BOT_Process+0x126>
 80057b2:	2305      	movs	r3, #5
 80057b4:	e7b2      	b.n	800571c <USBH_MSC_BOT_Process+0x8c>
 80057b6:	2805      	cmp	r0, #5
 80057b8:	d1ce      	bne.n	8005758 <USBH_MSC_BOT_Process+0xc8>
 80057ba:	230a      	movs	r3, #10
 80057bc:	e7ae      	b.n	800571c <USBH_MSC_BOT_Process+0x8c>
 80057be:	7923      	ldrb	r3, [r4, #4]
 80057c0:	220d      	movs	r2, #13
 80057c2:	f104 0178 	add.w	r1, r4, #120	; 0x78
 80057c6:	f000 fe48 	bl	800645a <USBH_BulkReceiveData>
 80057ca:	2308      	movs	r3, #8
 80057cc:	e7a6      	b.n	800571c <USBH_MSC_BOT_Process+0x8c>
 80057ce:	7921      	ldrb	r1, [r4, #4]
 80057d0:	f003 f9a6 	bl	8008b20 <USBH_LL_GetURBState>
 80057d4:	2801      	cmp	r0, #1
 80057d6:	d1c1      	bne.n	800575c <USBH_MSC_BOT_Process+0xcc>
 80057d8:	f8d6 3378 	ldr.w	r3, [r6, #888]	; 0x378
 80057dc:	f884 0050 	strb.w	r0, [r4, #80]	; 0x50
 80057e0:	f884 0052 	strb.w	r0, [r4, #82]	; 0x52
 80057e4:	69dc      	ldr	r4, [r3, #28]
 80057e6:	4630      	mov	r0, r6
 80057e8:	7921      	ldrb	r1, [r4, #4]
 80057ea:	f003 f955 	bl	8008a98 <USBH_LL_GetLastXferSize>
 80057ee:	280d      	cmp	r0, #13
 80057f0:	d137      	bne.n	8005862 <USBH_MSC_BOT_Process+0x1d2>
 80057f2:	6fa2      	ldr	r2, [r4, #120]	; 0x78
 80057f4:	4b1c      	ldr	r3, [pc, #112]	; (8005868 <USBH_MSC_BOT_Process+0x1d8>)
 80057f6:	429a      	cmp	r2, r3
 80057f8:	d133      	bne.n	8005862 <USBH_MSC_BOT_Process+0x1d2>
 80057fa:	6fe2      	ldr	r2, [r4, #124]	; 0x7c
 80057fc:	6da3      	ldr	r3, [r4, #88]	; 0x58
 80057fe:	429a      	cmp	r2, r3
 8005800:	d12f      	bne.n	8005862 <USBH_MSC_BOT_Process+0x1d2>
 8005802:	f894 3084 	ldrb.w	r3, [r4, #132]	; 0x84
 8005806:	2b00      	cmp	r3, #0
 8005808:	bf14      	ite	ne
 800580a:	2002      	movne	r0, #2
 800580c:	2000      	moveq	r0, #0
 800580e:	e77c      	b.n	800570a <USBH_MSC_BOT_Process+0x7a>
 8005810:	79e1      	ldrb	r1, [r4, #7]
 8005812:	f000 fdc6 	bl	80063a2 <USBH_ClrFeature>
 8005816:	b908      	cbnz	r0, 800581c <USBH_MSC_BOT_Process+0x18c>
 8005818:	2307      	movs	r3, #7
 800581a:	e77f      	b.n	800571c <USBH_MSC_BOT_Process+0x8c>
 800581c:	2804      	cmp	r0, #4
 800581e:	d19b      	bne.n	8005758 <USBH_MSC_BOT_Process+0xc8>
 8005820:	230b      	movs	r3, #11
 8005822:	e77b      	b.n	800571c <USBH_MSC_BOT_Process+0x8c>
 8005824:	79a1      	ldrb	r1, [r4, #6]
 8005826:	f000 fdbc 	bl	80063a2 <USBH_ClrFeature>
 800582a:	4605      	mov	r5, r0
 800582c:	b980      	cbnz	r0, 8005850 <USBH_MSC_BOT_Process+0x1c0>
 800582e:	7961      	ldrb	r1, [r4, #5]
 8005830:	4630      	mov	r0, r6
 8005832:	f003 f995 	bl	8008b60 <USBH_LL_GetToggle>
 8005836:	f1c0 0201 	rsb	r2, r0, #1
 800583a:	7961      	ldrb	r1, [r4, #5]
 800583c:	b2d2      	uxtb	r2, r2
 800583e:	4630      	mov	r0, r6
 8005840:	f003 f97f 	bl	8008b42 <USBH_LL_SetToggle>
 8005844:	462a      	mov	r2, r5
 8005846:	7921      	ldrb	r1, [r4, #4]
 8005848:	4630      	mov	r0, r6
 800584a:	f003 f97a 	bl	8008b42 <USBH_LL_SetToggle>
 800584e:	e787      	b.n	8005760 <USBH_MSC_BOT_Process+0xd0>
 8005850:	2804      	cmp	r0, #4
 8005852:	e7e4      	b.n	800581e <USBH_MSC_BOT_Process+0x18e>
 8005854:	f7ff fef8 	bl	8005648 <USBH_MSC_BOT_REQ_Reset>
 8005858:	2800      	cmp	r0, #0
 800585a:	f47f af56 	bne.w	800570a <USBH_MSC_BOT_Process+0x7a>
 800585e:	2301      	movs	r3, #1
 8005860:	e749      	b.n	80056f6 <USBH_MSC_BOT_Process+0x66>
 8005862:	2002      	movs	r0, #2
 8005864:	e751      	b.n	800570a <USBH_MSC_BOT_Process+0x7a>
 8005866:	bf00      	nop
 8005868:	53425355 	.word	0x53425355

0800586c <USBH_MSC_SCSI_TestUnitReady>:
 800586c:	f8d0 3378 	ldr.w	r3, [r0, #888]	; 0x378
 8005870:	b570      	push	{r4, r5, r6, lr}
 8005872:	69dc      	ldr	r4, [r3, #28]
 8005874:	f894 5052 	ldrb.w	r5, [r4, #82]	; 0x52
 8005878:	2d01      	cmp	r5, #1
 800587a:	d003      	beq.n	8005884 <USBH_MSC_SCSI_TestUnitReady+0x18>
 800587c:	2d02      	cmp	r5, #2
 800587e:	d017      	beq.n	80058b0 <USBH_MSC_SCSI_TestUnitReady+0x44>
 8005880:	2002      	movs	r0, #2
 8005882:	e014      	b.n	80058ae <USBH_MSC_SCSI_TestUnitReady+0x42>
 8005884:	2600      	movs	r6, #0
 8005886:	230a      	movs	r3, #10
 8005888:	f884 3062 	strb.w	r3, [r4, #98]	; 0x62
 800588c:	65e6      	str	r6, [r4, #92]	; 0x5c
 800588e:	f884 6060 	strb.w	r6, [r4, #96]	; 0x60
 8005892:	2210      	movs	r2, #16
 8005894:	4631      	mov	r1, r6
 8005896:	f104 0063 	add.w	r0, r4, #99	; 0x63
 800589a:	f003 f9cf 	bl	8008c3c <memset>
 800589e:	2302      	movs	r3, #2
 80058a0:	f884 6063 	strb.w	r6, [r4, #99]	; 0x63
 80058a4:	f884 5050 	strb.w	r5, [r4, #80]	; 0x50
 80058a8:	f884 3052 	strb.w	r3, [r4, #82]	; 0x52
 80058ac:	4628      	mov	r0, r5
 80058ae:	bd70      	pop	{r4, r5, r6, pc}
 80058b0:	e8bd 4070 	ldmia.w	sp!, {r4, r5, r6, lr}
 80058b4:	f7ff beec 	b.w	8005690 <USBH_MSC_BOT_Process>

080058b8 <USBH_MSC_SCSI_ReadCapacity>:
 80058b8:	f8d0 3378 	ldr.w	r3, [r0, #888]	; 0x378
 80058bc:	b570      	push	{r4, r5, r6, lr}
 80058be:	69dc      	ldr	r4, [r3, #28]
 80058c0:	f894 5052 	ldrb.w	r5, [r4, #82]	; 0x52
 80058c4:	2d01      	cmp	r5, #1
 80058c6:	4616      	mov	r6, r2
 80058c8:	d003      	beq.n	80058d2 <USBH_MSC_SCSI_ReadCapacity+0x1a>
 80058ca:	2d02      	cmp	r5, #2
 80058cc:	d01c      	beq.n	8005908 <USBH_MSC_SCSI_ReadCapacity+0x50>
 80058ce:	2001      	movs	r0, #1
 80058d0:	e025      	b.n	800591e <USBH_MSC_SCSI_ReadCapacity+0x66>
 80058d2:	2308      	movs	r3, #8
 80058d4:	65e3      	str	r3, [r4, #92]	; 0x5c
 80058d6:	2380      	movs	r3, #128	; 0x80
 80058d8:	f884 3060 	strb.w	r3, [r4, #96]	; 0x60
 80058dc:	230a      	movs	r3, #10
 80058de:	f884 3062 	strb.w	r3, [r4, #98]	; 0x62
 80058e2:	2210      	movs	r2, #16
 80058e4:	2100      	movs	r1, #0
 80058e6:	f104 0063 	add.w	r0, r4, #99	; 0x63
 80058ea:	f003 f9a7 	bl	8008c3c <memset>
 80058ee:	2325      	movs	r3, #37	; 0x25
 80058f0:	f884 3063 	strb.w	r3, [r4, #99]	; 0x63
 80058f4:	2302      	movs	r3, #2
 80058f6:	f884 3052 	strb.w	r3, [r4, #82]	; 0x52
 80058fa:	f104 0310 	add.w	r3, r4, #16
 80058fe:	f884 5050 	strb.w	r5, [r4, #80]	; 0x50
 8005902:	f8c4 308c 	str.w	r3, [r4, #140]	; 0x8c
 8005906:	e7e2      	b.n	80058ce <USBH_MSC_SCSI_ReadCapacity+0x16>
 8005908:	f7ff fec2 	bl	8005690 <USBH_MSC_BOT_Process>
 800590c:	b938      	cbnz	r0, 800591e <USBH_MSC_SCSI_ReadCapacity+0x66>
 800590e:	f8d4 208c 	ldr.w	r2, [r4, #140]	; 0x8c
 8005912:	6813      	ldr	r3, [r2, #0]
 8005914:	ba1b      	rev	r3, r3
 8005916:	6033      	str	r3, [r6, #0]
 8005918:	88d3      	ldrh	r3, [r2, #6]
 800591a:	ba5b      	rev16	r3, r3
 800591c:	80b3      	strh	r3, [r6, #4]
 800591e:	bd70      	pop	{r4, r5, r6, pc}

08005920 <USBH_MSC_SCSI_Inquiry>:
 8005920:	b5f8      	push	{r3, r4, r5, r6, r7, lr}
 8005922:	f8d0 3378 	ldr.w	r3, [r0, #888]	; 0x378
 8005926:	69dc      	ldr	r4, [r3, #28]
 8005928:	f894 5052 	ldrb.w	r5, [r4, #82]	; 0x52
 800592c:	2d01      	cmp	r5, #1
 800592e:	460f      	mov	r7, r1
 8005930:	4616      	mov	r6, r2
 8005932:	d003      	beq.n	800593c <USBH_MSC_SCSI_Inquiry+0x1c>
 8005934:	2d02      	cmp	r5, #2
 8005936:	d025      	beq.n	8005984 <USBH_MSC_SCSI_Inquiry+0x64>
 8005938:	2502      	movs	r5, #2
 800593a:	e021      	b.n	8005980 <USBH_MSC_SCSI_Inquiry+0x60>
 800593c:	2380      	movs	r3, #128	; 0x80
 800593e:	f884 3060 	strb.w	r3, [r4, #96]	; 0x60
 8005942:	230a      	movs	r3, #10
 8005944:	f884 3062 	strb.w	r3, [r4, #98]	; 0x62
 8005948:	2300      	movs	r3, #0
 800594a:	f8c4 3069 	str.w	r3, [r4, #105]	; 0x69
 800594e:	f884 3065 	strb.w	r3, [r4, #101]	; 0x65
 8005952:	f884 3066 	strb.w	r3, [r4, #102]	; 0x66
 8005956:	f884 3068 	strb.w	r3, [r4, #104]	; 0x68
 800595a:	2302      	movs	r3, #2
 800595c:	2224      	movs	r2, #36	; 0x24
 800595e:	2112      	movs	r1, #18
 8005960:	017f      	lsls	r7, r7, #5
 8005962:	f884 3052 	strb.w	r3, [r4, #82]	; 0x52
 8005966:	f104 0310 	add.w	r3, r4, #16
 800596a:	65e2      	str	r2, [r4, #92]	; 0x5c
 800596c:	f884 1063 	strb.w	r1, [r4, #99]	; 0x63
 8005970:	f884 7064 	strb.w	r7, [r4, #100]	; 0x64
 8005974:	f884 2067 	strb.w	r2, [r4, #103]	; 0x67
 8005978:	f884 5050 	strb.w	r5, [r4, #80]	; 0x50
 800597c:	f8c4 308c 	str.w	r3, [r4, #140]	; 0x8c
 8005980:	4628      	mov	r0, r5
 8005982:	bdf8      	pop	{r3, r4, r5, r6, r7, pc}
 8005984:	f7ff fe84 	bl	8005690 <USBH_MSC_BOT_Process>
 8005988:	4605      	mov	r5, r0
 800598a:	2800      	cmp	r0, #0
 800598c:	d1f8      	bne.n	8005980 <USBH_MSC_SCSI_Inquiry+0x60>
 800598e:	4601      	mov	r1, r0
 8005990:	2222      	movs	r2, #34	; 0x22
 8005992:	4630      	mov	r0, r6
 8005994:	f003 f952 	bl	8008c3c <memset>
 8005998:	f8d4 308c 	ldr.w	r3, [r4, #140]	; 0x8c
 800599c:	781b      	ldrb	r3, [r3, #0]
 800599e:	f003 031f 	and.w	r3, r3, #31
 80059a2:	7073      	strb	r3, [r6, #1]
 80059a4:	f8d4 308c 	ldr.w	r3, [r4, #140]	; 0x8c
 80059a8:	781b      	ldrb	r3, [r3, #0]
 80059aa:	095b      	lsrs	r3, r3, #5
 80059ac:	7033      	strb	r3, [r6, #0]
 80059ae:	f8d4 308c 	ldr.w	r3, [r4, #140]	; 0x8c
 80059b2:	f993 3001 	ldrsb.w	r3, [r3, #1]
 80059b6:	2b00      	cmp	r3, #0
 80059b8:	bfba      	itte	lt
 80059ba:	2301      	movlt	r3, #1
 80059bc:	70b3      	strblt	r3, [r6, #2]
 80059be:	70b5      	strbge	r5, [r6, #2]
 80059c0:	f8d4 208c 	ldr.w	r2, [r4, #140]	; 0x8c
 80059c4:	f852 3f08 	ldr.w	r3, [r2, #8]!
 80059c8:	f8c6 3003 	str.w	r3, [r6, #3]
 80059cc:	6853      	ldr	r3, [r2, #4]
 80059ce:	f8c6 3007 	str.w	r3, [r6, #7]
 80059d2:	f8d4 308c 	ldr.w	r3, [r4, #140]	; 0x8c
 80059d6:	3310      	adds	r3, #16
 80059d8:	f106 020c 	add.w	r2, r6, #12
 80059dc:	f103 0110 	add.w	r1, r3, #16
 80059e0:	f853 0b04 	ldr.w	r0, [r3], #4
 80059e4:	f842 0b04 	str.w	r0, [r2], #4
 80059e8:	428b      	cmp	r3, r1
 80059ea:	d1f9      	bne.n	80059e0 <USBH_MSC_SCSI_Inquiry+0xc0>
 80059ec:	f8d4 308c 	ldr.w	r3, [r4, #140]	; 0x8c
 80059f0:	6a1b      	ldr	r3, [r3, #32]
 80059f2:	f8c6 301d 	str.w	r3, [r6, #29]
 80059f6:	e7c3      	b.n	8005980 <USBH_MSC_SCSI_Inquiry+0x60>

080059f8 <USBH_MSC_SCSI_RequestSense>:
 80059f8:	f8d0 3378 	ldr.w	r3, [r0, #888]	; 0x378
 80059fc:	b570      	push	{r4, r5, r6, lr}
 80059fe:	69dc      	ldr	r4, [r3, #28]
 8005a00:	f894 3052 	ldrb.w	r3, [r4, #82]	; 0x52
 8005a04:	2b01      	cmp	r3, #1
 8005a06:	460e      	mov	r6, r1
 8005a08:	4615      	mov	r5, r2
 8005a0a:	d003      	beq.n	8005a14 <USBH_MSC_SCSI_RequestSense+0x1c>
 8005a0c:	2b02      	cmp	r3, #2
 8005a0e:	d029      	beq.n	8005a64 <USBH_MSC_SCSI_RequestSense+0x6c>
 8005a10:	2002      	movs	r0, #2
 8005a12:	e026      	b.n	8005a62 <USBH_MSC_SCSI_RequestSense+0x6a>
 8005a14:	2280      	movs	r2, #128	; 0x80
 8005a16:	f884 2060 	strb.w	r2, [r4, #96]	; 0x60
 8005a1a:	220a      	movs	r2, #10
 8005a1c:	f884 2062 	strb.w	r2, [r4, #98]	; 0x62
 8005a20:	2200      	movs	r2, #0
 8005a22:	f8c4 2069 	str.w	r2, [r4, #105]	; 0x69
 8005a26:	f8c4 206d 	str.w	r2, [r4, #109]	; 0x6d
 8005a2a:	f8a4 2071 	strh.w	r2, [r4, #113]	; 0x71
 8005a2e:	f884 2065 	strb.w	r2, [r4, #101]	; 0x65
 8005a32:	f884 2066 	strb.w	r2, [r4, #102]	; 0x66
 8005a36:	f884 2068 	strb.w	r2, [r4, #104]	; 0x68
 8005a3a:	2202      	movs	r2, #2
 8005a3c:	210e      	movs	r1, #14
 8005a3e:	2003      	movs	r0, #3
 8005a40:	0176      	lsls	r6, r6, #5
 8005a42:	f884 2052 	strb.w	r2, [r4, #82]	; 0x52
 8005a46:	f104 0210 	add.w	r2, r4, #16
 8005a4a:	f884 0063 	strb.w	r0, [r4, #99]	; 0x63
 8005a4e:	65e1      	str	r1, [r4, #92]	; 0x5c
 8005a50:	f884 6064 	strb.w	r6, [r4, #100]	; 0x64
 8005a54:	f884 1067 	strb.w	r1, [r4, #103]	; 0x67
 8005a58:	f884 3050 	strb.w	r3, [r4, #80]	; 0x50
 8005a5c:	f8c4 208c 	str.w	r2, [r4, #140]	; 0x8c
 8005a60:	4618      	mov	r0, r3
 8005a62:	bd70      	pop	{r4, r5, r6, pc}
 8005a64:	f7ff fe14 	bl	8005690 <USBH_MSC_BOT_Process>
 8005a68:	2800      	cmp	r0, #0
 8005a6a:	d1fa      	bne.n	8005a62 <USBH_MSC_SCSI_RequestSense+0x6a>
 8005a6c:	f8d4 308c 	ldr.w	r3, [r4, #140]	; 0x8c
 8005a70:	789b      	ldrb	r3, [r3, #2]
 8005a72:	f003 030f 	and.w	r3, r3, #15
 8005a76:	702b      	strb	r3, [r5, #0]
 8005a78:	f8d4 308c 	ldr.w	r3, [r4, #140]	; 0x8c
 8005a7c:	7b1b      	ldrb	r3, [r3, #12]
 8005a7e:	706b      	strb	r3, [r5, #1]
 8005a80:	f8d4 308c 	ldr.w	r3, [r4, #140]	; 0x8c
 8005a84:	7b5b      	ldrb	r3, [r3, #13]
 8005a86:	70ab      	strb	r3, [r5, #2]
 8005a88:	e7eb      	b.n	8005a62 <USBH_MSC_SCSI_RequestSense+0x6a>

08005a8a <USBH_MSC_SCSI_Write>:
 8005a8a:	e92d 41f0 	stmdb	sp!, {r4, r5, r6, r7, r8, lr}
 8005a8e:	4698      	mov	r8, r3
 8005a90:	f8d0 3378 	ldr.w	r3, [r0, #888]	; 0x378
 8005a94:	9f06      	ldr	r7, [sp, #24]
 8005a96:	69dc      	ldr	r4, [r3, #28]
 8005a98:	f894 5052 	ldrb.w	r5, [r4, #82]	; 0x52
 8005a9c:	2d01      	cmp	r5, #1
 8005a9e:	4616      	mov	r6, r2
 8005aa0:	d003      	beq.n	8005aaa <USBH_MSC_SCSI_Write+0x20>
 8005aa2:	2d02      	cmp	r5, #2
 8005aa4:	d031      	beq.n	8005b0a <USBH_MSC_SCSI_Write+0x80>
 8005aa6:	2002      	movs	r0, #2
 8005aa8:	e02d      	b.n	8005b06 <USBH_MSC_SCSI_Write+0x7c>
 8005aaa:	f8b4 2098 	ldrh.w	r2, [r4, #152]	; 0x98
 8005aae:	230a      	movs	r3, #10
 8005ab0:	437a      	muls	r2, r7
 8005ab2:	2100      	movs	r1, #0
 8005ab4:	65e2      	str	r2, [r4, #92]	; 0x5c
 8005ab6:	f884 3062 	strb.w	r3, [r4, #98]	; 0x62
 8005aba:	f884 1060 	strb.w	r1, [r4, #96]	; 0x60
 8005abe:	2210      	movs	r2, #16
 8005ac0:	f104 0063 	add.w	r0, r4, #99	; 0x63
 8005ac4:	f003 f8ba 	bl	8008c3c <memset>
 8005ac8:	232a      	movs	r3, #42	; 0x2a
 8005aca:	f884 3063 	strb.w	r3, [r4, #99]	; 0x63
 8005ace:	f3c6 6307 	ubfx	r3, r6, #24, #8
 8005ad2:	f884 3065 	strb.w	r3, [r4, #101]	; 0x65
 8005ad6:	f3c6 4307 	ubfx	r3, r6, #16, #8
 8005ada:	f884 3066 	strb.w	r3, [r4, #102]	; 0x66
 8005ade:	f3c6 2307 	ubfx	r3, r6, #8, #8
 8005ae2:	f884 3067 	strb.w	r3, [r4, #103]	; 0x67
 8005ae6:	f3c7 2307 	ubfx	r3, r7, #8, #8
 8005aea:	f884 306a 	strb.w	r3, [r4, #106]	; 0x6a
 8005aee:	2302      	movs	r3, #2
 8005af0:	f884 6068 	strb.w	r6, [r4, #104]	; 0x68
 8005af4:	f884 706b 	strb.w	r7, [r4, #107]	; 0x6b
 8005af8:	f884 5050 	strb.w	r5, [r4, #80]	; 0x50
 8005afc:	f884 3052 	strb.w	r3, [r4, #82]	; 0x52
 8005b00:	f8c4 808c 	str.w	r8, [r4, #140]	; 0x8c
 8005b04:	4628      	mov	r0, r5
 8005b06:	e8bd 81f0 	ldmia.w	sp!, {r4, r5, r6, r7, r8, pc}
 8005b0a:	e8bd 41f0 	ldmia.w	sp!, {r4, r5, r6, r7, r8, lr}
 8005b0e:	f7ff bdbf 	b.w	8005690 <USBH_MSC_BOT_Process>

08005b12 <USBH_MSC_SCSI_Read>:
 8005b12:	e92d 41f0 	stmdb	sp!, {r4, r5, r6, r7, r8, lr}
 8005b16:	4698      	mov	r8, r3
 8005b18:	f8d0 3378 	ldr.w	r3, [r0, #888]	; 0x378
 8005b1c:	9f06      	ldr	r7, [sp, #24]
 8005b1e:	69dc      	ldr	r4, [r3, #28]
 8005b20:	f894 5052 	ldrb.w	r5, [r4, #82]	; 0x52
 8005b24:	2d01      	cmp	r5, #1
 8005b26:	4616      	mov	r6, r2
 8005b28:	d003      	beq.n	8005b32 <USBH_MSC_SCSI_Read+0x20>
 8005b2a:	2d02      	cmp	r5, #2
 8005b2c:	d032      	beq.n	8005b94 <USBH_MSC_SCSI_Read+0x82>
 8005b2e:	2002      	movs	r0, #2
 8005b30:	e02e      	b.n	8005b90 <USBH_MSC_SCSI_Read+0x7e>
 8005b32:	f8b4 2098 	ldrh.w	r2, [r4, #152]	; 0x98
 8005b36:	2380      	movs	r3, #128	; 0x80
 8005b38:	437a      	muls	r2, r7
 8005b3a:	f884 3060 	strb.w	r3, [r4, #96]	; 0x60
 8005b3e:	230a      	movs	r3, #10
 8005b40:	65e2      	str	r2, [r4, #92]	; 0x5c
 8005b42:	f884 3062 	strb.w	r3, [r4, #98]	; 0x62
 8005b46:	2210      	movs	r2, #16
 8005b48:	2100      	movs	r1, #0
 8005b4a:	f104 0063 	add.w	r0, r4, #99	; 0x63
 8005b4e:	f003 f875 	bl	8008c3c <memset>
 8005b52:	2328      	movs	r3, #40	; 0x28
 8005b54:	f884 3063 	strb.w	r3, [r4, #99]	; 0x63
 8005b58:	f3c6 6307 	ubfx	r3, r6, #24, #8
 8005b5c:	f884 3065 	strb.w	r3, [r4, #101]	; 0x65
 8005b60:	f3c6 4307 	ubfx	r3, r6, #16, #8
 8005b64:	f884 3066 	strb.w	r3, [r4, #102]	; 0x66
 8005b68:	f3c6 2307 	ubfx	r3, r6, #8, #8
 8005b6c:	f884 3067 	strb.w	r3, [r4, #103]	; 0x67
 8005b70:	f3c7 2307 	ubfx	r3, r7, #8, #8
 8005b74:	f884 306a 	strb.w	r3, [r4, #106]	; 0x6a
 8005b78:	2302      	movs	r3, #2
 8005b7a:	f884 6068 	strb.w	r6, [r4, #104]	; 0x68
 8005b7e:	f884 706b 	strb.w	r7, [r4, #107]	; 0x6b
 8005b82:	f884 5050 	strb.w	r5, [r4, #80]	; 0x50
 8005b86:	f884 3052 	strb.w	r3, [r4, #82]	; 0x52
 8005b8a:	f8c4 808c 	str.w	r8, [r4, #140]	; 0x8c
 8005b8e:	4628      	mov	r0, r5
 8005b90:	e8bd 81f0 	ldmia.w	sp!, {r4, r5, r6, r7, r8, pc}
 8005b94:	e8bd 41f0 	ldmia.w	sp!, {r4, r5, r6, r7, r8, lr}
 8005b98:	f7ff bd7a 	b.w	8005690 <USBH_MSC_BOT_Process>

08005b9c <DeInitStateMachine>:
 8005b9c:	f500 7360 	add.w	r3, r0, #896	; 0x380
 8005ba0:	f500 726f 	add.w	r2, r0, #956	; 0x3bc
 8005ba4:	2100      	movs	r1, #0
 8005ba6:	f843 1b04 	str.w	r1, [r3], #4
 8005baa:	4293      	cmp	r3, r2
 8005bac:	d1fb      	bne.n	8005ba6 <DeInitStateMachine+0xa>
 8005bae:	f500 728e 	add.w	r2, r0, #284	; 0x11c
 8005bb2:	f500 7147 	add.w	r1, r0, #796	; 0x31c
 8005bb6:	2300      	movs	r3, #0
 8005bb8:	f802 3b01 	strb.w	r3, [r2], #1
 8005bbc:	4291      	cmp	r1, r2
 8005bbe:	d1fb      	bne.n	8005bb8 <DeInitStateMachine+0x1c>
 8005bc0:	2201      	movs	r2, #1
 8005bc2:	7003      	strb	r3, [r0, #0]
 8005bc4:	7043      	strb	r3, [r0, #1]
 8005bc6:	7082      	strb	r2, [r0, #2]
 8005bc8:	f8c0 33c0 	str.w	r3, [r0, #960]	; 0x3c0
 8005bcc:	7602      	strb	r2, [r0, #24]
 8005bce:	7643      	strb	r3, [r0, #25]
 8005bd0:	2240      	movs	r2, #64	; 0x40
 8005bd2:	f44f 7380 	mov.w	r3, #256	; 0x100
 8005bd6:	7182      	strb	r2, [r0, #6]
 8005bd8:	f8a0 331c 	strh.w	r3, [r0, #796]	; 0x31c
 8005bdc:	2000      	movs	r0, #0
 8005bde:	4770      	bx	lr

08005be0 <USBH_Init>:
 8005be0:	b570      	push	{r4, r5, r6, lr}
 8005be2:	460e      	mov	r6, r1
 8005be4:	4604      	mov	r4, r0
 8005be6:	b1c0      	cbz	r0, 8005c1a <USBH_Init+0x3a>
 8005be8:	2500      	movs	r5, #0
 8005bea:	f880 23c4 	strb.w	r2, [r0, #964]	; 0x3c4
 8005bee:	f8c0 5378 	str.w	r5, [r0, #888]	; 0x378
 8005bf2:	f8c0 537c 	str.w	r5, [r0, #892]	; 0x37c
 8005bf6:	f7ff ffd1 	bl	8005b9c <DeInitStateMachine>
 8005bfa:	f884 531e 	strb.w	r5, [r4, #798]	; 0x31e
 8005bfe:	f884 5321 	strb.w	r5, [r4, #801]	; 0x321
 8005c02:	f884 531f 	strb.w	r5, [r4, #799]	; 0x31f
 8005c06:	f884 5320 	strb.w	r5, [r4, #800]	; 0x320
 8005c0a:	b10e      	cbz	r6, 8005c10 <USBH_Init+0x30>
 8005c0c:	f8c4 63cc 	str.w	r6, [r4, #972]	; 0x3cc
 8005c10:	4620      	mov	r0, r4
 8005c12:	f002 fee3 	bl	80089dc <USBH_LL_Init>
 8005c16:	2000      	movs	r0, #0
 8005c18:	bd70      	pop	{r4, r5, r6, pc}
 8005c1a:	2002      	movs	r0, #2
 8005c1c:	e7fc      	b.n	8005c18 <USBH_Init+0x38>

08005c1e <USBH_RegisterClass>:
 8005c1e:	b149      	cbz	r1, 8005c34 <USBH_RegisterClass+0x16>
 8005c20:	f8d0 337c 	ldr.w	r3, [r0, #892]	; 0x37c
 8005c24:	b933      	cbnz	r3, 8005c34 <USBH_RegisterClass+0x16>
 8005c26:	2201      	movs	r2, #1
 8005c28:	f8c0 237c 	str.w	r2, [r0, #892]	; 0x37c
 8005c2c:	f8c0 1374 	str.w	r1, [r0, #884]	; 0x374
 8005c30:	4618      	mov	r0, r3
 8005c32:	4770      	bx	lr
 8005c34:	2002      	movs	r0, #2
 8005c36:	4770      	bx	lr

08005c38 <USBH_SelectInterface>:
 8005c38:	f890 333a 	ldrb.w	r3, [r0, #826]	; 0x33a
 8005c3c:	428b      	cmp	r3, r1
 8005c3e:	bf86      	itte	hi
 8005c40:	f880 1322 	strbhi.w	r1, [r0, #802]	; 0x322
 8005c44:	2000      	movhi	r0, #0
 8005c46:	2002      	movls	r0, #2
 8005c48:	4770      	bx	lr

08005c4a <USBH_FindInterface>:
 8005c4a:	b570      	push	{r4, r5, r6, lr}
 8005c4c:	2400      	movs	r4, #0
 8005c4e:	f890 6345 	ldrb.w	r6, [r0, #837]	; 0x345
 8005c52:	428e      	cmp	r6, r1
 8005c54:	b2e5      	uxtb	r5, r4
 8005c56:	d001      	beq.n	8005c5c <USBH_FindInterface+0x12>
 8005c58:	29ff      	cmp	r1, #255	; 0xff
 8005c5a:	d10b      	bne.n	8005c74 <USBH_FindInterface+0x2a>
 8005c5c:	f890 6346 	ldrb.w	r6, [r0, #838]	; 0x346
 8005c60:	4296      	cmp	r6, r2
 8005c62:	d001      	beq.n	8005c68 <USBH_FindInterface+0x1e>
 8005c64:	2aff      	cmp	r2, #255	; 0xff
 8005c66:	d105      	bne.n	8005c74 <USBH_FindInterface+0x2a>
 8005c68:	f890 6347 	ldrb.w	r6, [r0, #839]	; 0x347
 8005c6c:	429e      	cmp	r6, r3
 8005c6e:	d004      	beq.n	8005c7a <USBH_FindInterface+0x30>
 8005c70:	2bff      	cmp	r3, #255	; 0xff
 8005c72:	d002      	beq.n	8005c7a <USBH_FindInterface+0x30>
 8005c74:	301a      	adds	r0, #26
 8005c76:	b114      	cbz	r4, 8005c7e <USBH_FindInterface+0x34>
 8005c78:	25ff      	movs	r5, #255	; 0xff
 8005c7a:	4628      	mov	r0, r5
 8005c7c:	bd70      	pop	{r4, r5, r6, pc}
 8005c7e:	2401      	movs	r4, #1
 8005c80:	e7e5      	b.n	8005c4e <USBH_FindInterface+0x4>

08005c82 <USBH_Start>:
 8005c82:	b510      	push	{r4, lr}
 8005c84:	4604      	mov	r4, r0
 8005c86:	f002 fecf 	bl	8008a28 <USBH_LL_Start>
 8005c8a:	2101      	movs	r1, #1
 8005c8c:	4620      	mov	r0, r4
 8005c8e:	f002 ff4b 	bl	8008b28 <USBH_LL_DriverVBUS>
 8005c92:	2000      	movs	r0, #0
 8005c94:	bd10      	pop	{r4, pc}

08005c96 <USBH_Process>:
 8005c96:	b530      	push	{r4, r5, lr}
 8005c98:	b087      	sub	sp, #28
 8005c9a:	2302      	movs	r3, #2
 8005c9c:	f88d 3017 	strb.w	r3, [sp, #23]
 8005ca0:	f890 331f 	ldrb.w	r3, [r0, #799]	; 0x31f
 8005ca4:	2b01      	cmp	r3, #1
 8005ca6:	bf04      	itt	eq
 8005ca8:	2303      	moveq	r3, #3
 8005caa:	7003      	strbeq	r3, [r0, #0]
 8005cac:	7803      	ldrb	r3, [r0, #0]
 8005cae:	4604      	mov	r4, r0
 8005cb0:	2b0b      	cmp	r3, #11
 8005cb2:	d818      	bhi.n	8005ce6 <USBH_Process+0x50>
 8005cb4:	e8df f013 	tbh	[pc, r3, lsl #1]
 8005cb8:	001a000c 	.word	0x001a000c
 8005cbc:	011b0021 	.word	0x011b0021
 8005cc0:	00560017 	.word	0x00560017
 8005cc4:	00c70103 	.word	0x00c70103
 8005cc8:	00d800cf 	.word	0x00d800cf
 8005ccc:	011300e4 	.word	0x011300e4
 8005cd0:	f890 331e 	ldrb.w	r3, [r0, #798]	; 0x31e
 8005cd4:	b13b      	cbz	r3, 8005ce6 <USBH_Process+0x50>
 8005cd6:	2301      	movs	r3, #1
 8005cd8:	7003      	strb	r3, [r0, #0]
 8005cda:	20c8      	movs	r0, #200	; 0xc8
 8005cdc:	f002 ff4e 	bl	8008b7c <USBH_Delay>
 8005ce0:	4620      	mov	r0, r4
 8005ce2:	f002 fecb 	bl	8008a7c <USBH_LL_ResetPort>
 8005ce6:	2000      	movs	r0, #0
 8005ce8:	b007      	add	sp, #28
 8005cea:	bd30      	pop	{r4, r5, pc}
 8005cec:	f890 3321 	ldrb.w	r3, [r0, #801]	; 0x321
 8005cf0:	2b01      	cmp	r3, #1
 8005cf2:	d1f8      	bne.n	8005ce6 <USBH_Process+0x50>
 8005cf4:	2302      	movs	r3, #2
 8005cf6:	7023      	strb	r3, [r4, #0]
 8005cf8:	e7f5      	b.n	8005ce6 <USBH_Process+0x50>
 8005cfa:	f8d0 33cc 	ldr.w	r3, [r0, #972]	; 0x3cc
 8005cfe:	b10b      	cbz	r3, 8005d04 <USBH_Process+0x6e>
 8005d00:	2104      	movs	r1, #4
 8005d02:	4798      	blx	r3
 8005d04:	2064      	movs	r0, #100	; 0x64
 8005d06:	f002 ff39 	bl	8008b7c <USBH_Delay>
 8005d0a:	4620      	mov	r0, r4
 8005d0c:	f002 fea8 	bl	8008a60 <USBH_LL_GetSpeed>
 8005d10:	2305      	movs	r3, #5
 8005d12:	7023      	strb	r3, [r4, #0]
 8005d14:	f884 031d 	strb.w	r0, [r4, #797]	; 0x31d
 8005d18:	2100      	movs	r1, #0
 8005d1a:	4620      	mov	r0, r4
 8005d1c:	f000 fbc1 	bl	80064a2 <USBH_AllocPipe>
 8005d20:	2180      	movs	r1, #128	; 0x80
 8005d22:	7160      	strb	r0, [r4, #5]
 8005d24:	4620      	mov	r0, r4
 8005d26:	f000 fbbc 	bl	80064a2 <USBH_AllocPipe>
 8005d2a:	79a2      	ldrb	r2, [r4, #6]
 8005d2c:	f894 331c 	ldrb.w	r3, [r4, #796]	; 0x31c
 8005d30:	7120      	strb	r0, [r4, #4]
 8005d32:	4601      	mov	r1, r0
 8005d34:	9202      	str	r2, [sp, #8]
 8005d36:	2500      	movs	r5, #0
 8005d38:	f894 231d 	ldrb.w	r2, [r4, #797]	; 0x31d
 8005d3c:	9200      	str	r2, [sp, #0]
 8005d3e:	9501      	str	r5, [sp, #4]
 8005d40:	2280      	movs	r2, #128	; 0x80
 8005d42:	4620      	mov	r0, r4
 8005d44:	f000 fb99 	bl	800647a <USBH_OpenPipe>
 8005d48:	79a2      	ldrb	r2, [r4, #6]
 8005d4a:	f894 331c 	ldrb.w	r3, [r4, #796]	; 0x31c
 8005d4e:	7961      	ldrb	r1, [r4, #5]
 8005d50:	e9cd 5201 	strd	r5, r2, [sp, #4]
 8005d54:	f894 231d 	ldrb.w	r2, [r4, #797]	; 0x31d
 8005d58:	9200      	str	r2, [sp, #0]
 8005d5a:	4620      	mov	r0, r4
 8005d5c:	462a      	mov	r2, r5
 8005d5e:	f000 fb8c 	bl	800647a <USBH_OpenPipe>
 8005d62:	e7c0      	b.n	8005ce6 <USBH_Process+0x50>
 8005d64:	7843      	ldrb	r3, [r0, #1]
 8005d66:	2b07      	cmp	r3, #7
 8005d68:	d8bd      	bhi.n	8005ce6 <USBH_Process+0x50>
 8005d6a:	e8df f003 	tbb	[pc, r3]
 8005d6e:	1404      	.short	0x1404
 8005d70:	3c342d1c 	.word	0x3c342d1c
 8005d74:	5649      	.short	0x5649
 8005d76:	2108      	movs	r1, #8
 8005d78:	f000 f9f0 	bl	800615c <USBH_Get_DevDesc>
 8005d7c:	4605      	mov	r5, r0
 8005d7e:	2800      	cmp	r0, #0
 8005d80:	d1b1      	bne.n	8005ce6 <USBH_Process+0x50>
 8005d82:	2301      	movs	r3, #1
 8005d84:	f894 232b 	ldrb.w	r2, [r4, #811]	; 0x32b
 8005d88:	7063      	strb	r3, [r4, #1]
 8005d8a:	7921      	ldrb	r1, [r4, #4]
 8005d8c:	f894 331c 	ldrb.w	r3, [r4, #796]	; 0x31c
 8005d90:	71a2      	strb	r2, [r4, #6]
 8005d92:	9202      	str	r2, [sp, #8]
 8005d94:	e7d0      	b.n	8005d38 <USBH_Process+0xa2>
 8005d96:	2112      	movs	r1, #18
 8005d98:	f000 f9e0 	bl	800615c <USBH_Get_DevDesc>
 8005d9c:	2800      	cmp	r0, #0
 8005d9e:	d1a2      	bne.n	8005ce6 <USBH_Process+0x50>
 8005da0:	2302      	movs	r3, #2
 8005da2:	7063      	strb	r3, [r4, #1]
 8005da4:	e79f      	b.n	8005ce6 <USBH_Process+0x50>
 8005da6:	2101      	movs	r1, #1
 8005da8:	f000 fad4 	bl	8006354 <USBH_SetAddress>
 8005dac:	4605      	mov	r5, r0
 8005dae:	2800      	cmp	r0, #0
 8005db0:	d199      	bne.n	8005ce6 <USBH_Process+0x50>
 8005db2:	2002      	movs	r0, #2
 8005db4:	f002 fee2 	bl	8008b7c <USBH_Delay>
 8005db8:	2203      	movs	r2, #3
 8005dba:	2301      	movs	r3, #1
 8005dbc:	7062      	strb	r2, [r4, #1]
 8005dbe:	f884 331c 	strb.w	r3, [r4, #796]	; 0x31c
 8005dc2:	7921      	ldrb	r1, [r4, #4]
 8005dc4:	79a2      	ldrb	r2, [r4, #6]
 8005dc6:	e7e4      	b.n	8005d92 <USBH_Process+0xfc>
 8005dc8:	2109      	movs	r1, #9
 8005dca:	f000 fa0f 	bl	80061ec <USBH_Get_CfgDesc>
 8005dce:	2800      	cmp	r0, #0
 8005dd0:	d189      	bne.n	8005ce6 <USBH_Process+0x50>
 8005dd2:	2304      	movs	r3, #4
 8005dd4:	e7e5      	b.n	8005da2 <USBH_Process+0x10c>
 8005dd6:	f8b0 1338 	ldrh.w	r1, [r0, #824]	; 0x338
 8005dda:	f000 fa07 	bl	80061ec <USBH_Get_CfgDesc>
 8005dde:	2800      	cmp	r0, #0
 8005de0:	d181      	bne.n	8005ce6 <USBH_Process+0x50>
 8005de2:	2305      	movs	r3, #5
 8005de4:	e7dd      	b.n	8005da2 <USBH_Process+0x10c>
 8005de6:	f890 1332 	ldrb.w	r1, [r0, #818]	; 0x332
 8005dea:	b139      	cbz	r1, 8005dfc <USBH_Process+0x166>
 8005dec:	23ff      	movs	r3, #255	; 0xff
 8005dee:	f500 728e 	add.w	r2, r0, #284	; 0x11c
 8005df2:	f000 fa88 	bl	8006306 <USBH_Get_StringDesc>
 8005df6:	2800      	cmp	r0, #0
 8005df8:	f47f af75 	bne.w	8005ce6 <USBH_Process+0x50>
 8005dfc:	2306      	movs	r3, #6
 8005dfe:	e7d0      	b.n	8005da2 <USBH_Process+0x10c>
 8005e00:	f890 1333 	ldrb.w	r1, [r0, #819]	; 0x333
 8005e04:	b139      	cbz	r1, 8005e16 <USBH_Process+0x180>
 8005e06:	23ff      	movs	r3, #255	; 0xff
 8005e08:	f500 728e 	add.w	r2, r0, #284	; 0x11c
 8005e0c:	f000 fa7b 	bl	8006306 <USBH_Get_StringDesc>
 8005e10:	2800      	cmp	r0, #0
 8005e12:	f47f af68 	bne.w	8005ce6 <USBH_Process+0x50>
 8005e16:	2307      	movs	r3, #7
 8005e18:	e7c3      	b.n	8005da2 <USBH_Process+0x10c>
 8005e1a:	f890 1334 	ldrb.w	r1, [r0, #820]	; 0x334
 8005e1e:	b941      	cbnz	r1, 8005e32 <USBH_Process+0x19c>
 8005e20:	2300      	movs	r3, #0
 8005e22:	f884 3322 	strb.w	r3, [r4, #802]	; 0x322
 8005e26:	f894 3335 	ldrb.w	r3, [r4, #821]	; 0x335
 8005e2a:	2b01      	cmp	r3, #1
 8005e2c:	d109      	bne.n	8005e42 <USBH_Process+0x1ac>
 8005e2e:	2308      	movs	r3, #8
 8005e30:	e761      	b.n	8005cf6 <USBH_Process+0x60>
 8005e32:	23ff      	movs	r3, #255	; 0xff
 8005e34:	f500 728e 	add.w	r2, r0, #284	; 0x11c
 8005e38:	f000 fa65 	bl	8006306 <USBH_Get_StringDesc>
 8005e3c:	2800      	cmp	r0, #0
 8005e3e:	d0ef      	beq.n	8005e20 <USBH_Process+0x18a>
 8005e40:	e751      	b.n	8005ce6 <USBH_Process+0x50>
 8005e42:	2307      	movs	r3, #7
 8005e44:	e757      	b.n	8005cf6 <USBH_Process+0x60>
 8005e46:	f8d0 33cc 	ldr.w	r3, [r0, #972]	; 0x3cc
 8005e4a:	2b00      	cmp	r3, #0
 8005e4c:	f43f af4b 	beq.w	8005ce6 <USBH_Process+0x50>
 8005e50:	2101      	movs	r1, #1
 8005e52:	4798      	blx	r3
 8005e54:	e7eb      	b.n	8005e2e <USBH_Process+0x198>
 8005e56:	f890 133b 	ldrb.w	r1, [r0, #827]	; 0x33b
 8005e5a:	f000 fa88 	bl	800636e <USBH_SetCfg>
 8005e5e:	2800      	cmp	r0, #0
 8005e60:	f47f af41 	bne.w	8005ce6 <USBH_Process+0x50>
 8005e64:	2309      	movs	r3, #9
 8005e66:	e746      	b.n	8005cf6 <USBH_Process+0x60>
 8005e68:	f890 333d 	ldrb.w	r3, [r0, #829]	; 0x33d
 8005e6c:	069b      	lsls	r3, r3, #26
 8005e6e:	d505      	bpl.n	8005e7c <USBH_Process+0x1e6>
 8005e70:	2101      	movs	r1, #1
 8005e72:	f000 fa89 	bl	8006388 <USBH_SetFeature>
 8005e76:	2800      	cmp	r0, #0
 8005e78:	f47f af35 	bne.w	8005ce6 <USBH_Process+0x50>
 8005e7c:	230a      	movs	r3, #10
 8005e7e:	e73a      	b.n	8005cf6 <USBH_Process+0x60>
 8005e80:	f8d0 337c 	ldr.w	r3, [r0, #892]	; 0x37c
 8005e84:	2b00      	cmp	r3, #0
 8005e86:	f43f af2e 	beq.w	8005ce6 <USBH_Process+0x50>
 8005e8a:	2300      	movs	r3, #0
 8005e8c:	f8c0 3378 	str.w	r3, [r0, #888]	; 0x378
 8005e90:	f8d0 3374 	ldr.w	r3, [r0, #884]	; 0x374
 8005e94:	f890 2345 	ldrb.w	r2, [r0, #837]	; 0x345
 8005e98:	7919      	ldrb	r1, [r3, #4]
 8005e9a:	4291      	cmp	r1, r2
 8005e9c:	bf08      	it	eq
 8005e9e:	f8c0 3378 	streq.w	r3, [r0, #888]	; 0x378
 8005ea2:	f8d0 3378 	ldr.w	r3, [r0, #888]	; 0x378
 8005ea6:	b1c3      	cbz	r3, 8005eda <USBH_Process+0x244>
 8005ea8:	689b      	ldr	r3, [r3, #8]
 8005eaa:	4798      	blx	r3
 8005eac:	b9a8      	cbnz	r0, 8005eda <USBH_Process+0x244>
 8005eae:	2306      	movs	r3, #6
 8005eb0:	7023      	strb	r3, [r4, #0]
 8005eb2:	2103      	movs	r1, #3
 8005eb4:	f8d4 33cc 	ldr.w	r3, [r4, #972]	; 0x3cc
 8005eb8:	4620      	mov	r0, r4
 8005eba:	4798      	blx	r3
 8005ebc:	e713      	b.n	8005ce6 <USBH_Process+0x50>
 8005ebe:	f8d0 3378 	ldr.w	r3, [r0, #888]	; 0x378
 8005ec2:	b153      	cbz	r3, 8005eda <USBH_Process+0x244>
 8005ec4:	691b      	ldr	r3, [r3, #16]
 8005ec6:	4798      	blx	r3
 8005ec8:	f88d 0017 	strb.w	r0, [sp, #23]
 8005ecc:	f89d 3017 	ldrb.w	r3, [sp, #23]
 8005ed0:	2b00      	cmp	r3, #0
 8005ed2:	f47f af08 	bne.w	8005ce6 <USBH_Process+0x50>
 8005ed6:	230b      	movs	r3, #11
 8005ed8:	e70d      	b.n	8005cf6 <USBH_Process+0x60>
 8005eda:	230d      	movs	r3, #13
 8005edc:	e70b      	b.n	8005cf6 <USBH_Process+0x60>
 8005ede:	f8d0 3378 	ldr.w	r3, [r0, #888]	; 0x378
 8005ee2:	2b00      	cmp	r3, #0
 8005ee4:	f43f aeff 	beq.w	8005ce6 <USBH_Process+0x50>
 8005ee8:	695b      	ldr	r3, [r3, #20]
 8005eea:	4798      	blx	r3
 8005eec:	e6fb      	b.n	8005ce6 <USBH_Process+0x50>
 8005eee:	2500      	movs	r5, #0
 8005ef0:	f880 531f 	strb.w	r5, [r0, #799]	; 0x31f
 8005ef4:	f7ff fe52 	bl	8005b9c <DeInitStateMachine>
 8005ef8:	f8d4 3378 	ldr.w	r3, [r4, #888]	; 0x378
 8005efc:	b123      	cbz	r3, 8005f08 <USBH_Process+0x272>
 8005efe:	68db      	ldr	r3, [r3, #12]
 8005f00:	4620      	mov	r0, r4
 8005f02:	4798      	blx	r3
 8005f04:	f8c4 5378 	str.w	r5, [r4, #888]	; 0x378
 8005f08:	f8d4 33cc 	ldr.w	r3, [r4, #972]	; 0x3cc
 8005f0c:	b113      	cbz	r3, 8005f14 <USBH_Process+0x27e>
 8005f0e:	2105      	movs	r1, #5
 8005f10:	4620      	mov	r0, r4
 8005f12:	4798      	blx	r3
 8005f14:	f894 3320 	ldrb.w	r3, [r4, #800]	; 0x320
 8005f18:	2b01      	cmp	r3, #1
 8005f1a:	d106      	bne.n	8005f2a <USBH_Process+0x294>
 8005f1c:	2300      	movs	r3, #0
 8005f1e:	f884 3320 	strb.w	r3, [r4, #800]	; 0x320
 8005f22:	4620      	mov	r0, r4
 8005f24:	f7ff fead 	bl	8005c82 <USBH_Start>
 8005f28:	e6dd      	b.n	8005ce6 <USBH_Process+0x50>
 8005f2a:	4620      	mov	r0, r4
 8005f2c:	f002 fd7c 	bl	8008a28 <USBH_LL_Start>
 8005f30:	e6d9      	b.n	8005ce6 <USBH_Process+0x50>

08005f32 <USBH_LL_SetTimer>:
 8005f32:	f8c0 13c0 	str.w	r1, [r0, #960]	; 0x3c0
 8005f36:	4770      	bx	lr

08005f38 <USBH_LL_IncTimer>:
 8005f38:	f8d0 23c0 	ldr.w	r2, [r0, #960]	; 0x3c0
 8005f3c:	3201      	adds	r2, #1
 8005f3e:	f8c0 23c0 	str.w	r2, [r0, #960]	; 0x3c0
 8005f42:	7802      	ldrb	r2, [r0, #0]
 8005f44:	2a0b      	cmp	r2, #11
 8005f46:	d104      	bne.n	8005f52 <USBH_LL_IncTimer+0x1a>
 8005f48:	f8d0 3378 	ldr.w	r3, [r0, #888]	; 0x378
 8005f4c:	b10b      	cbz	r3, 8005f52 <USBH_LL_IncTimer+0x1a>
 8005f4e:	699b      	ldr	r3, [r3, #24]
 8005f50:	4718      	bx	r3
 8005f52:	4770      	bx	lr

08005f54 <USBH_LL_PortEnabled>:
 8005f54:	2301      	movs	r3, #1
 8005f56:	f880 3321 	strb.w	r3, [r0, #801]	; 0x321
 8005f5a:	4770      	bx	lr

08005f5c <USBH_LL_PortDisabled>:
 8005f5c:	2300      	movs	r3, #0
 8005f5e:	f880 3321 	strb.w	r3, [r0, #801]	; 0x321
 8005f62:	4770      	bx	lr

08005f64 <USBH_LL_Connect>:
 8005f64:	2301      	movs	r3, #1
 8005f66:	f880 331e 	strb.w	r3, [r0, #798]	; 0x31e
 8005f6a:	2300      	movs	r3, #0
 8005f6c:	f880 331f 	strb.w	r3, [r0, #799]	; 0x31f
 8005f70:	f880 3320 	strb.w	r3, [r0, #800]	; 0x320
 8005f74:	4618      	mov	r0, r3
 8005f76:	4770      	bx	lr

08005f78 <USBH_LL_Disconnect>:
 8005f78:	b538      	push	{r3, r4, r5, lr}
 8005f7a:	4604      	mov	r4, r0
 8005f7c:	2301      	movs	r3, #1
 8005f7e:	2500      	movs	r5, #0
 8005f80:	f880 331f 	strb.w	r3, [r0, #799]	; 0x31f
 8005f84:	f880 5321 	strb.w	r5, [r0, #801]	; 0x321
 8005f88:	f880 531e 	strb.w	r5, [r0, #798]	; 0x31e
 8005f8c:	f002 fd5a 	bl	8008a44 <USBH_LL_Stop>
 8005f90:	7921      	ldrb	r1, [r4, #4]
 8005f92:	4620      	mov	r0, r4
 8005f94:	f000 fa9c 	bl	80064d0 <USBH_FreePipe>
 8005f98:	7961      	ldrb	r1, [r4, #5]
 8005f9a:	4620      	mov	r0, r4
 8005f9c:	f000 fa98 	bl	80064d0 <USBH_FreePipe>
 8005fa0:	4628      	mov	r0, r5
 8005fa2:	bd38      	pop	{r3, r4, r5, pc}

08005fa4 <USBH_CtlReq>:
 8005fa4:	b513      	push	{r0, r1, r4, lr}
 8005fa6:	4604      	mov	r4, r0
 8005fa8:	7880      	ldrb	r0, [r0, #2]
 8005faa:	2801      	cmp	r0, #1
 8005fac:	d003      	beq.n	8005fb6 <USBH_CtlReq+0x12>
 8005fae:	2802      	cmp	r0, #2
 8005fb0:	d008      	beq.n	8005fc4 <USBH_CtlReq+0x20>
 8005fb2:	2001      	movs	r0, #1
 8005fb4:	e004      	b.n	8005fc0 <USBH_CtlReq+0x1c>
 8005fb6:	2302      	movs	r3, #2
 8005fb8:	60a1      	str	r1, [r4, #8]
 8005fba:	81a2      	strh	r2, [r4, #12]
 8005fbc:	7620      	strb	r0, [r4, #24]
 8005fbe:	70a3      	strb	r3, [r4, #2]
 8005fc0:	b002      	add	sp, #8
 8005fc2:	bd10      	pop	{r4, pc}
 8005fc4:	7e23      	ldrb	r3, [r4, #24]
 8005fc6:	3b01      	subs	r3, #1
 8005fc8:	2101      	movs	r1, #1
 8005fca:	2b0a      	cmp	r3, #10
 8005fcc:	d8f1      	bhi.n	8005fb2 <USBH_CtlReq+0xe>
 8005fce:	e8df f003 	tbb	[pc, r3]
 8005fd2:	0f06      	.short	0x0f06
 8005fd4:	4d41372c 	.word	0x4d41372c
 8005fd8:	8d817065 	.word	0x8d817065
 8005fdc:	96          	.byte	0x96
 8005fdd:	00          	.byte	0x00
 8005fde:	7962      	ldrb	r2, [r4, #5]
 8005fe0:	f104 0110 	add.w	r1, r4, #16
 8005fe4:	4620      	mov	r0, r4
 8005fe6:	f000 f9e9 	bl	80063bc <USBH_CtlSendSetup>
 8005fea:	2302      	movs	r3, #2
 8005fec:	7623      	strb	r3, [r4, #24]
 8005fee:	e7e0      	b.n	8005fb2 <USBH_CtlReq+0xe>
 8005ff0:	7961      	ldrb	r1, [r4, #5]
 8005ff2:	4620      	mov	r0, r4
 8005ff4:	f002 fd94 	bl	8008b20 <USBH_LL_GetURBState>
 8005ff8:	2801      	cmp	r0, #1
 8005ffa:	d110      	bne.n	800601e <USBH_CtlReq+0x7a>
 8005ffc:	8ae2      	ldrh	r2, [r4, #22]
 8005ffe:	f994 3010 	ldrsb.w	r3, [r4, #16]
 8006002:	b132      	cbz	r2, 8006012 <USBH_CtlReq+0x6e>
 8006004:	2b00      	cmp	r3, #0
 8006006:	da02      	bge.n	800600e <USBH_CtlReq+0x6a>
 8006008:	2303      	movs	r3, #3
 800600a:	7623      	strb	r3, [r4, #24]
 800600c:	e7d8      	b.n	8005fc0 <USBH_CtlReq+0x1c>
 800600e:	2305      	movs	r3, #5
 8006010:	e7ec      	b.n	8005fec <USBH_CtlReq+0x48>
 8006012:	2b00      	cmp	r3, #0
 8006014:	da01      	bge.n	800601a <USBH_CtlReq+0x76>
 8006016:	2309      	movs	r3, #9
 8006018:	e7e8      	b.n	8005fec <USBH_CtlReq+0x48>
 800601a:	2307      	movs	r3, #7
 800601c:	e7e6      	b.n	8005fec <USBH_CtlReq+0x48>
 800601e:	2804      	cmp	r0, #4
 8006020:	d001      	beq.n	8006026 <USBH_CtlReq+0x82>
 8006022:	2802      	cmp	r0, #2
 8006024:	d1c5      	bne.n	8005fb2 <USBH_CtlReq+0xe>
 8006026:	230b      	movs	r3, #11
 8006028:	e7e0      	b.n	8005fec <USBH_CtlReq+0x48>
 800602a:	f8d4 33c0 	ldr.w	r3, [r4, #960]	; 0x3c0
 800602e:	81e3      	strh	r3, [r4, #14]
 8006030:	89a2      	ldrh	r2, [r4, #12]
 8006032:	7923      	ldrb	r3, [r4, #4]
 8006034:	68a1      	ldr	r1, [r4, #8]
 8006036:	4620      	mov	r0, r4
 8006038:	f000 f9e8 	bl	800640c <USBH_CtlReceiveData>
 800603c:	2304      	movs	r3, #4
 800603e:	e7d5      	b.n	8005fec <USBH_CtlReq+0x48>
 8006040:	7921      	ldrb	r1, [r4, #4]
 8006042:	4620      	mov	r0, r4
 8006044:	f002 fd6c 	bl	8008b20 <USBH_LL_GetURBState>
 8006048:	2801      	cmp	r0, #1
 800604a:	d0e4      	beq.n	8006016 <USBH_CtlReq+0x72>
 800604c:	2805      	cmp	r0, #5
 800604e:	d015      	beq.n	800607c <USBH_CtlReq+0xd8>
 8006050:	2804      	cmp	r0, #4
 8006052:	e7e7      	b.n	8006024 <USBH_CtlReq+0x80>
 8006054:	7963      	ldrb	r3, [r4, #5]
 8006056:	9100      	str	r1, [sp, #0]
 8006058:	89a2      	ldrh	r2, [r4, #12]
 800605a:	68a1      	ldr	r1, [r4, #8]
 800605c:	4620      	mov	r0, r4
 800605e:	f000 f9be 	bl	80063de <USBH_CtlSendData>
 8006062:	f8d4 33c0 	ldr.w	r3, [r4, #960]	; 0x3c0
 8006066:	81e3      	strh	r3, [r4, #14]
 8006068:	2306      	movs	r3, #6
 800606a:	e7bf      	b.n	8005fec <USBH_CtlReq+0x48>
 800606c:	7961      	ldrb	r1, [r4, #5]
 800606e:	4620      	mov	r0, r4
 8006070:	f002 fd56 	bl	8008b20 <USBH_LL_GetURBState>
 8006074:	2801      	cmp	r0, #1
 8006076:	d0d0      	beq.n	800601a <USBH_CtlReq+0x76>
 8006078:	2805      	cmp	r0, #5
 800607a:	d105      	bne.n	8006088 <USBH_CtlReq+0xe4>
 800607c:	2301      	movs	r3, #1
 800607e:	70a3      	strb	r3, [r4, #2]
 8006080:	2300      	movs	r3, #0
 8006082:	7623      	strb	r3, [r4, #24]
 8006084:	2003      	movs	r0, #3
 8006086:	e79b      	b.n	8005fc0 <USBH_CtlReq+0x1c>
 8006088:	2802      	cmp	r0, #2
 800608a:	d0c0      	beq.n	800600e <USBH_CtlReq+0x6a>
 800608c:	2804      	cmp	r0, #4
 800608e:	d190      	bne.n	8005fb2 <USBH_CtlReq+0xe>
 8006090:	230b      	movs	r3, #11
 8006092:	7623      	strb	r3, [r4, #24]
 8006094:	2301      	movs	r3, #1
 8006096:	70a3      	strb	r3, [r4, #2]
 8006098:	2002      	movs	r0, #2
 800609a:	e791      	b.n	8005fc0 <USBH_CtlReq+0x1c>
 800609c:	2200      	movs	r2, #0
 800609e:	7923      	ldrb	r3, [r4, #4]
 80060a0:	4611      	mov	r1, r2
 80060a2:	4620      	mov	r0, r4
 80060a4:	f000 f9b2 	bl	800640c <USBH_CtlReceiveData>
 80060a8:	f8d4 33c0 	ldr.w	r3, [r4, #960]	; 0x3c0
 80060ac:	81e3      	strh	r3, [r4, #14]
 80060ae:	2308      	movs	r3, #8
 80060b0:	e79c      	b.n	8005fec <USBH_CtlReq+0x48>
 80060b2:	7921      	ldrb	r1, [r4, #4]
 80060b4:	4620      	mov	r0, r4
 80060b6:	f002 fd33 	bl	8008b20 <USBH_LL_GetURBState>
 80060ba:	2801      	cmp	r0, #1
 80060bc:	d104      	bne.n	80060c8 <USBH_CtlReq+0x124>
 80060be:	2301      	movs	r3, #1
 80060c0:	2000      	movs	r0, #0
 80060c2:	70a3      	strb	r3, [r4, #2]
 80060c4:	7620      	strb	r0, [r4, #24]
 80060c6:	e77b      	b.n	8005fc0 <USBH_CtlReq+0x1c>
 80060c8:	2804      	cmp	r0, #4
 80060ca:	d0ac      	beq.n	8006026 <USBH_CtlReq+0x82>
 80060cc:	2805      	cmp	r0, #5
 80060ce:	f47f af70 	bne.w	8005fb2 <USBH_CtlReq+0xe>
 80060d2:	e7d3      	b.n	800607c <USBH_CtlReq+0xd8>
 80060d4:	2200      	movs	r2, #0
 80060d6:	7963      	ldrb	r3, [r4, #5]
 80060d8:	9100      	str	r1, [sp, #0]
 80060da:	4620      	mov	r0, r4
 80060dc:	4611      	mov	r1, r2
 80060de:	f000 f97e 	bl	80063de <USBH_CtlSendData>
 80060e2:	f8d4 33c0 	ldr.w	r3, [r4, #960]	; 0x3c0
 80060e6:	81e3      	strh	r3, [r4, #14]
 80060e8:	230a      	movs	r3, #10
 80060ea:	e77f      	b.n	8005fec <USBH_CtlReq+0x48>
 80060ec:	7961      	ldrb	r1, [r4, #5]
 80060ee:	4620      	mov	r0, r4
 80060f0:	f002 fd16 	bl	8008b20 <USBH_LL_GetURBState>
 80060f4:	2801      	cmp	r0, #1
 80060f6:	d0e2      	beq.n	80060be <USBH_CtlReq+0x11a>
 80060f8:	2802      	cmp	r0, #2
 80060fa:	d1a9      	bne.n	8006050 <USBH_CtlReq+0xac>
 80060fc:	e78b      	b.n	8006016 <USBH_CtlReq+0x72>
 80060fe:	7e63      	ldrb	r3, [r4, #25]
 8006100:	3301      	adds	r3, #1
 8006102:	b2db      	uxtb	r3, r3
 8006104:	2b02      	cmp	r3, #2
 8006106:	7663      	strb	r3, [r4, #25]
 8006108:	d803      	bhi.n	8006112 <USBH_CtlReq+0x16e>
 800610a:	2001      	movs	r0, #1
 800610c:	7620      	strb	r0, [r4, #24]
 800610e:	70a0      	strb	r0, [r4, #2]
 8006110:	e756      	b.n	8005fc0 <USBH_CtlReq+0x1c>
 8006112:	f8d4 33cc 	ldr.w	r3, [r4, #972]	; 0x3cc
 8006116:	2106      	movs	r1, #6
 8006118:	4620      	mov	r0, r4
 800611a:	4798      	blx	r3
 800611c:	2300      	movs	r3, #0
 800611e:	7663      	strb	r3, [r4, #25]
 8006120:	7023      	strb	r3, [r4, #0]
 8006122:	e7b7      	b.n	8006094 <USBH_CtlReq+0xf0>

08006124 <USBH_GetDescriptor>:
 8006124:	b430      	push	{r4, r5}
 8006126:	7884      	ldrb	r4, [r0, #2]
 8006128:	f8bd 5008 	ldrh.w	r5, [sp, #8]
 800612c:	2c01      	cmp	r4, #1
 800612e:	d110      	bne.n	8006152 <USBH_GetDescriptor+0x2e>
 8006130:	f061 047f 	orn	r4, r1, #127	; 0x7f
 8006134:	7404      	strb	r4, [r0, #16]
 8006136:	f402 447f 	and.w	r4, r2, #65280	; 0xff00
 800613a:	f5b4 7f40 	cmp.w	r4, #768	; 0x300
 800613e:	8242      	strh	r2, [r0, #18]
 8006140:	f04f 0106 	mov.w	r1, #6
 8006144:	bf0c      	ite	eq
 8006146:	f240 4209 	movweq	r2, #1033	; 0x409
 800614a:	2200      	movne	r2, #0
 800614c:	7441      	strb	r1, [r0, #17]
 800614e:	8282      	strh	r2, [r0, #20]
 8006150:	82c5      	strh	r5, [r0, #22]
 8006152:	462a      	mov	r2, r5
 8006154:	4619      	mov	r1, r3
 8006156:	bc30      	pop	{r4, r5}
 8006158:	f7ff bf24 	b.w	8005fa4 <USBH_CtlReq>

0800615c <USBH_Get_DevDesc>:
 800615c:	b537      	push	{r0, r1, r2, r4, r5, lr}
 800615e:	f500 738e 	add.w	r3, r0, #284	; 0x11c
 8006162:	460d      	mov	r5, r1
 8006164:	9100      	str	r1, [sp, #0]
 8006166:	f44f 7280 	mov.w	r2, #256	; 0x100
 800616a:	2100      	movs	r1, #0
 800616c:	4604      	mov	r4, r0
 800616e:	f7ff ffd9 	bl	8006124 <USBH_GetDescriptor>
 8006172:	bbc8      	cbnz	r0, 80061e8 <USBH_Get_DevDesc+0x8c>
 8006174:	f894 311c 	ldrb.w	r3, [r4, #284]	; 0x11c
 8006178:	f884 3324 	strb.w	r3, [r4, #804]	; 0x324
 800617c:	f894 311d 	ldrb.w	r3, [r4, #285]	; 0x11d
 8006180:	f884 3325 	strb.w	r3, [r4, #805]	; 0x325
 8006184:	f8b4 311e 	ldrh.w	r3, [r4, #286]	; 0x11e
 8006188:	f8a4 3326 	strh.w	r3, [r4, #806]	; 0x326
 800618c:	f894 3120 	ldrb.w	r3, [r4, #288]	; 0x120
 8006190:	f884 3328 	strb.w	r3, [r4, #808]	; 0x328
 8006194:	f894 3121 	ldrb.w	r3, [r4, #289]	; 0x121
 8006198:	f884 3329 	strb.w	r3, [r4, #809]	; 0x329
 800619c:	f894 3122 	ldrb.w	r3, [r4, #290]	; 0x122
 80061a0:	f884 332a 	strb.w	r3, [r4, #810]	; 0x32a
 80061a4:	2d08      	cmp	r5, #8
 80061a6:	f894 3123 	ldrb.w	r3, [r4, #291]	; 0x123
 80061aa:	f884 332b 	strb.w	r3, [r4, #811]	; 0x32b
 80061ae:	d91b      	bls.n	80061e8 <USBH_Get_DevDesc+0x8c>
 80061b0:	f8b4 3124 	ldrh.w	r3, [r4, #292]	; 0x124
 80061b4:	f8a4 332c 	strh.w	r3, [r4, #812]	; 0x32c
 80061b8:	f8b4 3126 	ldrh.w	r3, [r4, #294]	; 0x126
 80061bc:	f8a4 332e 	strh.w	r3, [r4, #814]	; 0x32e
 80061c0:	f8b4 3128 	ldrh.w	r3, [r4, #296]	; 0x128
 80061c4:	f8a4 3330 	strh.w	r3, [r4, #816]	; 0x330
 80061c8:	f894 312a 	ldrb.w	r3, [r4, #298]	; 0x12a
 80061cc:	f884 3332 	strb.w	r3, [r4, #818]	; 0x332
 80061d0:	f894 312b 	ldrb.w	r3, [r4, #299]	; 0x12b
 80061d4:	f884 3333 	strb.w	r3, [r4, #819]	; 0x333
 80061d8:	f894 312c 	ldrb.w	r3, [r4, #300]	; 0x12c
 80061dc:	f884 3334 	strb.w	r3, [r4, #820]	; 0x334
 80061e0:	f894 312d 	ldrb.w	r3, [r4, #301]	; 0x12d
 80061e4:	f884 3335 	strb.w	r3, [r4, #821]	; 0x335
 80061e8:	b003      	add	sp, #12
 80061ea:	bd30      	pop	{r4, r5, pc}

080061ec <USBH_Get_CfgDesc>:
 80061ec:	e92d 43f7 	stmdb	sp!, {r0, r1, r2, r4, r5, r6, r7, r8, r9, lr}
 80061f0:	f100 041c 	add.w	r4, r0, #28
 80061f4:	460e      	mov	r6, r1
 80061f6:	9100      	str	r1, [sp, #0]
 80061f8:	4623      	mov	r3, r4
 80061fa:	f44f 7200 	mov.w	r2, #512	; 0x200
 80061fe:	2100      	movs	r1, #0
 8006200:	4605      	mov	r5, r0
 8006202:	f7ff ff8f 	bl	8006124 <USBH_GetDescriptor>
 8006206:	bb40      	cbnz	r0, 800625a <USBH_Get_CfgDesc+0x6e>
 8006208:	7f2b      	ldrb	r3, [r5, #28]
 800620a:	f885 3336 	strb.w	r3, [r5, #822]	; 0x336
 800620e:	7f6b      	ldrb	r3, [r5, #29]
 8006210:	f885 3337 	strb.w	r3, [r5, #823]	; 0x337
 8006214:	f895 3020 	ldrb.w	r3, [r5, #32]
 8006218:	f885 333a 	strb.w	r3, [r5, #826]	; 0x33a
 800621c:	f895 3021 	ldrb.w	r3, [r5, #33]	; 0x21
 8006220:	f885 333b 	strb.w	r3, [r5, #827]	; 0x33b
 8006224:	f895 3022 	ldrb.w	r3, [r5, #34]	; 0x22
 8006228:	f885 333c 	strb.w	r3, [r5, #828]	; 0x33c
 800622c:	f895 3023 	ldrb.w	r3, [r5, #35]	; 0x23
 8006230:	f8b5 c01e 	ldrh.w	ip, [r5, #30]
 8006234:	f885 333d 	strb.w	r3, [r5, #829]	; 0x33d
 8006238:	2e09      	cmp	r6, #9
 800623a:	f895 3024 	ldrb.w	r3, [r5, #36]	; 0x24
 800623e:	f8a5 c338 	strh.w	ip, [r5, #824]	; 0x338
 8006242:	f885 333e 	strb.w	r3, [r5, #830]	; 0x33e
 8006246:	d908      	bls.n	800625a <USBH_Get_CfgDesc+0x6e>
 8006248:	462b      	mov	r3, r5
 800624a:	4607      	mov	r7, r0
 800624c:	2209      	movs	r2, #9
 800624e:	f04f 0e1a 	mov.w	lr, #26
 8006252:	2f02      	cmp	r7, #2
 8006254:	d001      	beq.n	800625a <USBH_Get_CfgDesc+0x6e>
 8006256:	4594      	cmp	ip, r2
 8006258:	d802      	bhi.n	8006260 <USBH_Get_CfgDesc+0x74>
 800625a:	b003      	add	sp, #12
 800625c:	e8bd 83f0 	ldmia.w	sp!, {r4, r5, r6, r7, r8, r9, pc}
 8006260:	7821      	ldrb	r1, [r4, #0]
 8006262:	440c      	add	r4, r1
 8006264:	440a      	add	r2, r1
 8006266:	7861      	ldrb	r1, [r4, #1]
 8006268:	2904      	cmp	r1, #4
 800626a:	b292      	uxth	r2, r2
 800626c:	d1f1      	bne.n	8006252 <USBH_Get_CfgDesc+0x66>
 800626e:	7821      	ldrb	r1, [r4, #0]
 8006270:	f883 1340 	strb.w	r1, [r3, #832]	; 0x340
 8006274:	7861      	ldrb	r1, [r4, #1]
 8006276:	f883 1341 	strb.w	r1, [r3, #833]	; 0x341
 800627a:	78a1      	ldrb	r1, [r4, #2]
 800627c:	f883 1342 	strb.w	r1, [r3, #834]	; 0x342
 8006280:	78e1      	ldrb	r1, [r4, #3]
 8006282:	f883 1343 	strb.w	r1, [r3, #835]	; 0x343
 8006286:	7921      	ldrb	r1, [r4, #4]
 8006288:	f883 1344 	strb.w	r1, [r3, #836]	; 0x344
 800628c:	7961      	ldrb	r1, [r4, #5]
 800628e:	f883 1345 	strb.w	r1, [r3, #837]	; 0x345
 8006292:	79a1      	ldrb	r1, [r4, #6]
 8006294:	f883 1346 	strb.w	r1, [r3, #838]	; 0x346
 8006298:	79e1      	ldrb	r1, [r4, #7]
 800629a:	f883 1347 	strb.w	r1, [r3, #839]	; 0x347
 800629e:	7a21      	ldrb	r1, [r4, #8]
 80062a0:	f883 1348 	strb.w	r1, [r3, #840]	; 0x348
 80062a4:	fb0e f807 	mul.w	r8, lr, r7
 80062a8:	2100      	movs	r1, #0
 80062aa:	f893 6344 	ldrb.w	r6, [r3, #836]	; 0x344
 80062ae:	428e      	cmp	r6, r1
 80062b0:	d901      	bls.n	80062b6 <USBH_Get_CfgDesc+0xca>
 80062b2:	4594      	cmp	ip, r2
 80062b4:	d802      	bhi.n	80062bc <USBH_Get_CfgDesc+0xd0>
 80062b6:	3701      	adds	r7, #1
 80062b8:	331a      	adds	r3, #26
 80062ba:	e7ca      	b.n	8006252 <USBH_Get_CfgDesc+0x66>
 80062bc:	7826      	ldrb	r6, [r4, #0]
 80062be:	4434      	add	r4, r6
 80062c0:	4432      	add	r2, r6
 80062c2:	7866      	ldrb	r6, [r4, #1]
 80062c4:	2e05      	cmp	r6, #5
 80062c6:	b292      	uxth	r2, r2
 80062c8:	d1ef      	bne.n	80062aa <USBH_Get_CfgDesc+0xbe>
 80062ca:	1c4e      	adds	r6, r1, #1
 80062cc:	eb08 01c6 	add.w	r1, r8, r6, lsl #3
 80062d0:	4429      	add	r1, r5
 80062d2:	f894 9000 	ldrb.w	r9, [r4]
 80062d6:	f881 9342 	strb.w	r9, [r1, #834]	; 0x342
 80062da:	f894 9001 	ldrb.w	r9, [r4, #1]
 80062de:	f881 9343 	strb.w	r9, [r1, #835]	; 0x343
 80062e2:	f894 9002 	ldrb.w	r9, [r4, #2]
 80062e6:	f881 9344 	strb.w	r9, [r1, #836]	; 0x344
 80062ea:	f894 9003 	ldrb.w	r9, [r4, #3]
 80062ee:	f881 9345 	strb.w	r9, [r1, #837]	; 0x345
 80062f2:	f8b4 9004 	ldrh.w	r9, [r4, #4]
 80062f6:	f8a1 9346 	strh.w	r9, [r1, #838]	; 0x346
 80062fa:	f894 9006 	ldrb.w	r9, [r4, #6]
 80062fe:	f881 9348 	strb.w	r9, [r1, #840]	; 0x348
 8006302:	b2f1      	uxtb	r1, r6
 8006304:	e7d1      	b.n	80062aa <USBH_Get_CfgDesc+0xbe>

08006306 <USBH_Get_StringDesc>:
 8006306:	b5f7      	push	{r0, r1, r2, r4, r5, r6, r7, lr}
 8006308:	f500 758e 	add.w	r5, r0, #284	; 0x11c
 800630c:	4614      	mov	r4, r2
 800630e:	461f      	mov	r7, r3
 8006310:	9300      	str	r3, [sp, #0]
 8006312:	f441 7240 	orr.w	r2, r1, #768	; 0x300
 8006316:	462b      	mov	r3, r5
 8006318:	2100      	movs	r1, #0
 800631a:	4606      	mov	r6, r0
 800631c:	f7ff ff02 	bl	8006124 <USBH_GetDescriptor>
 8006320:	b978      	cbnz	r0, 8006342 <USBH_Get_StringDesc+0x3c>
 8006322:	f896 311d 	ldrb.w	r3, [r6, #285]	; 0x11d
 8006326:	2b03      	cmp	r3, #3
 8006328:	d10b      	bne.n	8006342 <USBH_Get_StringDesc+0x3c>
 800632a:	f896 311c 	ldrb.w	r3, [r6, #284]	; 0x11c
 800632e:	3b02      	subs	r3, #2
 8006330:	42bb      	cmp	r3, r7
 8006332:	bf28      	it	cs
 8006334:	463b      	movcs	r3, r7
 8006336:	b29b      	uxth	r3, r3
 8006338:	4602      	mov	r2, r0
 800633a:	4293      	cmp	r3, r2
 800633c:	d803      	bhi.n	8006346 <USBH_Get_StringDesc+0x40>
 800633e:	2300      	movs	r3, #0
 8006340:	7023      	strb	r3, [r4, #0]
 8006342:	b003      	add	sp, #12
 8006344:	bdf0      	pop	{r4, r5, r6, r7, pc}
 8006346:	18a9      	adds	r1, r5, r2
 8006348:	3202      	adds	r2, #2
 800634a:	7889      	ldrb	r1, [r1, #2]
 800634c:	f804 1b01 	strb.w	r1, [r4], #1
 8006350:	b292      	uxth	r2, r2
 8006352:	e7f2      	b.n	800633a <USBH_Get_StringDesc+0x34>

08006354 <USBH_SetAddress>:
 8006354:	7883      	ldrb	r3, [r0, #2]
 8006356:	2b01      	cmp	r3, #1
 8006358:	d105      	bne.n	8006366 <USBH_SetAddress+0x12>
 800635a:	f44f 63a0 	mov.w	r3, #1280	; 0x500
 800635e:	8203      	strh	r3, [r0, #16]
 8006360:	2300      	movs	r3, #0
 8006362:	8241      	strh	r1, [r0, #18]
 8006364:	6143      	str	r3, [r0, #20]
 8006366:	2200      	movs	r2, #0
 8006368:	4611      	mov	r1, r2
 800636a:	f7ff be1b 	b.w	8005fa4 <USBH_CtlReq>

0800636e <USBH_SetCfg>:
 800636e:	7883      	ldrb	r3, [r0, #2]
 8006370:	2b01      	cmp	r3, #1
 8006372:	d105      	bne.n	8006380 <USBH_SetCfg+0x12>
 8006374:	f44f 6310 	mov.w	r3, #2304	; 0x900
 8006378:	8203      	strh	r3, [r0, #16]
 800637a:	2300      	movs	r3, #0
 800637c:	8241      	strh	r1, [r0, #18]
 800637e:	6143      	str	r3, [r0, #20]
 8006380:	2200      	movs	r2, #0
 8006382:	4611      	mov	r1, r2
 8006384:	f7ff be0e 	b.w	8005fa4 <USBH_CtlReq>

08006388 <USBH_SetFeature>:
 8006388:	7883      	ldrb	r3, [r0, #2]
 800638a:	2b01      	cmp	r3, #1
 800638c:	d105      	bne.n	800639a <USBH_SetFeature+0x12>
 800638e:	f44f 7340 	mov.w	r3, #768	; 0x300
 8006392:	8203      	strh	r3, [r0, #16]
 8006394:	2300      	movs	r3, #0
 8006396:	8241      	strh	r1, [r0, #18]
 8006398:	6143      	str	r3, [r0, #20]
 800639a:	2200      	movs	r2, #0
 800639c:	4611      	mov	r1, r2
 800639e:	f7ff be01 	b.w	8005fa4 <USBH_CtlReq>

080063a2 <USBH_ClrFeature>:
 80063a2:	7883      	ldrb	r3, [r0, #2]
 80063a4:	2b01      	cmp	r3, #1
 80063a6:	d105      	bne.n	80063b4 <USBH_ClrFeature+0x12>
 80063a8:	f44f 7381 	mov.w	r3, #258	; 0x102
 80063ac:	6103      	str	r3, [r0, #16]
 80063ae:	2300      	movs	r3, #0
 80063b0:	8281      	strh	r1, [r0, #20]
 80063b2:	82c3      	strh	r3, [r0, #22]
 80063b4:	2200      	movs	r2, #0
 80063b6:	4611      	mov	r1, r2
 80063b8:	f7ff bdf4 	b.w	8005fa4 <USBH_CtlReq>

080063bc <USBH_CtlSendSetup>:
 80063bc:	b530      	push	{r4, r5, lr}
 80063be:	2308      	movs	r3, #8
 80063c0:	b085      	sub	sp, #20
 80063c2:	2400      	movs	r4, #0
 80063c4:	4615      	mov	r5, r2
 80063c6:	e9cd 3402 	strd	r3, r4, [sp, #8]
 80063ca:	e9cd 4100 	strd	r4, r1, [sp]
 80063ce:	4623      	mov	r3, r4
 80063d0:	4622      	mov	r2, r4
 80063d2:	4629      	mov	r1, r5
 80063d4:	f002 fb8a 	bl	8008aec <USBH_LL_SubmitURB>
 80063d8:	4620      	mov	r0, r4
 80063da:	b005      	add	sp, #20
 80063dc:	bd30      	pop	{r4, r5, pc}

080063de <USBH_CtlSendData>:
 80063de:	b530      	push	{r4, r5, lr}
 80063e0:	b085      	sub	sp, #20
 80063e2:	f890 531d 	ldrb.w	r5, [r0, #797]	; 0x31d
 80063e6:	9101      	str	r1, [sp, #4]
 80063e8:	461c      	mov	r4, r3
 80063ea:	2d00      	cmp	r5, #0
 80063ec:	f89d 3020 	ldrb.w	r3, [sp, #32]
 80063f0:	bf18      	it	ne
 80063f2:	2300      	movne	r3, #0
 80063f4:	e9cd 2302 	strd	r2, r3, [sp, #8]
 80063f8:	2301      	movs	r3, #1
 80063fa:	9300      	str	r3, [sp, #0]
 80063fc:	2300      	movs	r3, #0
 80063fe:	461a      	mov	r2, r3
 8006400:	4621      	mov	r1, r4
 8006402:	f002 fb73 	bl	8008aec <USBH_LL_SubmitURB>
 8006406:	2000      	movs	r0, #0
 8006408:	b005      	add	sp, #20
 800640a:	bd30      	pop	{r4, r5, pc}

0800640c <USBH_CtlReceiveData>:
 800640c:	b530      	push	{r4, r5, lr}
 800640e:	2400      	movs	r4, #0
 8006410:	b085      	sub	sp, #20
 8006412:	461d      	mov	r5, r3
 8006414:	e9cd 2402 	strd	r2, r4, [sp, #8]
 8006418:	2201      	movs	r2, #1
 800641a:	9101      	str	r1, [sp, #4]
 800641c:	9200      	str	r2, [sp, #0]
 800641e:	4623      	mov	r3, r4
 8006420:	4629      	mov	r1, r5
 8006422:	f002 fb63 	bl	8008aec <USBH_LL_SubmitURB>
 8006426:	4620      	mov	r0, r4
 8006428:	b005      	add	sp, #20
 800642a:	bd30      	pop	{r4, r5, pc}

0800642c <USBH_BulkSendData>:
 800642c:	b530      	push	{r4, r5, lr}
 800642e:	b085      	sub	sp, #20
 8006430:	f890 531d 	ldrb.w	r5, [r0, #797]	; 0x31d
 8006434:	9101      	str	r1, [sp, #4]
 8006436:	461c      	mov	r4, r3
 8006438:	2d00      	cmp	r5, #0
 800643a:	f89d 3020 	ldrb.w	r3, [sp, #32]
 800643e:	bf18      	it	ne
 8006440:	2300      	movne	r3, #0
 8006442:	e9cd 2302 	strd	r2, r3, [sp, #8]
 8006446:	2301      	movs	r3, #1
 8006448:	9300      	str	r3, [sp, #0]
 800644a:	2200      	movs	r2, #0
 800644c:	2302      	movs	r3, #2
 800644e:	4621      	mov	r1, r4
 8006450:	f002 fb4c 	bl	8008aec <USBH_LL_SubmitURB>
 8006454:	2000      	movs	r0, #0
 8006456:	b005      	add	sp, #20
 8006458:	bd30      	pop	{r4, r5, pc}

0800645a <USBH_BulkReceiveData>:
 800645a:	b530      	push	{r4, r5, lr}
 800645c:	2400      	movs	r4, #0
 800645e:	b085      	sub	sp, #20
 8006460:	461d      	mov	r5, r3
 8006462:	e9cd 2402 	strd	r2, r4, [sp, #8]
 8006466:	2201      	movs	r2, #1
 8006468:	9101      	str	r1, [sp, #4]
 800646a:	9200      	str	r2, [sp, #0]
 800646c:	2302      	movs	r3, #2
 800646e:	4629      	mov	r1, r5
 8006470:	f002 fb3c 	bl	8008aec <USBH_LL_SubmitURB>
 8006474:	4620      	mov	r0, r4
 8006476:	b005      	add	sp, #20
 8006478:	bd30      	pop	{r4, r5, pc}

0800647a <USBH_OpenPipe>:
 800647a:	b51f      	push	{r0, r1, r2, r3, r4, lr}
 800647c:	f8bd 4020 	ldrh.w	r4, [sp, #32]
 8006480:	9402      	str	r4, [sp, #8]
 8006482:	f89d 401c 	ldrb.w	r4, [sp, #28]
 8006486:	9401      	str	r4, [sp, #4]
 8006488:	f89d 4018 	ldrb.w	r4, [sp, #24]
 800648c:	9400      	str	r4, [sp, #0]
 800648e:	f002 fb07 	bl	8008aa0 <USBH_LL_OpenPipe>
 8006492:	2000      	movs	r0, #0
 8006494:	b004      	add	sp, #16
 8006496:	bd10      	pop	{r4, pc}

08006498 <USBH_ClosePipe>:
 8006498:	b508      	push	{r3, lr}
 800649a:	f002 fb19 	bl	8008ad0 <USBH_LL_ClosePipe>
 800649e:	2000      	movs	r0, #0
 80064a0:	bd08      	pop	{r3, pc}

080064a2 <USBH_AllocPipe>:
 80064a2:	b530      	push	{r4, r5, lr}
 80064a4:	2300      	movs	r3, #0
 80064a6:	f500 7460 	add.w	r4, r0, #896	; 0x380
 80064aa:	f854 5b04 	ldr.w	r5, [r4], #4
 80064ae:	042d      	lsls	r5, r5, #16
 80064b0:	b2da      	uxtb	r2, r3
 80064b2:	d407      	bmi.n	80064c4 <USBH_AllocPipe+0x22>
 80064b4:	33e0      	adds	r3, #224	; 0xe0
 80064b6:	f441 4100 	orr.w	r1, r1, #32768	; 0x8000
 80064ba:	f840 1023 	str.w	r1, [r0, r3, lsl #2]
 80064be:	b292      	uxth	r2, r2
 80064c0:	b2d0      	uxtb	r0, r2
 80064c2:	bd30      	pop	{r4, r5, pc}
 80064c4:	3301      	adds	r3, #1
 80064c6:	2b0b      	cmp	r3, #11
 80064c8:	d1ef      	bne.n	80064aa <USBH_AllocPipe+0x8>
 80064ca:	f64f 72ff 	movw	r2, #65535	; 0xffff
 80064ce:	e7f7      	b.n	80064c0 <USBH_AllocPipe+0x1e>

080064d0 <USBH_FreePipe>:
 80064d0:	290a      	cmp	r1, #10
 80064d2:	bf9f      	itttt	ls
 80064d4:	eb00 0081 	addls.w	r0, r0, r1, lsl #2
 80064d8:	f8d0 3380 	ldrls.w	r3, [r0, #896]	; 0x380
 80064dc:	f3c3 030e 	ubfxls	r3, r3, #0, #15
 80064e0:	f8c0 3380 	strls.w	r3, [r0, #896]	; 0x380
 80064e4:	2000      	movs	r0, #0
 80064e6:	4770      	bx	lr

080064e8 <disk_status>:
 80064e8:	4b03      	ldr	r3, [pc, #12]	; (80064f8 <disk_status+0x10>)
 80064ea:	181a      	adds	r2, r3, r0
 80064ec:	eb03 0380 	add.w	r3, r3, r0, lsl #2
 80064f0:	7a10      	ldrb	r0, [r2, #8]
 80064f2:	685b      	ldr	r3, [r3, #4]
 80064f4:	685b      	ldr	r3, [r3, #4]
 80064f6:	4718      	bx	r3
 80064f8:	20001df0 	.word	0x20001df0

080064fc <disk_initialize>:
 80064fc:	4b06      	ldr	r3, [pc, #24]	; (8006518 <disk_initialize+0x1c>)
 80064fe:	5c1a      	ldrb	r2, [r3, r0]
 8006500:	b942      	cbnz	r2, 8006514 <disk_initialize+0x18>
 8006502:	2201      	movs	r2, #1
 8006504:	541a      	strb	r2, [r3, r0]
 8006506:	181a      	adds	r2, r3, r0
 8006508:	eb03 0380 	add.w	r3, r3, r0, lsl #2
 800650c:	7a10      	ldrb	r0, [r2, #8]
 800650e:	685b      	ldr	r3, [r3, #4]
 8006510:	681b      	ldr	r3, [r3, #0]
 8006512:	4718      	bx	r3
 8006514:	2000      	movs	r0, #0
 8006516:	4770      	bx	lr
 8006518:	20001df0 	.word	0x20001df0

0800651c <disk_read>:
 800651c:	b430      	push	{r4, r5}
 800651e:	4c05      	ldr	r4, [pc, #20]	; (8006534 <disk_read+0x18>)
 8006520:	1825      	adds	r5, r4, r0
 8006522:	eb04 0480 	add.w	r4, r4, r0, lsl #2
 8006526:	6860      	ldr	r0, [r4, #4]
 8006528:	6884      	ldr	r4, [r0, #8]
 800652a:	7a28      	ldrb	r0, [r5, #8]
 800652c:	46a4      	mov	ip, r4
 800652e:	bc30      	pop	{r4, r5}
 8006530:	4760      	bx	ip
 8006532:	bf00      	nop
 8006534:	20001df0 	.word	0x20001df0

08006538 <disk_write>:
 8006538:	b430      	push	{r4, r5}
 800653a:	4c05      	ldr	r4, [pc, #20]	; (8006550 <disk_write+0x18>)
 800653c:	1825      	adds	r5, r4, r0
 800653e:	eb04 0480 	add.w	r4, r4, r0, lsl #2
 8006542:	6860      	ldr	r0, [r4, #4]
 8006544:	68c4      	ldr	r4, [r0, #12]
 8006546:	7a28      	ldrb	r0, [r5, #8]
 8006548:	46a4      	mov	ip, r4
 800654a:	bc30      	pop	{r4, r5}
 800654c:	4760      	bx	ip
 800654e:	bf00      	nop
 8006550:	20001df0 	.word	0x20001df0

08006554 <disk_ioctl>:
 8006554:	4b05      	ldr	r3, [pc, #20]	; (800656c <disk_ioctl+0x18>)
 8006556:	b410      	push	{r4}
 8006558:	181c      	adds	r4, r3, r0
 800655a:	eb03 0380 	add.w	r3, r3, r0, lsl #2
 800655e:	7a20      	ldrb	r0, [r4, #8]
 8006560:	685b      	ldr	r3, [r3, #4]
 8006562:	f85d 4b04 	ldr.w	r4, [sp], #4
 8006566:	691b      	ldr	r3, [r3, #16]
 8006568:	4718      	bx	r3
 800656a:	bf00      	nop
 800656c:	20001df0 	.word	0x20001df0

08006570 <ld_dword>:
 8006570:	8842      	ldrh	r2, [r0, #2]
 8006572:	7843      	ldrb	r3, [r0, #1]
 8006574:	7800      	ldrb	r0, [r0, #0]
 8006576:	ea43 2302 	orr.w	r3, r3, r2, lsl #8
 800657a:	ea40 2003 	orr.w	r0, r0, r3, lsl #8
 800657e:	4770      	bx	lr

08006580 <st_dword>:
 8006580:	0a0b      	lsrs	r3, r1, #8
 8006582:	7001      	strb	r1, [r0, #0]
 8006584:	7043      	strb	r3, [r0, #1]
 8006586:	0c0b      	lsrs	r3, r1, #16
 8006588:	0e09      	lsrs	r1, r1, #24
 800658a:	7083      	strb	r3, [r0, #2]
 800658c:	70c1      	strb	r1, [r0, #3]
 800658e:	4770      	bx	lr

08006590 <mem_set>:
 8006590:	4402      	add	r2, r0
 8006592:	f800 1b01 	strb.w	r1, [r0], #1
 8006596:	4290      	cmp	r0, r2
 8006598:	d1fb      	bne.n	8006592 <mem_set+0x2>
 800659a:	4770      	bx	lr

0800659c <chk_lock>:
 800659c:	4a1b      	ldr	r2, [pc, #108]	; (800660c <chk_lock+0x70>)
 800659e:	6813      	ldr	r3, [r2, #0]
 80065a0:	b530      	push	{r4, r5, lr}
 80065a2:	b163      	cbz	r3, 80065be <chk_lock+0x22>
 80065a4:	6804      	ldr	r4, [r0, #0]
 80065a6:	429c      	cmp	r4, r3
 80065a8:	d107      	bne.n	80065ba <chk_lock+0x1e>
 80065aa:	6854      	ldr	r4, [r2, #4]
 80065ac:	6883      	ldr	r3, [r0, #8]
 80065ae:	429c      	cmp	r4, r3
 80065b0:	d103      	bne.n	80065ba <chk_lock+0x1e>
 80065b2:	6894      	ldr	r4, [r2, #8]
 80065b4:	6943      	ldr	r3, [r0, #20]
 80065b6:	429c      	cmp	r4, r3
 80065b8:	d020      	beq.n	80065fc <chk_lock+0x60>
 80065ba:	2400      	movs	r4, #0
 80065bc:	e000      	b.n	80065c0 <chk_lock+0x24>
 80065be:	2401      	movs	r4, #1
 80065c0:	6913      	ldr	r3, [r2, #16]
 80065c2:	b1cb      	cbz	r3, 80065f8 <chk_lock+0x5c>
 80065c4:	6805      	ldr	r5, [r0, #0]
 80065c6:	42ab      	cmp	r3, r5
 80065c8:	d107      	bne.n	80065da <chk_lock+0x3e>
 80065ca:	6955      	ldr	r5, [r2, #20]
 80065cc:	6883      	ldr	r3, [r0, #8]
 80065ce:	429d      	cmp	r5, r3
 80065d0:	d103      	bne.n	80065da <chk_lock+0x3e>
 80065d2:	6995      	ldr	r5, [r2, #24]
 80065d4:	6943      	ldr	r3, [r0, #20]
 80065d6:	429d      	cmp	r5, r3
 80065d8:	d015      	beq.n	8006606 <chk_lock+0x6a>
 80065da:	b96c      	cbnz	r4, 80065f8 <chk_lock+0x5c>
 80065dc:	2902      	cmp	r1, #2
 80065de:	bf0c      	ite	eq
 80065e0:	2000      	moveq	r0, #0
 80065e2:	2012      	movne	r0, #18
 80065e4:	bd30      	pop	{r4, r5, pc}
 80065e6:	eb02 1203 	add.w	r2, r2, r3, lsl #4
 80065ea:	8993      	ldrh	r3, [r2, #12]
 80065ec:	f5b3 7f80 	cmp.w	r3, #256	; 0x100
 80065f0:	bf14      	ite	ne
 80065f2:	2000      	movne	r0, #0
 80065f4:	2010      	moveq	r0, #16
 80065f6:	e7f5      	b.n	80065e4 <chk_lock+0x48>
 80065f8:	2000      	movs	r0, #0
 80065fa:	e7f3      	b.n	80065e4 <chk_lock+0x48>
 80065fc:	2300      	movs	r3, #0
 80065fe:	2900      	cmp	r1, #0
 8006600:	d0f1      	beq.n	80065e6 <chk_lock+0x4a>
 8006602:	2010      	movs	r0, #16
 8006604:	e7ee      	b.n	80065e4 <chk_lock+0x48>
 8006606:	2301      	movs	r3, #1
 8006608:	e7f9      	b.n	80065fe <chk_lock+0x62>
 800660a:	bf00      	nop
 800660c:	20001dcc 	.word	0x20001dcc

08006610 <inc_lock>:
 8006610:	4a1e      	ldr	r2, [pc, #120]	; (800668c <inc_lock+0x7c>)
 8006612:	b5f0      	push	{r4, r5, r6, r7, lr}
 8006614:	6813      	ldr	r3, [r2, #0]
 8006616:	6805      	ldr	r5, [r0, #0]
 8006618:	429d      	cmp	r5, r3
 800661a:	d107      	bne.n	800662c <inc_lock+0x1c>
 800661c:	6856      	ldr	r6, [r2, #4]
 800661e:	6884      	ldr	r4, [r0, #8]
 8006620:	42a6      	cmp	r6, r4
 8006622:	d103      	bne.n	800662c <inc_lock+0x1c>
 8006624:	6946      	ldr	r6, [r0, #20]
 8006626:	6894      	ldr	r4, [r2, #8]
 8006628:	42a6      	cmp	r6, r4
 800662a:	d021      	beq.n	8006670 <inc_lock+0x60>
 800662c:	6914      	ldr	r4, [r2, #16]
 800662e:	42ac      	cmp	r4, r5
 8006630:	d107      	bne.n	8006642 <inc_lock+0x32>
 8006632:	6957      	ldr	r7, [r2, #20]
 8006634:	6886      	ldr	r6, [r0, #8]
 8006636:	42b7      	cmp	r7, r6
 8006638:	d103      	bne.n	8006642 <inc_lock+0x32>
 800663a:	6997      	ldr	r7, [r2, #24]
 800663c:	6946      	ldr	r6, [r0, #20]
 800663e:	42b7      	cmp	r7, r6
 8006640:	d020      	beq.n	8006684 <inc_lock+0x74>
 8006642:	b10b      	cbz	r3, 8006648 <inc_lock+0x38>
 8006644:	bb04      	cbnz	r4, 8006688 <inc_lock+0x78>
 8006646:	2301      	movs	r3, #1
 8006648:	011e      	lsls	r6, r3, #4
 800664a:	1994      	adds	r4, r2, r6
 800664c:	5195      	str	r5, [r2, r6]
 800664e:	6885      	ldr	r5, [r0, #8]
 8006650:	6940      	ldr	r0, [r0, #20]
 8006652:	60a0      	str	r0, [r4, #8]
 8006654:	2000      	movs	r0, #0
 8006656:	6065      	str	r5, [r4, #4]
 8006658:	81a0      	strh	r0, [r4, #12]
 800665a:	b981      	cbnz	r1, 800667e <inc_lock+0x6e>
 800665c:	eb02 1103 	add.w	r1, r2, r3, lsl #4
 8006660:	8989      	ldrh	r1, [r1, #12]
 8006662:	3101      	adds	r1, #1
 8006664:	b289      	uxth	r1, r1
 8006666:	eb02 1203 	add.w	r2, r2, r3, lsl #4
 800666a:	1c58      	adds	r0, r3, #1
 800666c:	8191      	strh	r1, [r2, #12]
 800666e:	bdf0      	pop	{r4, r5, r6, r7, pc}
 8006670:	2300      	movs	r3, #0
 8006672:	2900      	cmp	r1, #0
 8006674:	d0f2      	beq.n	800665c <inc_lock+0x4c>
 8006676:	eb02 1103 	add.w	r1, r2, r3, lsl #4
 800667a:	8989      	ldrh	r1, [r1, #12]
 800667c:	b921      	cbnz	r1, 8006688 <inc_lock+0x78>
 800667e:	f44f 7180 	mov.w	r1, #256	; 0x100
 8006682:	e7f0      	b.n	8006666 <inc_lock+0x56>
 8006684:	2301      	movs	r3, #1
 8006686:	e7f4      	b.n	8006672 <inc_lock+0x62>
 8006688:	2000      	movs	r0, #0
 800668a:	e7f0      	b.n	800666e <inc_lock+0x5e>
 800668c:	20001dcc 	.word	0x20001dcc

08006690 <dec_lock>:
 8006690:	3801      	subs	r0, #1
 8006692:	2801      	cmp	r0, #1
 8006694:	d814      	bhi.n	80066c0 <dec_lock+0x30>
 8006696:	490b      	ldr	r1, [pc, #44]	; (80066c4 <dec_lock+0x34>)
 8006698:	0102      	lsls	r2, r0, #4
 800669a:	1888      	adds	r0, r1, r2
 800669c:	8983      	ldrh	r3, [r0, #12]
 800669e:	f5b3 7f80 	cmp.w	r3, #256	; 0x100
 80066a2:	d104      	bne.n	80066ae <dec_lock+0x1e>
 80066a4:	2300      	movs	r3, #0
 80066a6:	8183      	strh	r3, [r0, #12]
 80066a8:	2000      	movs	r0, #0
 80066aa:	5088      	str	r0, [r1, r2]
 80066ac:	4770      	bx	lr
 80066ae:	2b00      	cmp	r3, #0
 80066b0:	d0fa      	beq.n	80066a8 <dec_lock+0x18>
 80066b2:	3b01      	subs	r3, #1
 80066b4:	b29b      	uxth	r3, r3
 80066b6:	8183      	strh	r3, [r0, #12]
 80066b8:	2b00      	cmp	r3, #0
 80066ba:	d0f5      	beq.n	80066a8 <dec_lock+0x18>
 80066bc:	2000      	movs	r0, #0
 80066be:	4770      	bx	lr
 80066c0:	2002      	movs	r0, #2
 80066c2:	4770      	bx	lr
 80066c4:	20001dcc 	.word	0x20001dcc

080066c8 <clust2sect>:
 80066c8:	6943      	ldr	r3, [r0, #20]
 80066ca:	3902      	subs	r1, #2
 80066cc:	3b02      	subs	r3, #2
 80066ce:	428b      	cmp	r3, r1
 80066d0:	bf83      	ittte	hi
 80066d2:	8943      	ldrhhi	r3, [r0, #10]
 80066d4:	6a80      	ldrhi	r0, [r0, #40]	; 0x28
 80066d6:	fb01 0003 	mlahi	r0, r1, r3, r0
 80066da:	2000      	movls	r0, #0
 80066dc:	4770      	bx	lr

080066de <clmt_clust>:
 80066de:	6ac3      	ldr	r3, [r0, #44]	; 0x2c
 80066e0:	6802      	ldr	r2, [r0, #0]
 80066e2:	3304      	adds	r3, #4
 80066e4:	0a49      	lsrs	r1, r1, #9
 80066e6:	8952      	ldrh	r2, [r2, #10]
 80066e8:	fbb1 f1f2 	udiv	r1, r1, r2
 80066ec:	6818      	ldr	r0, [r3, #0]
 80066ee:	b130      	cbz	r0, 80066fe <clmt_clust+0x20>
 80066f0:	4281      	cmp	r1, r0
 80066f2:	d302      	bcc.n	80066fa <clmt_clust+0x1c>
 80066f4:	1a09      	subs	r1, r1, r0
 80066f6:	3308      	adds	r3, #8
 80066f8:	e7f8      	b.n	80066ec <clmt_clust+0xe>
 80066fa:	6858      	ldr	r0, [r3, #4]
 80066fc:	4408      	add	r0, r1
 80066fe:	4770      	bx	lr

08006700 <get_ldnumber>:
 8006700:	6802      	ldr	r2, [r0, #0]
 8006702:	b510      	push	{r4, lr}
 8006704:	b152      	cbz	r2, 800671c <get_ldnumber+0x1c>
 8006706:	4611      	mov	r1, r2
 8006708:	460b      	mov	r3, r1
 800670a:	f811 4b01 	ldrb.w	r4, [r1], #1
 800670e:	2c20      	cmp	r4, #32
 8006710:	d90c      	bls.n	800672c <get_ldnumber+0x2c>
 8006712:	2c3a      	cmp	r4, #58	; 0x3a
 8006714:	d1f8      	bne.n	8006708 <get_ldnumber+0x8>
 8006716:	1c51      	adds	r1, r2, #1
 8006718:	428b      	cmp	r3, r1
 800671a:	d002      	beq.n	8006722 <get_ldnumber+0x22>
 800671c:	f04f 30ff 	mov.w	r0, #4294967295
 8006720:	e005      	b.n	800672e <get_ldnumber+0x2e>
 8006722:	7812      	ldrb	r2, [r2, #0]
 8006724:	2a30      	cmp	r2, #48	; 0x30
 8006726:	d1f9      	bne.n	800671c <get_ldnumber+0x1c>
 8006728:	3301      	adds	r3, #1
 800672a:	6003      	str	r3, [r0, #0]
 800672c:	2000      	movs	r0, #0
 800672e:	bd10      	pop	{r4, pc}

08006730 <validate>:
 8006730:	b538      	push	{r3, r4, r5, lr}
 8006732:	460d      	mov	r5, r1
 8006734:	4604      	mov	r4, r0
 8006736:	b918      	cbnz	r0, 8006740 <validate+0x10>
 8006738:	2009      	movs	r0, #9
 800673a:	2300      	movs	r3, #0
 800673c:	602b      	str	r3, [r5, #0]
 800673e:	bd38      	pop	{r3, r4, r5, pc}
 8006740:	6803      	ldr	r3, [r0, #0]
 8006742:	2b00      	cmp	r3, #0
 8006744:	d0f8      	beq.n	8006738 <validate+0x8>
 8006746:	781a      	ldrb	r2, [r3, #0]
 8006748:	2a00      	cmp	r2, #0
 800674a:	d0f5      	beq.n	8006738 <validate+0x8>
 800674c:	8881      	ldrh	r1, [r0, #4]
 800674e:	88da      	ldrh	r2, [r3, #6]
 8006750:	4291      	cmp	r1, r2
 8006752:	d1f1      	bne.n	8006738 <validate+0x8>
 8006754:	7858      	ldrb	r0, [r3, #1]
 8006756:	f7ff fec7 	bl	80064e8 <disk_status>
 800675a:	f010 0001 	ands.w	r0, r0, #1
 800675e:	d1eb      	bne.n	8006738 <validate+0x8>
 8006760:	6823      	ldr	r3, [r4, #0]
 8006762:	e7eb      	b.n	800673c <validate+0xc>

08006764 <mem_cpy.part.0>:
 8006764:	3801      	subs	r0, #1
 8006766:	440a      	add	r2, r1
 8006768:	f811 3b01 	ldrb.w	r3, [r1], #1
 800676c:	f800 3f01 	strb.w	r3, [r0, #1]!
 8006770:	4291      	cmp	r1, r2
 8006772:	d1f9      	bne.n	8006768 <mem_cpy.part.0+0x4>
 8006774:	4770      	bx	lr

08006776 <ld_clust.isra.1>:
 8006776:	7eca      	ldrb	r2, [r1, #27]
 8006778:	7e8b      	ldrb	r3, [r1, #26]
 800677a:	2803      	cmp	r0, #3
 800677c:	ea43 2302 	orr.w	r3, r3, r2, lsl #8
 8006780:	bf01      	itttt	eq
 8006782:	7d48      	ldrbeq	r0, [r1, #21]
 8006784:	7d0a      	ldrbeq	r2, [r1, #20]
 8006786:	ea42 2200 	orreq.w	r2, r2, r0, lsl #8
 800678a:	ea43 4302 	orreq.w	r3, r3, r2, lsl #16
 800678e:	4618      	mov	r0, r3
 8006790:	4770      	bx	lr

08006792 <st_clust.isra.2>:
 8006792:	f3c2 2307 	ubfx	r3, r2, #8, #8
 8006796:	768a      	strb	r2, [r1, #26]
 8006798:	76cb      	strb	r3, [r1, #27]
 800679a:	7803      	ldrb	r3, [r0, #0]
 800679c:	2b03      	cmp	r3, #3
 800679e:	bf01      	itttt	eq
 80067a0:	0c12      	lsreq	r2, r2, #16
 80067a2:	750a      	strbeq	r2, [r1, #20]
 80067a4:	0a12      	lsreq	r2, r2, #8
 80067a6:	754a      	strbeq	r2, [r1, #21]
 80067a8:	4770      	bx	lr

080067aa <sync_window.part.4>:
 80067aa:	b5f8      	push	{r3, r4, r5, r6, r7, lr}
 80067ac:	6ac5      	ldr	r5, [r0, #44]	; 0x2c
 80067ae:	f100 0730 	add.w	r7, r0, #48	; 0x30
 80067b2:	4604      	mov	r4, r0
 80067b4:	2301      	movs	r3, #1
 80067b6:	462a      	mov	r2, r5
 80067b8:	4639      	mov	r1, r7
 80067ba:	7840      	ldrb	r0, [r0, #1]
 80067bc:	f7ff febc 	bl	8006538 <disk_write>
 80067c0:	b9a0      	cbnz	r0, 80067ec <sync_window.part.4+0x42>
 80067c2:	6a23      	ldr	r3, [r4, #32]
 80067c4:	69a2      	ldr	r2, [r4, #24]
 80067c6:	70e0      	strb	r0, [r4, #3]
 80067c8:	1aeb      	subs	r3, r5, r3
 80067ca:	4293      	cmp	r3, r2
 80067cc:	d301      	bcc.n	80067d2 <sync_window.part.4+0x28>
 80067ce:	2000      	movs	r0, #0
 80067d0:	bdf8      	pop	{r3, r4, r5, r6, r7, pc}
 80067d2:	78a6      	ldrb	r6, [r4, #2]
 80067d4:	2e01      	cmp	r6, #1
 80067d6:	d9fa      	bls.n	80067ce <sync_window.part.4+0x24>
 80067d8:	69a3      	ldr	r3, [r4, #24]
 80067da:	7860      	ldrb	r0, [r4, #1]
 80067dc:	441d      	add	r5, r3
 80067de:	462a      	mov	r2, r5
 80067e0:	2301      	movs	r3, #1
 80067e2:	4639      	mov	r1, r7
 80067e4:	f7ff fea8 	bl	8006538 <disk_write>
 80067e8:	3e01      	subs	r6, #1
 80067ea:	e7f3      	b.n	80067d4 <sync_window.part.4+0x2a>
 80067ec:	2001      	movs	r0, #1
 80067ee:	e7ef      	b.n	80067d0 <sync_window.part.4+0x26>

080067f0 <sync_window>:
 80067f0:	78c3      	ldrb	r3, [r0, #3]
 80067f2:	b10b      	cbz	r3, 80067f8 <sync_window+0x8>
 80067f4:	f7ff bfd9 	b.w	80067aa <sync_window.part.4>
 80067f8:	4618      	mov	r0, r3
 80067fa:	4770      	bx	lr

080067fc <move_window>:
 80067fc:	6ac3      	ldr	r3, [r0, #44]	; 0x2c
 80067fe:	428b      	cmp	r3, r1
 8006800:	b570      	push	{r4, r5, r6, lr}
 8006802:	4606      	mov	r6, r0
 8006804:	460d      	mov	r5, r1
 8006806:	d012      	beq.n	800682e <move_window+0x32>
 8006808:	f7ff fff2 	bl	80067f0 <sync_window>
 800680c:	4604      	mov	r4, r0
 800680e:	b960      	cbnz	r0, 800682a <move_window+0x2e>
 8006810:	462a      	mov	r2, r5
 8006812:	2301      	movs	r3, #1
 8006814:	f106 0130 	add.w	r1, r6, #48	; 0x30
 8006818:	7870      	ldrb	r0, [r6, #1]
 800681a:	f7ff fe7f 	bl	800651c <disk_read>
 800681e:	2800      	cmp	r0, #0
 8006820:	bf1c      	itt	ne
 8006822:	f04f 35ff 	movne.w	r5, #4294967295
 8006826:	2401      	movne	r4, #1
 8006828:	62f5      	str	r5, [r6, #44]	; 0x2c
 800682a:	4620      	mov	r0, r4
 800682c:	bd70      	pop	{r4, r5, r6, pc}
 800682e:	2400      	movs	r4, #0
 8006830:	e7fb      	b.n	800682a <move_window+0x2e>
	...

08006834 <check_fs>:
 8006834:	2300      	movs	r3, #0
 8006836:	b510      	push	{r4, lr}
 8006838:	70c3      	strb	r3, [r0, #3]
 800683a:	f04f 33ff 	mov.w	r3, #4294967295
 800683e:	62c3      	str	r3, [r0, #44]	; 0x2c
 8006840:	4604      	mov	r4, r0
 8006842:	f7ff ffdb 	bl	80067fc <move_window>
 8006846:	bb30      	cbnz	r0, 8006896 <check_fs+0x62>
 8006848:	f894 222f 	ldrb.w	r2, [r4, #559]	; 0x22f
 800684c:	f894 322e 	ldrb.w	r3, [r4, #558]	; 0x22e
 8006850:	ea43 2302 	orr.w	r3, r3, r2, lsl #8
 8006854:	f64a 2255 	movw	r2, #43605	; 0xaa55
 8006858:	4293      	cmp	r3, r2
 800685a:	d11e      	bne.n	800689a <check_fs+0x66>
 800685c:	f894 3030 	ldrb.w	r3, [r4, #48]	; 0x30
 8006860:	2be9      	cmp	r3, #233	; 0xe9
 8006862:	d005      	beq.n	8006870 <check_fs+0x3c>
 8006864:	6b23      	ldr	r3, [r4, #48]	; 0x30
 8006866:	4a10      	ldr	r2, [pc, #64]	; (80068a8 <check_fs+0x74>)
 8006868:	f003 13ff 	and.w	r3, r3, #16711935	; 0xff00ff
 800686c:	4293      	cmp	r3, r2
 800686e:	d116      	bne.n	800689e <check_fs+0x6a>
 8006870:	f104 0066 	add.w	r0, r4, #102	; 0x66
 8006874:	f7ff fe7c 	bl	8006570 <ld_dword>
 8006878:	4b0c      	ldr	r3, [pc, #48]	; (80068ac <check_fs+0x78>)
 800687a:	f020 407f 	bic.w	r0, r0, #4278190080	; 0xff000000
 800687e:	4298      	cmp	r0, r3
 8006880:	d00f      	beq.n	80068a2 <check_fs+0x6e>
 8006882:	f104 0082 	add.w	r0, r4, #130	; 0x82
 8006886:	f7ff fe73 	bl	8006570 <ld_dword>
 800688a:	4b09      	ldr	r3, [pc, #36]	; (80068b0 <check_fs+0x7c>)
 800688c:	4298      	cmp	r0, r3
 800688e:	bf14      	ite	ne
 8006890:	2002      	movne	r0, #2
 8006892:	2000      	moveq	r0, #0
 8006894:	bd10      	pop	{r4, pc}
 8006896:	2004      	movs	r0, #4
 8006898:	e7fc      	b.n	8006894 <check_fs+0x60>
 800689a:	2003      	movs	r0, #3
 800689c:	e7fa      	b.n	8006894 <check_fs+0x60>
 800689e:	2002      	movs	r0, #2
 80068a0:	e7f8      	b.n	8006894 <check_fs+0x60>
 80068a2:	2000      	movs	r0, #0
 80068a4:	e7f6      	b.n	8006894 <check_fs+0x60>
 80068a6:	bf00      	nop
 80068a8:	009000eb 	.word	0x009000eb
 80068ac:	00544146 	.word	0x00544146
 80068b0:	33544146 	.word	0x33544146

080068b4 <find_volume>:
 80068b4:	e92d 43f0 	stmdb	sp!, {r4, r5, r6, r7, r8, r9, lr}
 80068b8:	2300      	movs	r3, #0
 80068ba:	b085      	sub	sp, #20
 80068bc:	600b      	str	r3, [r1, #0]
 80068be:	460f      	mov	r7, r1
 80068c0:	4615      	mov	r5, r2
 80068c2:	f7ff ff1d 	bl	8006700 <get_ldnumber>
 80068c6:	1e06      	subs	r6, r0, #0
 80068c8:	f2c0 813c 	blt.w	8006b44 <find_volume+0x290>
 80068cc:	4ba1      	ldr	r3, [pc, #644]	; (8006b54 <find_volume+0x2a0>)
 80068ce:	f853 4026 	ldr.w	r4, [r3, r6, lsl #2]
 80068d2:	2c00      	cmp	r4, #0
 80068d4:	f000 8138 	beq.w	8006b48 <find_volume+0x294>
 80068d8:	603c      	str	r4, [r7, #0]
 80068da:	7823      	ldrb	r3, [r4, #0]
 80068dc:	f005 05fe 	and.w	r5, r5, #254	; 0xfe
 80068e0:	b173      	cbz	r3, 8006900 <find_volume+0x4c>
 80068e2:	7860      	ldrb	r0, [r4, #1]
 80068e4:	f7ff fe00 	bl	80064e8 <disk_status>
 80068e8:	07c1      	lsls	r1, r0, #31
 80068ea:	d409      	bmi.n	8006900 <find_volume+0x4c>
 80068ec:	2d00      	cmp	r5, #0
 80068ee:	f000 812d 	beq.w	8006b4c <find_volume+0x298>
 80068f2:	f010 0004 	ands.w	r0, r0, #4
 80068f6:	d000      	beq.n	80068fa <find_volume+0x46>
 80068f8:	200a      	movs	r0, #10
 80068fa:	b005      	add	sp, #20
 80068fc:	e8bd 83f0 	ldmia.w	sp!, {r4, r5, r6, r7, r8, r9, pc}
 8006900:	2300      	movs	r3, #0
 8006902:	b2f0      	uxtb	r0, r6
 8006904:	7023      	strb	r3, [r4, #0]
 8006906:	7060      	strb	r0, [r4, #1]
 8006908:	f7ff fdf8 	bl	80064fc <disk_initialize>
 800690c:	07c2      	lsls	r2, r0, #31
 800690e:	f100 811f 	bmi.w	8006b50 <find_volume+0x29c>
 8006912:	b10d      	cbz	r5, 8006918 <find_volume+0x64>
 8006914:	0743      	lsls	r3, r0, #29
 8006916:	d4ef      	bmi.n	80068f8 <find_volume+0x44>
 8006918:	2100      	movs	r1, #0
 800691a:	4620      	mov	r0, r4
 800691c:	f7ff ff8a 	bl	8006834 <check_fs>
 8006920:	2802      	cmp	r0, #2
 8006922:	f040 80f5 	bne.w	8006b10 <find_volume+0x25c>
 8006926:	f504 75fb 	add.w	r5, r4, #502	; 0x1f6
 800692a:	2100      	movs	r1, #0
 800692c:	f815 0c04 	ldrb.w	r0, [r5, #-4]
 8006930:	b110      	cbz	r0, 8006938 <find_volume+0x84>
 8006932:	4628      	mov	r0, r5
 8006934:	f7ff fe1c 	bl	8006570 <ld_dword>
 8006938:	f84d 0021 	str.w	r0, [sp, r1, lsl #2]
 800693c:	3101      	adds	r1, #1
 800693e:	2904      	cmp	r1, #4
 8006940:	f105 0510 	add.w	r5, r5, #16
 8006944:	d1f2      	bne.n	800692c <find_volume+0x78>
 8006946:	2600      	movs	r6, #0
 8006948:	f85d 5026 	ldr.w	r5, [sp, r6, lsl #2]
 800694c:	2d00      	cmp	r5, #0
 800694e:	f000 80d6 	beq.w	8006afe <find_volume+0x24a>
 8006952:	4629      	mov	r1, r5
 8006954:	4620      	mov	r0, r4
 8006956:	f7ff ff6d 	bl	8006834 <check_fs>
 800695a:	2801      	cmp	r0, #1
 800695c:	f200 80d0 	bhi.w	8006b00 <find_volume+0x24c>
 8006960:	f894 203c 	ldrb.w	r2, [r4, #60]	; 0x3c
 8006964:	f894 303b 	ldrb.w	r3, [r4, #59]	; 0x3b
 8006968:	ea43 2302 	orr.w	r3, r3, r2, lsl #8
 800696c:	f5b3 7f00 	cmp.w	r3, #512	; 0x200
 8006970:	f040 80d2 	bne.w	8006b18 <find_volume+0x264>
 8006974:	f894 3047 	ldrb.w	r3, [r4, #71]	; 0x47
 8006978:	f894 6046 	ldrb.w	r6, [r4, #70]	; 0x46
 800697c:	ea56 2603 	orrs.w	r6, r6, r3, lsl #8
 8006980:	d104      	bne.n	800698c <find_volume+0xd8>
 8006982:	f104 0054 	add.w	r0, r4, #84	; 0x54
 8006986:	f7ff fdf3 	bl	8006570 <ld_dword>
 800698a:	4606      	mov	r6, r0
 800698c:	f894 9040 	ldrb.w	r9, [r4, #64]	; 0x40
 8006990:	61a6      	str	r6, [r4, #24]
 8006992:	f109 33ff 	add.w	r3, r9, #4294967295
 8006996:	2b01      	cmp	r3, #1
 8006998:	f884 9002 	strb.w	r9, [r4, #2]
 800699c:	f200 80bc 	bhi.w	8006b18 <find_volume+0x264>
 80069a0:	f894 703d 	ldrb.w	r7, [r4, #61]	; 0x3d
 80069a4:	b2bb      	uxth	r3, r7
 80069a6:	8163      	strh	r3, [r4, #10]
 80069a8:	2b00      	cmp	r3, #0
 80069aa:	f000 80b5 	beq.w	8006b18 <find_volume+0x264>
 80069ae:	1e7b      	subs	r3, r7, #1
 80069b0:	423b      	tst	r3, r7
 80069b2:	f040 80b1 	bne.w	8006b18 <find_volume+0x264>
 80069b6:	f894 3042 	ldrb.w	r3, [r4, #66]	; 0x42
 80069ba:	f894 8041 	ldrb.w	r8, [r4, #65]	; 0x41
 80069be:	ea48 2803 	orr.w	r8, r8, r3, lsl #8
 80069c2:	f018 0f0f 	tst.w	r8, #15
 80069c6:	f8a4 8008 	strh.w	r8, [r4, #8]
 80069ca:	f040 80a5 	bne.w	8006b18 <find_volume+0x264>
 80069ce:	f894 1044 	ldrb.w	r1, [r4, #68]	; 0x44
 80069d2:	f894 0043 	ldrb.w	r0, [r4, #67]	; 0x43
 80069d6:	ea50 2001 	orrs.w	r0, r0, r1, lsl #8
 80069da:	d103      	bne.n	80069e4 <find_volume+0x130>
 80069dc:	f104 0050 	add.w	r0, r4, #80	; 0x50
 80069e0:	f7ff fdc6 	bl	8006570 <ld_dword>
 80069e4:	f894 203f 	ldrb.w	r2, [r4, #63]	; 0x3f
 80069e8:	f894 303e 	ldrb.w	r3, [r4, #62]	; 0x3e
 80069ec:	ea53 2302 	orrs.w	r3, r3, r2, lsl #8
 80069f0:	f000 8092 	beq.w	8006b18 <find_volume+0x264>
 80069f4:	fb06 fc09 	mul.w	ip, r6, r9
 80069f8:	eb03 1218 	add.w	r2, r3, r8, lsr #4
 80069fc:	4462      	add	r2, ip
 80069fe:	4290      	cmp	r0, r2
 8006a00:	f0c0 808a 	bcc.w	8006b18 <find_volume+0x264>
 8006a04:	1a81      	subs	r1, r0, r2
 8006a06:	fbb1 f1f7 	udiv	r1, r1, r7
 8006a0a:	2900      	cmp	r1, #0
 8006a0c:	f000 8084 	beq.w	8006b18 <find_volume+0x264>
 8006a10:	f64f 77f5 	movw	r7, #65525	; 0xfff5
 8006a14:	42b9      	cmp	r1, r7
 8006a16:	bf8c      	ite	hi
 8006a18:	2703      	movhi	r7, #3
 8006a1a:	2702      	movls	r7, #2
 8006a1c:	f640 70f5 	movw	r0, #4085	; 0xff5
 8006a20:	4281      	cmp	r1, r0
 8006a22:	bf98      	it	ls
 8006a24:	2701      	movls	r7, #1
 8006a26:	442b      	add	r3, r5
 8006a28:	3102      	adds	r1, #2
 8006a2a:	442a      	add	r2, r5
 8006a2c:	2f03      	cmp	r7, #3
 8006a2e:	6161      	str	r1, [r4, #20]
 8006a30:	61e5      	str	r5, [r4, #28]
 8006a32:	6223      	str	r3, [r4, #32]
 8006a34:	62a2      	str	r2, [r4, #40]	; 0x28
 8006a36:	d173      	bne.n	8006b20 <find_volume+0x26c>
 8006a38:	f894 205b 	ldrb.w	r2, [r4, #91]	; 0x5b
 8006a3c:	f894 305a 	ldrb.w	r3, [r4, #90]	; 0x5a
 8006a40:	ea53 2302 	orrs.w	r3, r3, r2, lsl #8
 8006a44:	d168      	bne.n	8006b18 <find_volume+0x264>
 8006a46:	f1b8 0f00 	cmp.w	r8, #0
 8006a4a:	d165      	bne.n	8006b18 <find_volume+0x264>
 8006a4c:	f104 005c 	add.w	r0, r4, #92	; 0x5c
 8006a50:	f7ff fd8e 	bl	8006570 <ld_dword>
 8006a54:	6260      	str	r0, [r4, #36]	; 0x24
 8006a56:	0089      	lsls	r1, r1, #2
 8006a58:	f201 11ff 	addw	r1, r1, #511	; 0x1ff
 8006a5c:	ebb6 2f51 	cmp.w	r6, r1, lsr #9
 8006a60:	d35a      	bcc.n	8006b18 <find_volume+0x264>
 8006a62:	f04f 33ff 	mov.w	r3, #4294967295
 8006a66:	e9c4 3303 	strd	r3, r3, [r4, #12]
 8006a6a:	2f03      	cmp	r7, #3
 8006a6c:	f04f 0380 	mov.w	r3, #128	; 0x80
 8006a70:	7123      	strb	r3, [r4, #4]
 8006a72:	d12f      	bne.n	8006ad4 <find_volume+0x220>
 8006a74:	f894 2061 	ldrb.w	r2, [r4, #97]	; 0x61
 8006a78:	f894 3060 	ldrb.w	r3, [r4, #96]	; 0x60
 8006a7c:	ea43 2302 	orr.w	r3, r3, r2, lsl #8
 8006a80:	2b01      	cmp	r3, #1
 8006a82:	d127      	bne.n	8006ad4 <find_volume+0x220>
 8006a84:	1c69      	adds	r1, r5, #1
 8006a86:	4620      	mov	r0, r4
 8006a88:	f7ff feb8 	bl	80067fc <move_window>
 8006a8c:	bb10      	cbnz	r0, 8006ad4 <find_volume+0x220>
 8006a8e:	f894 222f 	ldrb.w	r2, [r4, #559]	; 0x22f
 8006a92:	f894 322e 	ldrb.w	r3, [r4, #558]	; 0x22e
 8006a96:	7120      	strb	r0, [r4, #4]
 8006a98:	ea43 2302 	orr.w	r3, r3, r2, lsl #8
 8006a9c:	f64a 2255 	movw	r2, #43605	; 0xaa55
 8006aa0:	4293      	cmp	r3, r2
 8006aa2:	d117      	bne.n	8006ad4 <find_volume+0x220>
 8006aa4:	f104 0030 	add.w	r0, r4, #48	; 0x30
 8006aa8:	f7ff fd62 	bl	8006570 <ld_dword>
 8006aac:	4b2a      	ldr	r3, [pc, #168]	; (8006b58 <find_volume+0x2a4>)
 8006aae:	4298      	cmp	r0, r3
 8006ab0:	d110      	bne.n	8006ad4 <find_volume+0x220>
 8006ab2:	f504 7005 	add.w	r0, r4, #532	; 0x214
 8006ab6:	f7ff fd5b 	bl	8006570 <ld_dword>
 8006aba:	4b28      	ldr	r3, [pc, #160]	; (8006b5c <find_volume+0x2a8>)
 8006abc:	4298      	cmp	r0, r3
 8006abe:	d109      	bne.n	8006ad4 <find_volume+0x220>
 8006ac0:	f504 7006 	add.w	r0, r4, #536	; 0x218
 8006ac4:	f7ff fd54 	bl	8006570 <ld_dword>
 8006ac8:	6120      	str	r0, [r4, #16]
 8006aca:	f504 7007 	add.w	r0, r4, #540	; 0x21c
 8006ace:	f7ff fd4f 	bl	8006570 <ld_dword>
 8006ad2:	60e0      	str	r0, [r4, #12]
 8006ad4:	4a22      	ldr	r2, [pc, #136]	; (8006b60 <find_volume+0x2ac>)
 8006ad6:	7027      	strb	r7, [r4, #0]
 8006ad8:	8813      	ldrh	r3, [r2, #0]
 8006ada:	3301      	adds	r3, #1
 8006adc:	b29b      	uxth	r3, r3
 8006ade:	8013      	strh	r3, [r2, #0]
 8006ae0:	80e3      	strh	r3, [r4, #6]
 8006ae2:	4b20      	ldr	r3, [pc, #128]	; (8006b64 <find_volume+0x2b0>)
 8006ae4:	681a      	ldr	r2, [r3, #0]
 8006ae6:	4294      	cmp	r4, r2
 8006ae8:	bf04      	itt	eq
 8006aea:	2200      	moveq	r2, #0
 8006aec:	601a      	streq	r2, [r3, #0]
 8006aee:	691a      	ldr	r2, [r3, #16]
 8006af0:	4294      	cmp	r4, r2
 8006af2:	f04f 0000 	mov.w	r0, #0
 8006af6:	f47f af00 	bne.w	80068fa <find_volume+0x46>
 8006afa:	6118      	str	r0, [r3, #16]
 8006afc:	e6fd      	b.n	80068fa <find_volume+0x46>
 8006afe:	2003      	movs	r0, #3
 8006b00:	3601      	adds	r6, #1
 8006b02:	2e04      	cmp	r6, #4
 8006b04:	f47f af20 	bne.w	8006948 <find_volume+0x94>
 8006b08:	2804      	cmp	r0, #4
 8006b0a:	d105      	bne.n	8006b18 <find_volume+0x264>
 8006b0c:	2001      	movs	r0, #1
 8006b0e:	e6f4      	b.n	80068fa <find_volume+0x46>
 8006b10:	2804      	cmp	r0, #4
 8006b12:	d0fb      	beq.n	8006b0c <find_volume+0x258>
 8006b14:	2801      	cmp	r0, #1
 8006b16:	d901      	bls.n	8006b1c <find_volume+0x268>
 8006b18:	200d      	movs	r0, #13
 8006b1a:	e6ee      	b.n	80068fa <find_volume+0x46>
 8006b1c:	2500      	movs	r5, #0
 8006b1e:	e71f      	b.n	8006960 <find_volume+0xac>
 8006b20:	f1b8 0f00 	cmp.w	r8, #0
 8006b24:	d0f8      	beq.n	8006b18 <find_volume+0x264>
 8006b26:	2f02      	cmp	r7, #2
 8006b28:	ea4f 0041 	mov.w	r0, r1, lsl #1
 8006b2c:	bf18      	it	ne
 8006b2e:	1840      	addne	r0, r0, r1
 8006b30:	4463      	add	r3, ip
 8006b32:	bf18      	it	ne
 8006b34:	f001 0101 	andne.w	r1, r1, #1
 8006b38:	6263      	str	r3, [r4, #36]	; 0x24
 8006b3a:	bf0c      	ite	eq
 8006b3c:	4601      	moveq	r1, r0
 8006b3e:	eb01 0150 	addne.w	r1, r1, r0, lsr #1
 8006b42:	e789      	b.n	8006a58 <find_volume+0x1a4>
 8006b44:	200b      	movs	r0, #11
 8006b46:	e6d8      	b.n	80068fa <find_volume+0x46>
 8006b48:	200c      	movs	r0, #12
 8006b4a:	e6d6      	b.n	80068fa <find_volume+0x46>
 8006b4c:	4628      	mov	r0, r5
 8006b4e:	e6d4      	b.n	80068fa <find_volume+0x46>
 8006b50:	2003      	movs	r0, #3
 8006b52:	e6d2      	b.n	80068fa <find_volume+0x46>
 8006b54:	20001dc8 	.word	0x20001dc8
 8006b58:	41615252 	.word	0x41615252
 8006b5c:	61417272 	.word	0x61417272
 8006b60:	20001dec 	.word	0x20001dec
 8006b64:	20001dcc 	.word	0x20001dcc

08006b68 <put_fat>:
 8006b68:	2901      	cmp	r1, #1
 8006b6a:	e92d 47f0 	stmdb	sp!, {r4, r5, r6, r7, r8, r9, sl, lr}
 8006b6e:	4605      	mov	r5, r0
 8006b70:	460c      	mov	r4, r1
 8006b72:	4617      	mov	r7, r2
 8006b74:	d972      	bls.n	8006c5c <put_fat+0xf4>
 8006b76:	6943      	ldr	r3, [r0, #20]
 8006b78:	428b      	cmp	r3, r1
 8006b7a:	d96f      	bls.n	8006c5c <put_fat+0xf4>
 8006b7c:	7803      	ldrb	r3, [r0, #0]
 8006b7e:	2b02      	cmp	r3, #2
 8006b80:	d03f      	beq.n	8006c02 <put_fat+0x9a>
 8006b82:	2b03      	cmp	r3, #3
 8006b84:	d050      	beq.n	8006c28 <put_fat+0xc0>
 8006b86:	2b01      	cmp	r3, #1
 8006b88:	d168      	bne.n	8006c5c <put_fat+0xf4>
 8006b8a:	eb01 0851 	add.w	r8, r1, r1, lsr #1
 8006b8e:	6a01      	ldr	r1, [r0, #32]
 8006b90:	eb01 2158 	add.w	r1, r1, r8, lsr #9
 8006b94:	f7ff fe32 	bl	80067fc <move_window>
 8006b98:	4606      	mov	r6, r0
 8006b9a:	bb38      	cbnz	r0, 8006bec <put_fat+0x84>
 8006b9c:	f105 0930 	add.w	r9, r5, #48	; 0x30
 8006ba0:	f108 0a01 	add.w	sl, r8, #1
 8006ba4:	f3c8 0808 	ubfx	r8, r8, #0, #9
 8006ba8:	f014 0401 	ands.w	r4, r4, #1
 8006bac:	bf1f      	itttt	ne
 8006bae:	f819 3008 	ldrbne.w	r3, [r9, r8]
 8006bb2:	f003 020f 	andne.w	r2, r3, #15
 8006bb6:	013b      	lslne	r3, r7, #4
 8006bb8:	f003 03f0 	andne.w	r3, r3, #240	; 0xf0
 8006bbc:	bf14      	ite	ne
 8006bbe:	4313      	orrne	r3, r2
 8006bc0:	b2fb      	uxtbeq	r3, r7
 8006bc2:	f809 3008 	strb.w	r3, [r9, r8]
 8006bc6:	6a29      	ldr	r1, [r5, #32]
 8006bc8:	2301      	movs	r3, #1
 8006bca:	70eb      	strb	r3, [r5, #3]
 8006bcc:	eb01 215a 	add.w	r1, r1, sl, lsr #9
 8006bd0:	4628      	mov	r0, r5
 8006bd2:	f7ff fe13 	bl	80067fc <move_window>
 8006bd6:	4606      	mov	r6, r0
 8006bd8:	b940      	cbnz	r0, 8006bec <put_fat+0x84>
 8006bda:	f3ca 0a08 	ubfx	sl, sl, #0, #9
 8006bde:	b144      	cbz	r4, 8006bf2 <put_fat+0x8a>
 8006be0:	f3c7 1707 	ubfx	r7, r7, #4, #8
 8006be4:	f809 700a 	strb.w	r7, [r9, sl]
 8006be8:	2301      	movs	r3, #1
 8006bea:	70eb      	strb	r3, [r5, #3]
 8006bec:	4630      	mov	r0, r6
 8006bee:	e8bd 87f0 	ldmia.w	sp!, {r4, r5, r6, r7, r8, r9, sl, pc}
 8006bf2:	f819 300a 	ldrb.w	r3, [r9, sl]
 8006bf6:	f3c7 2703 	ubfx	r7, r7, #8, #4
 8006bfa:	f023 030f 	bic.w	r3, r3, #15
 8006bfe:	431f      	orrs	r7, r3
 8006c00:	e7f0      	b.n	8006be4 <put_fat+0x7c>
 8006c02:	6a01      	ldr	r1, [r0, #32]
 8006c04:	eb01 2114 	add.w	r1, r1, r4, lsr #8
 8006c08:	f7ff fdf8 	bl	80067fc <move_window>
 8006c0c:	4606      	mov	r6, r0
 8006c0e:	2800      	cmp	r0, #0
 8006c10:	d1ec      	bne.n	8006bec <put_fat+0x84>
 8006c12:	0064      	lsls	r4, r4, #1
 8006c14:	f105 0330 	add.w	r3, r5, #48	; 0x30
 8006c18:	f404 74ff 	and.w	r4, r4, #510	; 0x1fe
 8006c1c:	191a      	adds	r2, r3, r4
 8006c1e:	551f      	strb	r7, [r3, r4]
 8006c20:	f3c7 2707 	ubfx	r7, r7, #8, #8
 8006c24:	7057      	strb	r7, [r2, #1]
 8006c26:	e7df      	b.n	8006be8 <put_fat+0x80>
 8006c28:	6a01      	ldr	r1, [r0, #32]
 8006c2a:	eb01 11d4 	add.w	r1, r1, r4, lsr #7
 8006c2e:	f7ff fde5 	bl	80067fc <move_window>
 8006c32:	4606      	mov	r6, r0
 8006c34:	2800      	cmp	r0, #0
 8006c36:	d1d9      	bne.n	8006bec <put_fat+0x84>
 8006c38:	00a4      	lsls	r4, r4, #2
 8006c3a:	f105 0330 	add.w	r3, r5, #48	; 0x30
 8006c3e:	f404 74fe 	and.w	r4, r4, #508	; 0x1fc
 8006c42:	441c      	add	r4, r3
 8006c44:	4620      	mov	r0, r4
 8006c46:	f7ff fc93 	bl	8006570 <ld_dword>
 8006c4a:	f027 4770 	bic.w	r7, r7, #4026531840	; 0xf0000000
 8006c4e:	f000 4170 	and.w	r1, r0, #4026531840	; 0xf0000000
 8006c52:	4339      	orrs	r1, r7
 8006c54:	4620      	mov	r0, r4
 8006c56:	f7ff fc93 	bl	8006580 <st_dword>
 8006c5a:	e7c5      	b.n	8006be8 <put_fat+0x80>
 8006c5c:	2602      	movs	r6, #2
 8006c5e:	e7c5      	b.n	8006bec <put_fat+0x84>

08006c60 <get_fat.isra.8>:
 8006c60:	2901      	cmp	r1, #1
 8006c62:	b5f8      	push	{r3, r4, r5, r6, r7, lr}
 8006c64:	4605      	mov	r5, r0
 8006c66:	460c      	mov	r4, r1
 8006c68:	d952      	bls.n	8006d10 <get_fat.isra.8+0xb0>
 8006c6a:	6943      	ldr	r3, [r0, #20]
 8006c6c:	4299      	cmp	r1, r3
 8006c6e:	d24f      	bcs.n	8006d10 <get_fat.isra.8+0xb0>
 8006c70:	7803      	ldrb	r3, [r0, #0]
 8006c72:	2b02      	cmp	r3, #2
 8006c74:	d029      	beq.n	8006cca <get_fat.isra.8+0x6a>
 8006c76:	2b03      	cmp	r3, #3
 8006c78:	d038      	beq.n	8006cec <get_fat.isra.8+0x8c>
 8006c7a:	2b01      	cmp	r3, #1
 8006c7c:	d148      	bne.n	8006d10 <get_fat.isra.8+0xb0>
 8006c7e:	eb01 0651 	add.w	r6, r1, r1, lsr #1
 8006c82:	6a01      	ldr	r1, [r0, #32]
 8006c84:	eb01 2156 	add.w	r1, r1, r6, lsr #9
 8006c88:	f7ff fdb8 	bl	80067fc <move_window>
 8006c8c:	b110      	cbz	r0, 8006c94 <get_fat.isra.8+0x34>
 8006c8e:	f04f 30ff 	mov.w	r0, #4294967295
 8006c92:	bdf8      	pop	{r3, r4, r5, r6, r7, pc}
 8006c94:	1c77      	adds	r7, r6, #1
 8006c96:	6a29      	ldr	r1, [r5, #32]
 8006c98:	f3c6 0608 	ubfx	r6, r6, #0, #9
 8006c9c:	442e      	add	r6, r5
 8006c9e:	eb01 2157 	add.w	r1, r1, r7, lsr #9
 8006ca2:	4628      	mov	r0, r5
 8006ca4:	f896 6030 	ldrb.w	r6, [r6, #48]	; 0x30
 8006ca8:	f7ff fda8 	bl	80067fc <move_window>
 8006cac:	2800      	cmp	r0, #0
 8006cae:	d1ee      	bne.n	8006c8e <get_fat.isra.8+0x2e>
 8006cb0:	f3c7 0708 	ubfx	r7, r7, #0, #9
 8006cb4:	443d      	add	r5, r7
 8006cb6:	07e3      	lsls	r3, r4, #31
 8006cb8:	f895 0030 	ldrb.w	r0, [r5, #48]	; 0x30
 8006cbc:	ea46 2000 	orr.w	r0, r6, r0, lsl #8
 8006cc0:	bf4c      	ite	mi
 8006cc2:	0900      	lsrmi	r0, r0, #4
 8006cc4:	f3c0 000b 	ubfxpl	r0, r0, #0, #12
 8006cc8:	e7e3      	b.n	8006c92 <get_fat.isra.8+0x32>
 8006cca:	6a01      	ldr	r1, [r0, #32]
 8006ccc:	eb01 2114 	add.w	r1, r1, r4, lsr #8
 8006cd0:	f7ff fd94 	bl	80067fc <move_window>
 8006cd4:	2800      	cmp	r0, #0
 8006cd6:	d1da      	bne.n	8006c8e <get_fat.isra.8+0x2e>
 8006cd8:	0064      	lsls	r4, r4, #1
 8006cda:	3530      	adds	r5, #48	; 0x30
 8006cdc:	f404 74ff 	and.w	r4, r4, #510	; 0x1fe
 8006ce0:	192b      	adds	r3, r5, r4
 8006ce2:	5d28      	ldrb	r0, [r5, r4]
 8006ce4:	785b      	ldrb	r3, [r3, #1]
 8006ce6:	ea40 2003 	orr.w	r0, r0, r3, lsl #8
 8006cea:	e7d2      	b.n	8006c92 <get_fat.isra.8+0x32>
 8006cec:	6a01      	ldr	r1, [r0, #32]
 8006cee:	eb01 11d4 	add.w	r1, r1, r4, lsr #7
 8006cf2:	f7ff fd83 	bl	80067fc <move_window>
 8006cf6:	2800      	cmp	r0, #0
 8006cf8:	d1c9      	bne.n	8006c8e <get_fat.isra.8+0x2e>
 8006cfa:	00a4      	lsls	r4, r4, #2
 8006cfc:	f105 0030 	add.w	r0, r5, #48	; 0x30
 8006d00:	f404 74fe 	and.w	r4, r4, #508	; 0x1fc
 8006d04:	4420      	add	r0, r4
 8006d06:	f7ff fc33 	bl	8006570 <ld_dword>
 8006d0a:	f020 4070 	bic.w	r0, r0, #4026531840	; 0xf0000000
 8006d0e:	e7c0      	b.n	8006c92 <get_fat.isra.8+0x32>
 8006d10:	2001      	movs	r0, #1
 8006d12:	e7be      	b.n	8006c92 <get_fat.isra.8+0x32>

08006d14 <create_chain>:
 8006d14:	e92d 41f0 	stmdb	sp!, {r4, r5, r6, r7, r8, lr}
 8006d18:	4680      	mov	r8, r0
 8006d1a:	6805      	ldr	r5, [r0, #0]
 8006d1c:	460f      	mov	r7, r1
 8006d1e:	b971      	cbnz	r1, 8006d3e <create_chain+0x2a>
 8006d20:	68ee      	ldr	r6, [r5, #12]
 8006d22:	b1f6      	cbz	r6, 8006d62 <create_chain+0x4e>
 8006d24:	696b      	ldr	r3, [r5, #20]
 8006d26:	42b3      	cmp	r3, r6
 8006d28:	bf98      	it	ls
 8006d2a:	2601      	movls	r6, #1
 8006d2c:	4634      	mov	r4, r6
 8006d2e:	696b      	ldr	r3, [r5, #20]
 8006d30:	3401      	adds	r4, #1
 8006d32:	42a3      	cmp	r3, r4
 8006d34:	d818      	bhi.n	8006d68 <create_chain+0x54>
 8006d36:	2e01      	cmp	r6, #1
 8006d38:	d815      	bhi.n	8006d66 <create_chain+0x52>
 8006d3a:	2400      	movs	r4, #0
 8006d3c:	e009      	b.n	8006d52 <create_chain+0x3e>
 8006d3e:	4628      	mov	r0, r5
 8006d40:	f7ff ff8e 	bl	8006c60 <get_fat.isra.8>
 8006d44:	2801      	cmp	r0, #1
 8006d46:	4604      	mov	r4, r0
 8006d48:	d937      	bls.n	8006dba <create_chain+0xa6>
 8006d4a:	1c43      	adds	r3, r0, #1
 8006d4c:	d104      	bne.n	8006d58 <create_chain+0x44>
 8006d4e:	f04f 34ff 	mov.w	r4, #4294967295
 8006d52:	4620      	mov	r0, r4
 8006d54:	e8bd 81f0 	ldmia.w	sp!, {r4, r5, r6, r7, r8, pc}
 8006d58:	696b      	ldr	r3, [r5, #20]
 8006d5a:	4283      	cmp	r3, r0
 8006d5c:	d8f9      	bhi.n	8006d52 <create_chain+0x3e>
 8006d5e:	463e      	mov	r6, r7
 8006d60:	e7e4      	b.n	8006d2c <create_chain+0x18>
 8006d62:	2601      	movs	r6, #1
 8006d64:	e7e2      	b.n	8006d2c <create_chain+0x18>
 8006d66:	2402      	movs	r4, #2
 8006d68:	4621      	mov	r1, r4
 8006d6a:	f8d8 0000 	ldr.w	r0, [r8]
 8006d6e:	f7ff ff77 	bl	8006c60 <get_fat.isra.8>
 8006d72:	b130      	cbz	r0, 8006d82 <create_chain+0x6e>
 8006d74:	2801      	cmp	r0, #1
 8006d76:	d020      	beq.n	8006dba <create_chain+0xa6>
 8006d78:	3001      	adds	r0, #1
 8006d7a:	d0e8      	beq.n	8006d4e <create_chain+0x3a>
 8006d7c:	42b4      	cmp	r4, r6
 8006d7e:	d1d6      	bne.n	8006d2e <create_chain+0x1a>
 8006d80:	e7db      	b.n	8006d3a <create_chain+0x26>
 8006d82:	f04f 32ff 	mov.w	r2, #4294967295
 8006d86:	4621      	mov	r1, r4
 8006d88:	4628      	mov	r0, r5
 8006d8a:	f7ff feed 	bl	8006b68 <put_fat>
 8006d8e:	b990      	cbnz	r0, 8006db6 <create_chain+0xa2>
 8006d90:	b957      	cbnz	r7, 8006da8 <create_chain+0x94>
 8006d92:	e9d5 3204 	ldrd	r3, r2, [r5, #16]
 8006d96:	3a02      	subs	r2, #2
 8006d98:	4293      	cmp	r3, r2
 8006d9a:	60ec      	str	r4, [r5, #12]
 8006d9c:	d90f      	bls.n	8006dbe <create_chain+0xaa>
 8006d9e:	792b      	ldrb	r3, [r5, #4]
 8006da0:	f043 0301 	orr.w	r3, r3, #1
 8006da4:	712b      	strb	r3, [r5, #4]
 8006da6:	e7d4      	b.n	8006d52 <create_chain+0x3e>
 8006da8:	4622      	mov	r2, r4
 8006daa:	4639      	mov	r1, r7
 8006dac:	4628      	mov	r0, r5
 8006dae:	f7ff fedb 	bl	8006b68 <put_fat>
 8006db2:	2800      	cmp	r0, #0
 8006db4:	d0ed      	beq.n	8006d92 <create_chain+0x7e>
 8006db6:	2801      	cmp	r0, #1
 8006db8:	d0c9      	beq.n	8006d4e <create_chain+0x3a>
 8006dba:	2401      	movs	r4, #1
 8006dbc:	e7c9      	b.n	8006d52 <create_chain+0x3e>
 8006dbe:	3b01      	subs	r3, #1
 8006dc0:	612b      	str	r3, [r5, #16]
 8006dc2:	e7ec      	b.n	8006d9e <create_chain+0x8a>

08006dc4 <remove_chain>:
 8006dc4:	b5f8      	push	{r3, r4, r5, r6, r7, lr}
 8006dc6:	460d      	mov	r5, r1
 8006dc8:	2d01      	cmp	r5, #1
 8006dca:	4607      	mov	r7, r0
 8006dcc:	4611      	mov	r1, r2
 8006dce:	d92c      	bls.n	8006e2a <remove_chain+0x66>
 8006dd0:	6804      	ldr	r4, [r0, #0]
 8006dd2:	6963      	ldr	r3, [r4, #20]
 8006dd4:	42ab      	cmp	r3, r5
 8006dd6:	d928      	bls.n	8006e2a <remove_chain+0x66>
 8006dd8:	b12a      	cbz	r2, 8006de6 <remove_chain+0x22>
 8006dda:	f04f 32ff 	mov.w	r2, #4294967295
 8006dde:	4620      	mov	r0, r4
 8006de0:	f7ff fec2 	bl	8006b68 <put_fat>
 8006de4:	b930      	cbnz	r0, 8006df4 <remove_chain+0x30>
 8006de6:	4629      	mov	r1, r5
 8006de8:	6838      	ldr	r0, [r7, #0]
 8006dea:	f7ff ff39 	bl	8006c60 <get_fat.isra.8>
 8006dee:	4606      	mov	r6, r0
 8006df0:	b908      	cbnz	r0, 8006df6 <remove_chain+0x32>
 8006df2:	2000      	movs	r0, #0
 8006df4:	bdf8      	pop	{r3, r4, r5, r6, r7, pc}
 8006df6:	2801      	cmp	r0, #1
 8006df8:	d017      	beq.n	8006e2a <remove_chain+0x66>
 8006dfa:	1c43      	adds	r3, r0, #1
 8006dfc:	d017      	beq.n	8006e2e <remove_chain+0x6a>
 8006dfe:	2200      	movs	r2, #0
 8006e00:	4629      	mov	r1, r5
 8006e02:	4620      	mov	r0, r4
 8006e04:	f7ff feb0 	bl	8006b68 <put_fat>
 8006e08:	2800      	cmp	r0, #0
 8006e0a:	d1f3      	bne.n	8006df4 <remove_chain+0x30>
 8006e0c:	e9d4 3204 	ldrd	r3, r2, [r4, #16]
 8006e10:	1e91      	subs	r1, r2, #2
 8006e12:	428b      	cmp	r3, r1
 8006e14:	d205      	bcs.n	8006e22 <remove_chain+0x5e>
 8006e16:	3301      	adds	r3, #1
 8006e18:	6123      	str	r3, [r4, #16]
 8006e1a:	7923      	ldrb	r3, [r4, #4]
 8006e1c:	f043 0301 	orr.w	r3, r3, #1
 8006e20:	7123      	strb	r3, [r4, #4]
 8006e22:	42b2      	cmp	r2, r6
 8006e24:	4635      	mov	r5, r6
 8006e26:	d8de      	bhi.n	8006de6 <remove_chain+0x22>
 8006e28:	e7e3      	b.n	8006df2 <remove_chain+0x2e>
 8006e2a:	2002      	movs	r0, #2
 8006e2c:	e7e2      	b.n	8006df4 <remove_chain+0x30>
 8006e2e:	2001      	movs	r0, #1
 8006e30:	e7e0      	b.n	8006df4 <remove_chain+0x30>

08006e32 <sync_fs>:
 8006e32:	b5f8      	push	{r3, r4, r5, r6, r7, lr}
 8006e34:	4604      	mov	r4, r0
 8006e36:	f7ff fcdb 	bl	80067f0 <sync_window>
 8006e3a:	4605      	mov	r5, r0
 8006e3c:	2800      	cmp	r0, #0
 8006e3e:	d142      	bne.n	8006ec6 <sync_fs+0x94>
 8006e40:	7823      	ldrb	r3, [r4, #0]
 8006e42:	2b03      	cmp	r3, #3
 8006e44:	d137      	bne.n	8006eb6 <sync_fs+0x84>
 8006e46:	7927      	ldrb	r7, [r4, #4]
 8006e48:	2f01      	cmp	r7, #1
 8006e4a:	d134      	bne.n	8006eb6 <sync_fs+0x84>
 8006e4c:	f104 0630 	add.w	r6, r4, #48	; 0x30
 8006e50:	4601      	mov	r1, r0
 8006e52:	f44f 7200 	mov.w	r2, #512	; 0x200
 8006e56:	4630      	mov	r0, r6
 8006e58:	f7ff fb9a 	bl	8006590 <mem_set>
 8006e5c:	2355      	movs	r3, #85	; 0x55
 8006e5e:	f884 322e 	strb.w	r3, [r4, #558]	; 0x22e
 8006e62:	23aa      	movs	r3, #170	; 0xaa
 8006e64:	f884 322f 	strb.w	r3, [r4, #559]	; 0x22f
 8006e68:	2352      	movs	r3, #82	; 0x52
 8006e6a:	2241      	movs	r2, #65	; 0x41
 8006e6c:	2172      	movs	r1, #114	; 0x72
 8006e6e:	f884 3030 	strb.w	r3, [r4, #48]	; 0x30
 8006e72:	f884 3031 	strb.w	r3, [r4, #49]	; 0x31
 8006e76:	2361      	movs	r3, #97	; 0x61
 8006e78:	f884 3032 	strb.w	r3, [r4, #50]	; 0x32
 8006e7c:	f884 2033 	strb.w	r2, [r4, #51]	; 0x33
 8006e80:	f884 2216 	strb.w	r2, [r4, #534]	; 0x216
 8006e84:	f884 3217 	strb.w	r3, [r4, #535]	; 0x217
 8006e88:	f884 1214 	strb.w	r1, [r4, #532]	; 0x214
 8006e8c:	f884 1215 	strb.w	r1, [r4, #533]	; 0x215
 8006e90:	f504 7006 	add.w	r0, r4, #536	; 0x218
 8006e94:	6921      	ldr	r1, [r4, #16]
 8006e96:	f7ff fb73 	bl	8006580 <st_dword>
 8006e9a:	68e1      	ldr	r1, [r4, #12]
 8006e9c:	f504 7007 	add.w	r0, r4, #540	; 0x21c
 8006ea0:	f7ff fb6e 	bl	8006580 <st_dword>
 8006ea4:	69e2      	ldr	r2, [r4, #28]
 8006ea6:	7860      	ldrb	r0, [r4, #1]
 8006ea8:	3201      	adds	r2, #1
 8006eaa:	62e2      	str	r2, [r4, #44]	; 0x2c
 8006eac:	463b      	mov	r3, r7
 8006eae:	4631      	mov	r1, r6
 8006eb0:	f7ff fb42 	bl	8006538 <disk_write>
 8006eb4:	7125      	strb	r5, [r4, #4]
 8006eb6:	2200      	movs	r2, #0
 8006eb8:	4611      	mov	r1, r2
 8006eba:	7860      	ldrb	r0, [r4, #1]
 8006ebc:	f7ff fb4a 	bl	8006554 <disk_ioctl>
 8006ec0:	3000      	adds	r0, #0
 8006ec2:	bf18      	it	ne
 8006ec4:	2001      	movne	r0, #1
 8006ec6:	bdf8      	pop	{r3, r4, r5, r6, r7, pc}

08006ec8 <dir_sdi.constprop.12>:
 8006ec8:	6882      	ldr	r2, [r0, #8]
 8006eca:	b538      	push	{r3, r4, r5, lr}
 8006ecc:	2300      	movs	r3, #0
 8006ece:	4605      	mov	r5, r0
 8006ed0:	6804      	ldr	r4, [r0, #0]
 8006ed2:	6143      	str	r3, [r0, #20]
 8006ed4:	b992      	cbnz	r2, 8006efc <dir_sdi.constprop.12+0x34>
 8006ed6:	7823      	ldrb	r3, [r4, #0]
 8006ed8:	2b02      	cmp	r3, #2
 8006eda:	d901      	bls.n	8006ee0 <dir_sdi.constprop.12+0x18>
 8006edc:	6a63      	ldr	r3, [r4, #36]	; 0x24
 8006ede:	b973      	cbnz	r3, 8006efe <dir_sdi.constprop.12+0x36>
 8006ee0:	8923      	ldrh	r3, [r4, #8]
 8006ee2:	b90b      	cbnz	r3, 8006ee8 <dir_sdi.constprop.12+0x20>
 8006ee4:	2002      	movs	r0, #2
 8006ee6:	bd38      	pop	{r3, r4, r5, pc}
 8006ee8:	6a63      	ldr	r3, [r4, #36]	; 0x24
 8006eea:	61eb      	str	r3, [r5, #28]
 8006eec:	69eb      	ldr	r3, [r5, #28]
 8006eee:	61aa      	str	r2, [r5, #24]
 8006ef0:	2b00      	cmp	r3, #0
 8006ef2:	d0f7      	beq.n	8006ee4 <dir_sdi.constprop.12+0x1c>
 8006ef4:	3430      	adds	r4, #48	; 0x30
 8006ef6:	622c      	str	r4, [r5, #32]
 8006ef8:	2000      	movs	r0, #0
 8006efa:	e7f4      	b.n	8006ee6 <dir_sdi.constprop.12+0x1e>
 8006efc:	4613      	mov	r3, r2
 8006efe:	8961      	ldrh	r1, [r4, #10]
 8006f00:	461a      	mov	r2, r3
 8006f02:	b961      	cbnz	r1, 8006f1e <dir_sdi.constprop.12+0x56>
 8006f04:	4611      	mov	r1, r2
 8006f06:	6828      	ldr	r0, [r5, #0]
 8006f08:	f7ff feaa 	bl	8006c60 <get_fat.isra.8>
 8006f0c:	1c43      	adds	r3, r0, #1
 8006f0e:	4602      	mov	r2, r0
 8006f10:	d00b      	beq.n	8006f2a <dir_sdi.constprop.12+0x62>
 8006f12:	2801      	cmp	r0, #1
 8006f14:	d9e6      	bls.n	8006ee4 <dir_sdi.constprop.12+0x1c>
 8006f16:	6963      	ldr	r3, [r4, #20]
 8006f18:	4298      	cmp	r0, r3
 8006f1a:	d3f3      	bcc.n	8006f04 <dir_sdi.constprop.12+0x3c>
 8006f1c:	e7e2      	b.n	8006ee4 <dir_sdi.constprop.12+0x1c>
 8006f1e:	4619      	mov	r1, r3
 8006f20:	4620      	mov	r0, r4
 8006f22:	f7ff fbd1 	bl	80066c8 <clust2sect>
 8006f26:	61e8      	str	r0, [r5, #28]
 8006f28:	e7e0      	b.n	8006eec <dir_sdi.constprop.12+0x24>
 8006f2a:	2001      	movs	r0, #1
 8006f2c:	e7db      	b.n	8006ee6 <dir_sdi.constprop.12+0x1e>

08006f2e <dir_next>:
 8006f2e:	69c3      	ldr	r3, [r0, #28]
 8006f30:	e92d 47f0 	stmdb	sp!, {r4, r5, r6, r7, r8, r9, sl, lr}
 8006f34:	4605      	mov	r5, r0
 8006f36:	460f      	mov	r7, r1
 8006f38:	b1ab      	cbz	r3, 8006f66 <dir_next+0x38>
 8006f3a:	6942      	ldr	r2, [r0, #20]
 8006f3c:	f102 0820 	add.w	r8, r2, #32
 8006f40:	f5b8 1f00 	cmp.w	r8, #2097152	; 0x200000
 8006f44:	d20f      	bcs.n	8006f66 <dir_next+0x38>
 8006f46:	f3c8 0908 	ubfx	r9, r8, #0, #9
 8006f4a:	6804      	ldr	r4, [r0, #0]
 8006f4c:	f1b9 0f00 	cmp.w	r9, #0
 8006f50:	d14d      	bne.n	8006fee <dir_next+0xc0>
 8006f52:	6981      	ldr	r1, [r0, #24]
 8006f54:	3301      	adds	r3, #1
 8006f56:	61c3      	str	r3, [r0, #28]
 8006f58:	b939      	cbnz	r1, 8006f6a <dir_next+0x3c>
 8006f5a:	8923      	ldrh	r3, [r4, #8]
 8006f5c:	ebb3 1f58 	cmp.w	r3, r8, lsr #5
 8006f60:	d845      	bhi.n	8006fee <dir_next+0xc0>
 8006f62:	2300      	movs	r3, #0
 8006f64:	61eb      	str	r3, [r5, #28]
 8006f66:	2004      	movs	r0, #4
 8006f68:	e00b      	b.n	8006f82 <dir_next+0x54>
 8006f6a:	8963      	ldrh	r3, [r4, #10]
 8006f6c:	3b01      	subs	r3, #1
 8006f6e:	ea13 2358 	ands.w	r3, r3, r8, lsr #9
 8006f72:	d13c      	bne.n	8006fee <dir_next+0xc0>
 8006f74:	4620      	mov	r0, r4
 8006f76:	f7ff fe73 	bl	8006c60 <get_fat.isra.8>
 8006f7a:	2801      	cmp	r0, #1
 8006f7c:	4606      	mov	r6, r0
 8006f7e:	d802      	bhi.n	8006f86 <dir_next+0x58>
 8006f80:	2002      	movs	r0, #2
 8006f82:	e8bd 87f0 	ldmia.w	sp!, {r4, r5, r6, r7, r8, r9, sl, pc}
 8006f86:	1c42      	adds	r2, r0, #1
 8006f88:	d101      	bne.n	8006f8e <dir_next+0x60>
 8006f8a:	2001      	movs	r0, #1
 8006f8c:	e7f9      	b.n	8006f82 <dir_next+0x54>
 8006f8e:	6963      	ldr	r3, [r4, #20]
 8006f90:	4283      	cmp	r3, r0
 8006f92:	d826      	bhi.n	8006fe2 <dir_next+0xb4>
 8006f94:	2f00      	cmp	r7, #0
 8006f96:	d0e4      	beq.n	8006f62 <dir_next+0x34>
 8006f98:	69a9      	ldr	r1, [r5, #24]
 8006f9a:	4628      	mov	r0, r5
 8006f9c:	f7ff feba 	bl	8006d14 <create_chain>
 8006fa0:	4606      	mov	r6, r0
 8006fa2:	2800      	cmp	r0, #0
 8006fa4:	d036      	beq.n	8007014 <dir_next+0xe6>
 8006fa6:	2801      	cmp	r0, #1
 8006fa8:	d0ea      	beq.n	8006f80 <dir_next+0x52>
 8006faa:	1c43      	adds	r3, r0, #1
 8006fac:	d0ed      	beq.n	8006f8a <dir_next+0x5c>
 8006fae:	4620      	mov	r0, r4
 8006fb0:	f7ff fc1e 	bl	80067f0 <sync_window>
 8006fb4:	4607      	mov	r7, r0
 8006fb6:	2800      	cmp	r0, #0
 8006fb8:	d1e7      	bne.n	8006f8a <dir_next+0x5c>
 8006fba:	4601      	mov	r1, r0
 8006fbc:	f44f 7200 	mov.w	r2, #512	; 0x200
 8006fc0:	f104 0030 	add.w	r0, r4, #48	; 0x30
 8006fc4:	f7ff fae4 	bl	8006590 <mem_set>
 8006fc8:	4631      	mov	r1, r6
 8006fca:	4620      	mov	r0, r4
 8006fcc:	f7ff fb7c 	bl	80066c8 <clust2sect>
 8006fd0:	f04f 0a01 	mov.w	sl, #1
 8006fd4:	62e0      	str	r0, [r4, #44]	; 0x2c
 8006fd6:	8963      	ldrh	r3, [r4, #10]
 8006fd8:	429f      	cmp	r7, r3
 8006fda:	d30f      	bcc.n	8006ffc <dir_next+0xce>
 8006fdc:	6ae3      	ldr	r3, [r4, #44]	; 0x2c
 8006fde:	1bdf      	subs	r7, r3, r7
 8006fe0:	62e7      	str	r7, [r4, #44]	; 0x2c
 8006fe2:	61ae      	str	r6, [r5, #24]
 8006fe4:	4631      	mov	r1, r6
 8006fe6:	4620      	mov	r0, r4
 8006fe8:	f7ff fb6e 	bl	80066c8 <clust2sect>
 8006fec:	61e8      	str	r0, [r5, #28]
 8006fee:	3430      	adds	r4, #48	; 0x30
 8006ff0:	444c      	add	r4, r9
 8006ff2:	f8c5 8014 	str.w	r8, [r5, #20]
 8006ff6:	622c      	str	r4, [r5, #32]
 8006ff8:	2000      	movs	r0, #0
 8006ffa:	e7c2      	b.n	8006f82 <dir_next+0x54>
 8006ffc:	f884 a003 	strb.w	sl, [r4, #3]
 8007000:	4620      	mov	r0, r4
 8007002:	f7ff fbd2 	bl	80067aa <sync_window.part.4>
 8007006:	2800      	cmp	r0, #0
 8007008:	d1bf      	bne.n	8006f8a <dir_next+0x5c>
 800700a:	6ae3      	ldr	r3, [r4, #44]	; 0x2c
 800700c:	3301      	adds	r3, #1
 800700e:	3701      	adds	r7, #1
 8007010:	62e3      	str	r3, [r4, #44]	; 0x2c
 8007012:	e7e0      	b.n	8006fd6 <dir_next+0xa8>
 8007014:	2007      	movs	r0, #7
 8007016:	e7b4      	b.n	8006f82 <dir_next+0x54>

08007018 <follow_path>:
 8007018:	e92d 43f8 	stmdb	sp!, {r3, r4, r5, r6, r7, r8, r9, lr}
 800701c:	6807      	ldr	r7, [r0, #0]
 800701e:	4604      	mov	r4, r0
 8007020:	460d      	mov	r5, r1
 8007022:	f811 3b01 	ldrb.w	r3, [r1], #1
 8007026:	2b2f      	cmp	r3, #47	; 0x2f
 8007028:	d0fa      	beq.n	8007020 <follow_path+0x8>
 800702a:	2b5c      	cmp	r3, #92	; 0x5c
 800702c:	d0f8      	beq.n	8007020 <follow_path+0x8>
 800702e:	2300      	movs	r3, #0
 8007030:	60a3      	str	r3, [r4, #8]
 8007032:	782b      	ldrb	r3, [r5, #0]
 8007034:	2b1f      	cmp	r3, #31
 8007036:	d95b      	bls.n	80070f0 <follow_path+0xd8>
 8007038:	f8df 8150 	ldr.w	r8, [pc, #336]	; 800718c <follow_path+0x174>
 800703c:	f104 0624 	add.w	r6, r4, #36	; 0x24
 8007040:	220b      	movs	r2, #11
 8007042:	2120      	movs	r1, #32
 8007044:	4630      	mov	r0, r6
 8007046:	f7ff faa3 	bl	8006590 <mem_set>
 800704a:	2200      	movs	r2, #0
 800704c:	f105 3cff 	add.w	ip, r5, #4294967295
 8007050:	4611      	mov	r1, r2
 8007052:	2008      	movs	r0, #8
 8007054:	f81c 3f01 	ldrb.w	r3, [ip, #1]!
 8007058:	2b20      	cmp	r3, #32
 800705a:	f101 0101 	add.w	r1, r1, #1
 800705e:	d90d      	bls.n	800707c <follow_path+0x64>
 8007060:	2b2f      	cmp	r3, #47	; 0x2f
 8007062:	d001      	beq.n	8007068 <follow_path+0x50>
 8007064:	2b5c      	cmp	r3, #92	; 0x5c
 8007066:	d14b      	bne.n	8007100 <follow_path+0xe8>
 8007068:	1868      	adds	r0, r5, r1
 800706a:	1b41      	subs	r1, r0, r5
 800706c:	f810 cb01 	ldrb.w	ip, [r0], #1
 8007070:	f1bc 0f2f 	cmp.w	ip, #47	; 0x2f
 8007074:	d0f9      	beq.n	800706a <follow_path+0x52>
 8007076:	f1bc 0f5c 	cmp.w	ip, #92	; 0x5c
 800707a:	d0f6      	beq.n	800706a <follow_path+0x52>
 800707c:	440d      	add	r5, r1
 800707e:	2a00      	cmp	r2, #0
 8007080:	d052      	beq.n	8007128 <follow_path+0x110>
 8007082:	f894 2024 	ldrb.w	r2, [r4, #36]	; 0x24
 8007086:	f8d4 9000 	ldr.w	r9, [r4]
 800708a:	2ae5      	cmp	r2, #229	; 0xe5
 800708c:	bf04      	itt	eq
 800708e:	2205      	moveq	r2, #5
 8007090:	f884 2024 	strbeq.w	r2, [r4, #36]	; 0x24
 8007094:	2b21      	cmp	r3, #33	; 0x21
 8007096:	bf34      	ite	cc
 8007098:	2304      	movcc	r3, #4
 800709a:	2300      	movcs	r3, #0
 800709c:	f884 302f 	strb.w	r3, [r4, #47]	; 0x2f
 80070a0:	4620      	mov	r0, r4
 80070a2:	f7ff ff11 	bl	8006ec8 <dir_sdi.constprop.12>
 80070a6:	2800      	cmp	r0, #0
 80070a8:	d142      	bne.n	8007130 <follow_path+0x118>
 80070aa:	69e1      	ldr	r1, [r4, #28]
 80070ac:	4648      	mov	r0, r9
 80070ae:	f7ff fba5 	bl	80067fc <move_window>
 80070b2:	2800      	cmp	r0, #0
 80070b4:	d13c      	bne.n	8007130 <follow_path+0x118>
 80070b6:	6a23      	ldr	r3, [r4, #32]
 80070b8:	781a      	ldrb	r2, [r3, #0]
 80070ba:	2a00      	cmp	r2, #0
 80070bc:	d043      	beq.n	8007146 <follow_path+0x12e>
 80070be:	7ada      	ldrb	r2, [r3, #11]
 80070c0:	f002 023f 	and.w	r2, r2, #63	; 0x3f
 80070c4:	71a2      	strb	r2, [r4, #6]
 80070c6:	7ada      	ldrb	r2, [r3, #11]
 80070c8:	0711      	lsls	r1, r2, #28
 80070ca:	d40c      	bmi.n	80070e6 <follow_path+0xce>
 80070cc:	f103 0c0b 	add.w	ip, r3, #11
 80070d0:	4631      	mov	r1, r6
 80070d2:	f813 2b01 	ldrb.w	r2, [r3], #1
 80070d6:	f811 eb01 	ldrb.w	lr, [r1], #1
 80070da:	459c      	cmp	ip, r3
 80070dc:	eba2 020e 	sub.w	r2, r2, lr
 80070e0:	d024      	beq.n	800712c <follow_path+0x114>
 80070e2:	2a00      	cmp	r2, #0
 80070e4:	d0f5      	beq.n	80070d2 <follow_path+0xba>
 80070e6:	2100      	movs	r1, #0
 80070e8:	4620      	mov	r0, r4
 80070ea:	f7ff ff20 	bl	8006f2e <dir_next>
 80070ee:	e7da      	b.n	80070a6 <follow_path+0x8e>
 80070f0:	2380      	movs	r3, #128	; 0x80
 80070f2:	f884 302f 	strb.w	r3, [r4, #47]	; 0x2f
 80070f6:	4620      	mov	r0, r4
 80070f8:	e8bd 43f8 	ldmia.w	sp!, {r3, r4, r5, r6, r7, r8, r9, lr}
 80070fc:	f7ff bee4 	b.w	8006ec8 <dir_sdi.constprop.12>
 8007100:	2b2e      	cmp	r3, #46	; 0x2e
 8007102:	d034      	beq.n	800716e <follow_path+0x156>
 8007104:	4290      	cmp	r0, r2
 8007106:	d90f      	bls.n	8007128 <follow_path+0x110>
 8007108:	f013 0f80 	tst.w	r3, #128	; 0x80
 800710c:	bf18      	it	ne
 800710e:	3b80      	subne	r3, #128	; 0x80
 8007110:	f8df 907c 	ldr.w	r9, [pc, #124]	; 8007190 <follow_path+0x178>
 8007114:	bf18      	it	ne
 8007116:	f818 3003 	ldrbne.w	r3, [r8, r3]
 800711a:	f819 ef01 	ldrb.w	lr, [r9, #1]!
 800711e:	f1be 0f00 	cmp.w	lr, #0
 8007122:	d029      	beq.n	8007178 <follow_path+0x160>
 8007124:	4573      	cmp	r3, lr
 8007126:	d1f8      	bne.n	800711a <follow_path+0x102>
 8007128:	2006      	movs	r0, #6
 800712a:	e00a      	b.n	8007142 <follow_path+0x12a>
 800712c:	2a00      	cmp	r2, #0
 800712e:	d1da      	bne.n	80070e6 <follow_path+0xce>
 8007130:	f894 302f 	ldrb.w	r3, [r4, #47]	; 0x2f
 8007134:	b148      	cbz	r0, 800714a <follow_path+0x132>
 8007136:	2804      	cmp	r0, #4
 8007138:	d103      	bne.n	8007142 <follow_path+0x12a>
 800713a:	f013 0f04 	tst.w	r3, #4
 800713e:	bf08      	it	eq
 8007140:	2005      	moveq	r0, #5
 8007142:	e8bd 83f8 	ldmia.w	sp!, {r3, r4, r5, r6, r7, r8, r9, pc}
 8007146:	2004      	movs	r0, #4
 8007148:	e7f2      	b.n	8007130 <follow_path+0x118>
 800714a:	075a      	lsls	r2, r3, #29
 800714c:	d4f9      	bmi.n	8007142 <follow_path+0x12a>
 800714e:	79a3      	ldrb	r3, [r4, #6]
 8007150:	06db      	lsls	r3, r3, #27
 8007152:	d50a      	bpl.n	800716a <follow_path+0x152>
 8007154:	6963      	ldr	r3, [r4, #20]
 8007156:	7838      	ldrb	r0, [r7, #0]
 8007158:	f3c3 0308 	ubfx	r3, r3, #0, #9
 800715c:	f107 0130 	add.w	r1, r7, #48	; 0x30
 8007160:	4419      	add	r1, r3
 8007162:	f7ff fb08 	bl	8006776 <ld_clust.isra.1>
 8007166:	60a0      	str	r0, [r4, #8]
 8007168:	e768      	b.n	800703c <follow_path+0x24>
 800716a:	2005      	movs	r0, #5
 800716c:	e7e9      	b.n	8007142 <follow_path+0x12a>
 800716e:	280b      	cmp	r0, #11
 8007170:	d0da      	beq.n	8007128 <follow_path+0x110>
 8007172:	2208      	movs	r2, #8
 8007174:	200b      	movs	r0, #11
 8007176:	e76d      	b.n	8007054 <follow_path+0x3c>
 8007178:	f1a3 0e61 	sub.w	lr, r3, #97	; 0x61
 800717c:	f1be 0f19 	cmp.w	lr, #25
 8007180:	d801      	bhi.n	8007186 <follow_path+0x16e>
 8007182:	3b20      	subs	r3, #32
 8007184:	b2db      	uxtb	r3, r3
 8007186:	54b3      	strb	r3, [r6, r2]
 8007188:	3201      	adds	r2, #1
 800718a:	e763      	b.n	8007054 <follow_path+0x3c>
 800718c:	080098a4 	.word	0x080098a4
 8007190:	08009923 	.word	0x08009923

08007194 <dir_register>:
 8007194:	b570      	push	{r4, r5, r6, lr}
 8007196:	4605      	mov	r5, r0
 8007198:	6806      	ldr	r6, [r0, #0]
 800719a:	f7ff fe95 	bl	8006ec8 <dir_sdi.constprop.12>
 800719e:	4604      	mov	r4, r0
 80071a0:	bb28      	cbnz	r0, 80071ee <dir_register+0x5a>
 80071a2:	69e9      	ldr	r1, [r5, #28]
 80071a4:	4630      	mov	r0, r6
 80071a6:	f7ff fb29 	bl	80067fc <move_window>
 80071aa:	4604      	mov	r4, r0
 80071ac:	b9f8      	cbnz	r0, 80071ee <dir_register+0x5a>
 80071ae:	6a2b      	ldr	r3, [r5, #32]
 80071b0:	781b      	ldrb	r3, [r3, #0]
 80071b2:	2be5      	cmp	r3, #229	; 0xe5
 80071b4:	d114      	bne.n	80071e0 <dir_register+0x4c>
 80071b6:	69e9      	ldr	r1, [r5, #28]
 80071b8:	4630      	mov	r0, r6
 80071ba:	f7ff fb1f 	bl	80067fc <move_window>
 80071be:	4604      	mov	r4, r0
 80071c0:	b960      	cbnz	r0, 80071dc <dir_register+0x48>
 80071c2:	4601      	mov	r1, r0
 80071c4:	2220      	movs	r2, #32
 80071c6:	6a28      	ldr	r0, [r5, #32]
 80071c8:	f7ff f9e2 	bl	8006590 <mem_set>
 80071cc:	220b      	movs	r2, #11
 80071ce:	f105 0124 	add.w	r1, r5, #36	; 0x24
 80071d2:	6a28      	ldr	r0, [r5, #32]
 80071d4:	f7ff fac6 	bl	8006764 <mem_cpy.part.0>
 80071d8:	2301      	movs	r3, #1
 80071da:	70f3      	strb	r3, [r6, #3]
 80071dc:	4620      	mov	r0, r4
 80071de:	bd70      	pop	{r4, r5, r6, pc}
 80071e0:	2b00      	cmp	r3, #0
 80071e2:	d0e8      	beq.n	80071b6 <dir_register+0x22>
 80071e4:	2101      	movs	r1, #1
 80071e6:	4628      	mov	r0, r5
 80071e8:	f7ff fea1 	bl	8006f2e <dir_next>
 80071ec:	e7d7      	b.n	800719e <dir_register+0xa>
 80071ee:	2c04      	cmp	r4, #4
 80071f0:	bf08      	it	eq
 80071f2:	2407      	moveq	r4, #7
 80071f4:	e7f2      	b.n	80071dc <dir_register+0x48>
	...

080071f8 <f_mount>:
 80071f8:	b57f      	push	{r0, r1, r2, r3, r4, r5, r6, lr}
 80071fa:	e9cd 1000 	strd	r1, r0, [sp]
 80071fe:	a804      	add	r0, sp, #16
 8007200:	4616      	mov	r6, r2
 8007202:	f840 1d04 	str.w	r1, [r0, #-4]!
 8007206:	f7ff fa7b 	bl	8006700 <get_ldnumber>
 800720a:	1e05      	subs	r5, r0, #0
 800720c:	db1f      	blt.n	800724e <f_mount+0x56>
 800720e:	4912      	ldr	r1, [pc, #72]	; (8007258 <f_mount+0x60>)
 8007210:	f851 4025 	ldr.w	r4, [r1, r5, lsl #2]
 8007214:	b15c      	cbz	r4, 800722e <f_mount+0x36>
 8007216:	4b11      	ldr	r3, [pc, #68]	; (800725c <f_mount+0x64>)
 8007218:	681a      	ldr	r2, [r3, #0]
 800721a:	4294      	cmp	r4, r2
 800721c:	bf04      	itt	eq
 800721e:	2200      	moveq	r2, #0
 8007220:	601a      	streq	r2, [r3, #0]
 8007222:	691a      	ldr	r2, [r3, #16]
 8007224:	2000      	movs	r0, #0
 8007226:	4294      	cmp	r4, r2
 8007228:	bf08      	it	eq
 800722a:	6118      	streq	r0, [r3, #16]
 800722c:	7020      	strb	r0, [r4, #0]
 800722e:	9801      	ldr	r0, [sp, #4]
 8007230:	b108      	cbz	r0, 8007236 <f_mount+0x3e>
 8007232:	2300      	movs	r3, #0
 8007234:	7003      	strb	r3, [r0, #0]
 8007236:	f841 0025 	str.w	r0, [r1, r5, lsl #2]
 800723a:	b130      	cbz	r0, 800724a <f_mount+0x52>
 800723c:	2e01      	cmp	r6, #1
 800723e:	d108      	bne.n	8007252 <f_mount+0x5a>
 8007240:	2200      	movs	r2, #0
 8007242:	a901      	add	r1, sp, #4
 8007244:	4668      	mov	r0, sp
 8007246:	f7ff fb35 	bl	80068b4 <find_volume>
 800724a:	b004      	add	sp, #16
 800724c:	bd70      	pop	{r4, r5, r6, pc}
 800724e:	200b      	movs	r0, #11
 8007250:	e7fb      	b.n	800724a <f_mount+0x52>
 8007252:	2000      	movs	r0, #0
 8007254:	e7f9      	b.n	800724a <f_mount+0x52>
 8007256:	bf00      	nop
 8007258:	20001dc8 	.word	0x20001dc8
 800725c:	20001dcc 	.word	0x20001dcc

08007260 <f_open>:
 8007260:	e92d 47f0 	stmdb	sp!, {r4, r5, r6, r7, r8, r9, sl, lr}
 8007264:	b090      	sub	sp, #64	; 0x40
 8007266:	4690      	mov	r8, r2
 8007268:	9101      	str	r1, [sp, #4]
 800726a:	4604      	mov	r4, r0
 800726c:	2800      	cmp	r0, #0
 800726e:	f000 80b7 	beq.w	80073e0 <f_open+0x180>
 8007272:	f002 053f 	and.w	r5, r2, #63	; 0x3f
 8007276:	462a      	mov	r2, r5
 8007278:	a903      	add	r1, sp, #12
 800727a:	a801      	add	r0, sp, #4
 800727c:	f7ff fb1a 	bl	80068b4 <find_volume>
 8007280:	4607      	mov	r7, r0
 8007282:	2800      	cmp	r0, #0
 8007284:	d165      	bne.n	8007352 <f_open+0xf2>
 8007286:	ae10      	add	r6, sp, #64	; 0x40
 8007288:	9b03      	ldr	r3, [sp, #12]
 800728a:	f846 3d30 	str.w	r3, [r6, #-48]!
 800728e:	9901      	ldr	r1, [sp, #4]
 8007290:	4630      	mov	r0, r6
 8007292:	f7ff fec1 	bl	8007018 <follow_path>
 8007296:	b958      	cbnz	r0, 80072b0 <f_open+0x50>
 8007298:	f99d 303f 	ldrsb.w	r3, [sp, #63]	; 0x3f
 800729c:	2b00      	cmp	r3, #0
 800729e:	db5f      	blt.n	8007360 <f_open+0x100>
 80072a0:	f015 0f3e 	tst.w	r5, #62	; 0x3e
 80072a4:	bf14      	ite	ne
 80072a6:	2101      	movne	r1, #1
 80072a8:	2100      	moveq	r1, #0
 80072aa:	4630      	mov	r0, r6
 80072ac:	f7ff f976 	bl	800659c <chk_lock>
 80072b0:	f018 0f1c 	tst.w	r8, #28
 80072b4:	d060      	beq.n	8007378 <f_open+0x118>
 80072b6:	2800      	cmp	r0, #0
 80072b8:	d054      	beq.n	8007364 <f_open+0x104>
 80072ba:	2804      	cmp	r0, #4
 80072bc:	d149      	bne.n	8007352 <f_open+0xf2>
 80072be:	4b6d      	ldr	r3, [pc, #436]	; (8007474 <f_open+0x214>)
 80072c0:	681a      	ldr	r2, [r3, #0]
 80072c2:	b11a      	cbz	r2, 80072cc <f_open+0x6c>
 80072c4:	691b      	ldr	r3, [r3, #16]
 80072c6:	2b00      	cmp	r3, #0
 80072c8:	f040 8084 	bne.w	80073d4 <f_open+0x174>
 80072cc:	4630      	mov	r0, r6
 80072ce:	f7ff ff61 	bl	8007194 <dir_register>
 80072d2:	2800      	cmp	r0, #0
 80072d4:	d13d      	bne.n	8007352 <f_open+0xf2>
 80072d6:	f045 0508 	orr.w	r5, r5, #8
 80072da:	0728      	lsls	r0, r5, #28
 80072dc:	d557      	bpl.n	800738e <f_open+0x12e>
 80072de:	f7fd fe79 	bl	8004fd4 <get_fattime>
 80072e2:	4602      	mov	r2, r0
 80072e4:	4601      	mov	r1, r0
 80072e6:	980c      	ldr	r0, [sp, #48]	; 0x30
 80072e8:	300e      	adds	r0, #14
 80072ea:	f7ff f949 	bl	8006580 <st_dword>
 80072ee:	980c      	ldr	r0, [sp, #48]	; 0x30
 80072f0:	4611      	mov	r1, r2
 80072f2:	3016      	adds	r0, #22
 80072f4:	f7ff f944 	bl	8006580 <st_dword>
 80072f8:	9b0c      	ldr	r3, [sp, #48]	; 0x30
 80072fa:	f8dd 900c 	ldr.w	r9, [sp, #12]
 80072fe:	2220      	movs	r2, #32
 8007300:	72da      	strb	r2, [r3, #11]
 8007302:	f8dd a030 	ldr.w	sl, [sp, #48]	; 0x30
 8007306:	f899 0000 	ldrb.w	r0, [r9]
 800730a:	4651      	mov	r1, sl
 800730c:	f7ff fa33 	bl	8006776 <ld_clust.isra.1>
 8007310:	2200      	movs	r2, #0
 8007312:	4680      	mov	r8, r0
 8007314:	4648      	mov	r0, r9
 8007316:	f7ff fa3c 	bl	8006792 <st_clust.isra.2>
 800731a:	9b0c      	ldr	r3, [sp, #48]	; 0x30
 800731c:	2200      	movs	r2, #0
 800731e:	771a      	strb	r2, [r3, #28]
 8007320:	775a      	strb	r2, [r3, #29]
 8007322:	779a      	strb	r2, [r3, #30]
 8007324:	77da      	strb	r2, [r3, #31]
 8007326:	9b03      	ldr	r3, [sp, #12]
 8007328:	2101      	movs	r1, #1
 800732a:	70d9      	strb	r1, [r3, #3]
 800732c:	f1b8 0f00 	cmp.w	r8, #0
 8007330:	d02d      	beq.n	800738e <f_open+0x12e>
 8007332:	4641      	mov	r1, r8
 8007334:	4630      	mov	r0, r6
 8007336:	f8d3 902c 	ldr.w	r9, [r3, #44]	; 0x2c
 800733a:	f7ff fd43 	bl	8006dc4 <remove_chain>
 800733e:	b940      	cbnz	r0, 8007352 <f_open+0xf2>
 8007340:	4649      	mov	r1, r9
 8007342:	9803      	ldr	r0, [sp, #12]
 8007344:	f7ff fa5a 	bl	80067fc <move_window>
 8007348:	9a03      	ldr	r2, [sp, #12]
 800734a:	f108 33ff 	add.w	r3, r8, #4294967295
 800734e:	60d3      	str	r3, [r2, #12]
 8007350:	b1e8      	cbz	r0, 800738e <f_open+0x12e>
 8007352:	2300      	movs	r3, #0
 8007354:	6023      	str	r3, [r4, #0]
 8007356:	4607      	mov	r7, r0
 8007358:	4638      	mov	r0, r7
 800735a:	b010      	add	sp, #64	; 0x40
 800735c:	e8bd 87f0 	ldmia.w	sp!, {r4, r5, r6, r7, r8, r9, sl, pc}
 8007360:	2006      	movs	r0, #6
 8007362:	e7a5      	b.n	80072b0 <f_open+0x50>
 8007364:	f89d 3016 	ldrb.w	r3, [sp, #22]
 8007368:	f013 0f11 	tst.w	r3, #17
 800736c:	d136      	bne.n	80073dc <f_open+0x17c>
 800736e:	f018 0f04 	tst.w	r8, #4
 8007372:	d0b2      	beq.n	80072da <f_open+0x7a>
 8007374:	2008      	movs	r0, #8
 8007376:	e7ec      	b.n	8007352 <f_open+0xf2>
 8007378:	2800      	cmp	r0, #0
 800737a:	d1ea      	bne.n	8007352 <f_open+0xf2>
 800737c:	f89d 3016 	ldrb.w	r3, [sp, #22]
 8007380:	06da      	lsls	r2, r3, #27
 8007382:	d429      	bmi.n	80073d8 <f_open+0x178>
 8007384:	f018 0f02 	tst.w	r8, #2
 8007388:	d001      	beq.n	800738e <f_open+0x12e>
 800738a:	07db      	lsls	r3, r3, #31
 800738c:	d426      	bmi.n	80073dc <f_open+0x17c>
 800738e:	9b03      	ldr	r3, [sp, #12]
 8007390:	0728      	lsls	r0, r5, #28
 8007392:	6adb      	ldr	r3, [r3, #44]	; 0x2c
 8007394:	6263      	str	r3, [r4, #36]	; 0x24
 8007396:	bf48      	it	mi
 8007398:	f045 0540 	orrmi.w	r5, r5, #64	; 0x40
 800739c:	f015 0ffe 	tst.w	r5, #254	; 0xfe
 80073a0:	9b0c      	ldr	r3, [sp, #48]	; 0x30
 80073a2:	62a3      	str	r3, [r4, #40]	; 0x28
 80073a4:	bf14      	ite	ne
 80073a6:	2101      	movne	r1, #1
 80073a8:	2100      	moveq	r1, #0
 80073aa:	4630      	mov	r0, r6
 80073ac:	f7ff f930 	bl	8006610 <inc_lock>
 80073b0:	6120      	str	r0, [r4, #16]
 80073b2:	b9b8      	cbnz	r0, 80073e4 <f_open+0x184>
 80073b4:	2002      	movs	r0, #2
 80073b6:	e7cc      	b.n	8007352 <f_open+0xf2>
 80073b8:	6820      	ldr	r0, [r4, #0]
 80073ba:	f7ff fc51 	bl	8006c60 <get_fat.isra.8>
 80073be:	2801      	cmp	r0, #1
 80073c0:	4601      	mov	r1, r0
 80073c2:	eba5 0508 	sub.w	r5, r5, r8
 80073c6:	d903      	bls.n	80073d0 <f_open+0x170>
 80073c8:	1c42      	adds	r2, r0, #1
 80073ca:	d134      	bne.n	8007436 <f_open+0x1d6>
 80073cc:	2001      	movs	r0, #1
 80073ce:	e035      	b.n	800743c <f_open+0x1dc>
 80073d0:	2002      	movs	r0, #2
 80073d2:	e033      	b.n	800743c <f_open+0x1dc>
 80073d4:	2012      	movs	r0, #18
 80073d6:	e7bc      	b.n	8007352 <f_open+0xf2>
 80073d8:	2004      	movs	r0, #4
 80073da:	e7ba      	b.n	8007352 <f_open+0xf2>
 80073dc:	2007      	movs	r0, #7
 80073de:	e7b8      	b.n	8007352 <f_open+0xf2>
 80073e0:	2709      	movs	r7, #9
 80073e2:	e7b9      	b.n	8007358 <f_open+0xf8>
 80073e4:	9e03      	ldr	r6, [sp, #12]
 80073e6:	f8dd 8030 	ldr.w	r8, [sp, #48]	; 0x30
 80073ea:	7830      	ldrb	r0, [r6, #0]
 80073ec:	4641      	mov	r1, r8
 80073ee:	f7ff f9c2 	bl	8006776 <ld_clust.isra.1>
 80073f2:	60a0      	str	r0, [r4, #8]
 80073f4:	f108 001c 	add.w	r0, r8, #28
 80073f8:	f7ff f8ba 	bl	8006570 <ld_dword>
 80073fc:	88f3      	ldrh	r3, [r6, #6]
 80073fe:	6026      	str	r6, [r4, #0]
 8007400:	2100      	movs	r1, #0
 8007402:	f104 0630 	add.w	r6, r4, #48	; 0x30
 8007406:	60e0      	str	r0, [r4, #12]
 8007408:	80a3      	strh	r3, [r4, #4]
 800740a:	62e1      	str	r1, [r4, #44]	; 0x2c
 800740c:	7525      	strb	r5, [r4, #20]
 800740e:	7561      	strb	r1, [r4, #21]
 8007410:	6221      	str	r1, [r4, #32]
 8007412:	61a1      	str	r1, [r4, #24]
 8007414:	f44f 7200 	mov.w	r2, #512	; 0x200
 8007418:	4630      	mov	r0, r6
 800741a:	f7ff f8b9 	bl	8006590 <mem_set>
 800741e:	06ab      	lsls	r3, r5, #26
 8007420:	d59a      	bpl.n	8007358 <f_open+0xf8>
 8007422:	68e5      	ldr	r5, [r4, #12]
 8007424:	2d00      	cmp	r5, #0
 8007426:	d097      	beq.n	8007358 <f_open+0xf8>
 8007428:	9b03      	ldr	r3, [sp, #12]
 800742a:	68a1      	ldr	r1, [r4, #8]
 800742c:	f8b3 800a 	ldrh.w	r8, [r3, #10]
 8007430:	61a5      	str	r5, [r4, #24]
 8007432:	ea4f 2848 	mov.w	r8, r8, lsl #9
 8007436:	45a8      	cmp	r8, r5
 8007438:	d3be      	bcc.n	80073b8 <f_open+0x158>
 800743a:	2000      	movs	r0, #0
 800743c:	61e1      	str	r1, [r4, #28]
 800743e:	2800      	cmp	r0, #0
 8007440:	d187      	bne.n	8007352 <f_open+0xf2>
 8007442:	f3c5 0308 	ubfx	r3, r5, #0, #9
 8007446:	2b00      	cmp	r3, #0
 8007448:	d086      	beq.n	8007358 <f_open+0xf8>
 800744a:	f8dd 800c 	ldr.w	r8, [sp, #12]
 800744e:	4640      	mov	r0, r8
 8007450:	f7ff f93a 	bl	80066c8 <clust2sect>
 8007454:	2800      	cmp	r0, #0
 8007456:	d0ad      	beq.n	80073b4 <f_open+0x154>
 8007458:	eb00 2255 	add.w	r2, r0, r5, lsr #9
 800745c:	6222      	str	r2, [r4, #32]
 800745e:	2301      	movs	r3, #1
 8007460:	4631      	mov	r1, r6
 8007462:	f898 0001 	ldrb.w	r0, [r8, #1]
 8007466:	f7ff f859 	bl	800651c <disk_read>
 800746a:	2800      	cmp	r0, #0
 800746c:	f43f af74 	beq.w	8007358 <f_open+0xf8>
 8007470:	2001      	movs	r0, #1
 8007472:	e76e      	b.n	8007352 <f_open+0xf2>
 8007474:	20001dcc 	.word	0x20001dcc

08007478 <f_read>:
 8007478:	e92d 4ff0 	stmdb	sp!, {r4, r5, r6, r7, r8, r9, sl, fp, lr}
 800747c:	469b      	mov	fp, r3
 800747e:	b085      	sub	sp, #20
 8007480:	2300      	movs	r3, #0
 8007482:	4689      	mov	r9, r1
 8007484:	f8cb 3000 	str.w	r3, [fp]
 8007488:	a903      	add	r1, sp, #12
 800748a:	4604      	mov	r4, r0
 800748c:	4615      	mov	r5, r2
 800748e:	f7ff f94f 	bl	8006730 <validate>
 8007492:	4606      	mov	r6, r0
 8007494:	bb00      	cbnz	r0, 80074d8 <f_read+0x60>
 8007496:	7d66      	ldrb	r6, [r4, #21]
 8007498:	b9f6      	cbnz	r6, 80074d8 <f_read+0x60>
 800749a:	7d23      	ldrb	r3, [r4, #20]
 800749c:	07da      	lsls	r2, r3, #31
 800749e:	f140 8096 	bpl.w	80075ce <f_read+0x156>
 80074a2:	68e3      	ldr	r3, [r4, #12]
 80074a4:	69a7      	ldr	r7, [r4, #24]
 80074a6:	1bdf      	subs	r7, r3, r7
 80074a8:	42af      	cmp	r7, r5
 80074aa:	bf28      	it	cs
 80074ac:	462f      	movcs	r7, r5
 80074ae:	f104 0a30 	add.w	sl, r4, #48	; 0x30
 80074b2:	b18f      	cbz	r7, 80074d8 <f_read+0x60>
 80074b4:	69a1      	ldr	r1, [r4, #24]
 80074b6:	f3c1 0308 	ubfx	r3, r1, #0, #9
 80074ba:	2b00      	cmp	r3, #0
 80074bc:	d179      	bne.n	80075b2 <f_read+0x13a>
 80074be:	9b03      	ldr	r3, [sp, #12]
 80074c0:	895b      	ldrh	r3, [r3, #10]
 80074c2:	3b01      	subs	r3, #1
 80074c4:	ea13 2351 	ands.w	r3, r3, r1, lsr #9
 80074c8:	9301      	str	r3, [sp, #4]
 80074ca:	d119      	bne.n	8007500 <f_read+0x88>
 80074cc:	b941      	cbnz	r1, 80074e0 <f_read+0x68>
 80074ce:	68a0      	ldr	r0, [r4, #8]
 80074d0:	2801      	cmp	r0, #1
 80074d2:	d810      	bhi.n	80074f6 <f_read+0x7e>
 80074d4:	2602      	movs	r6, #2
 80074d6:	7566      	strb	r6, [r4, #21]
 80074d8:	4630      	mov	r0, r6
 80074da:	b005      	add	sp, #20
 80074dc:	e8bd 8ff0 	ldmia.w	sp!, {r4, r5, r6, r7, r8, r9, sl, fp, pc}
 80074e0:	6ae3      	ldr	r3, [r4, #44]	; 0x2c
 80074e2:	b11b      	cbz	r3, 80074ec <f_read+0x74>
 80074e4:	4620      	mov	r0, r4
 80074e6:	f7ff f8fa 	bl	80066de <clmt_clust>
 80074ea:	e7f1      	b.n	80074d0 <f_read+0x58>
 80074ec:	69e1      	ldr	r1, [r4, #28]
 80074ee:	6820      	ldr	r0, [r4, #0]
 80074f0:	f7ff fbb6 	bl	8006c60 <get_fat.isra.8>
 80074f4:	e7ec      	b.n	80074d0 <f_read+0x58>
 80074f6:	1c43      	adds	r3, r0, #1
 80074f8:	d101      	bne.n	80074fe <f_read+0x86>
 80074fa:	2601      	movs	r6, #1
 80074fc:	e7eb      	b.n	80074d6 <f_read+0x5e>
 80074fe:	61e0      	str	r0, [r4, #28]
 8007500:	9b03      	ldr	r3, [sp, #12]
 8007502:	69e1      	ldr	r1, [r4, #28]
 8007504:	9300      	str	r3, [sp, #0]
 8007506:	4618      	mov	r0, r3
 8007508:	f7ff f8de 	bl	80066c8 <clust2sect>
 800750c:	2800      	cmp	r0, #0
 800750e:	d0e1      	beq.n	80074d4 <f_read+0x5c>
 8007510:	9b01      	ldr	r3, [sp, #4]
 8007512:	0a7d      	lsrs	r5, r7, #9
 8007514:	eb03 0800 	add.w	r8, r3, r0
 8007518:	d02d      	beq.n	8007576 <f_read+0xfe>
 800751a:	9b00      	ldr	r3, [sp, #0]
 800751c:	9a01      	ldr	r2, [sp, #4]
 800751e:	895b      	ldrh	r3, [r3, #10]
 8007520:	9800      	ldr	r0, [sp, #0]
 8007522:	442a      	add	r2, r5
 8007524:	429a      	cmp	r2, r3
 8007526:	bf88      	it	hi
 8007528:	9a01      	ldrhi	r2, [sp, #4]
 800752a:	7840      	ldrb	r0, [r0, #1]
 800752c:	bf88      	it	hi
 800752e:	1a9d      	subhi	r5, r3, r2
 8007530:	462b      	mov	r3, r5
 8007532:	4642      	mov	r2, r8
 8007534:	4649      	mov	r1, r9
 8007536:	f7fe fff1 	bl	800651c <disk_read>
 800753a:	2800      	cmp	r0, #0
 800753c:	d1dd      	bne.n	80074fa <f_read+0x82>
 800753e:	f994 3014 	ldrsb.w	r3, [r4, #20]
 8007542:	2b00      	cmp	r3, #0
 8007544:	da0b      	bge.n	800755e <f_read+0xe6>
 8007546:	6a20      	ldr	r0, [r4, #32]
 8007548:	eba0 0008 	sub.w	r0, r0, r8
 800754c:	42a8      	cmp	r0, r5
 800754e:	d206      	bcs.n	800755e <f_read+0xe6>
 8007550:	f44f 7200 	mov.w	r2, #512	; 0x200
 8007554:	4651      	mov	r1, sl
 8007556:	eb09 2040 	add.w	r0, r9, r0, lsl #9
 800755a:	f7ff f903 	bl	8006764 <mem_cpy.part.0>
 800755e:	026d      	lsls	r5, r5, #9
 8007560:	69a3      	ldr	r3, [r4, #24]
 8007562:	442b      	add	r3, r5
 8007564:	61a3      	str	r3, [r4, #24]
 8007566:	f8db 3000 	ldr.w	r3, [fp]
 800756a:	442b      	add	r3, r5
 800756c:	44a9      	add	r9, r5
 800756e:	f8cb 3000 	str.w	r3, [fp]
 8007572:	1b7f      	subs	r7, r7, r5
 8007574:	e79d      	b.n	80074b2 <f_read+0x3a>
 8007576:	6a22      	ldr	r2, [r4, #32]
 8007578:	4542      	cmp	r2, r8
 800757a:	d018      	beq.n	80075ae <f_read+0x136>
 800757c:	f994 3014 	ldrsb.w	r3, [r4, #20]
 8007580:	2b00      	cmp	r3, #0
 8007582:	da0b      	bge.n	800759c <f_read+0x124>
 8007584:	9800      	ldr	r0, [sp, #0]
 8007586:	2301      	movs	r3, #1
 8007588:	4651      	mov	r1, sl
 800758a:	7840      	ldrb	r0, [r0, #1]
 800758c:	f7fe ffd4 	bl	8006538 <disk_write>
 8007590:	2800      	cmp	r0, #0
 8007592:	d1b2      	bne.n	80074fa <f_read+0x82>
 8007594:	7d23      	ldrb	r3, [r4, #20]
 8007596:	f003 037f 	and.w	r3, r3, #127	; 0x7f
 800759a:	7523      	strb	r3, [r4, #20]
 800759c:	9803      	ldr	r0, [sp, #12]
 800759e:	2301      	movs	r3, #1
 80075a0:	4642      	mov	r2, r8
 80075a2:	4651      	mov	r1, sl
 80075a4:	7840      	ldrb	r0, [r0, #1]
 80075a6:	f7fe ffb9 	bl	800651c <disk_read>
 80075aa:	2800      	cmp	r0, #0
 80075ac:	d1a5      	bne.n	80074fa <f_read+0x82>
 80075ae:	f8c4 8020 	str.w	r8, [r4, #32]
 80075b2:	69a1      	ldr	r1, [r4, #24]
 80075b4:	f3c1 0108 	ubfx	r1, r1, #0, #9
 80075b8:	f5c1 7500 	rsb	r5, r1, #512	; 0x200
 80075bc:	42bd      	cmp	r5, r7
 80075be:	bf28      	it	cs
 80075c0:	463d      	movcs	r5, r7
 80075c2:	462a      	mov	r2, r5
 80075c4:	4451      	add	r1, sl
 80075c6:	4648      	mov	r0, r9
 80075c8:	f7ff f8cc 	bl	8006764 <mem_cpy.part.0>
 80075cc:	e7c8      	b.n	8007560 <f_read+0xe8>
 80075ce:	2607      	movs	r6, #7
 80075d0:	e782      	b.n	80074d8 <f_read+0x60>

080075d2 <f_sync>:
 80075d2:	b5f7      	push	{r0, r1, r2, r4, r5, r6, r7, lr}
 80075d4:	a901      	add	r1, sp, #4
 80075d6:	4604      	mov	r4, r0
 80075d8:	f7ff f8aa 	bl	8006730 <validate>
 80075dc:	4605      	mov	r5, r0
 80075de:	2800      	cmp	r0, #0
 80075e0:	d13a      	bne.n	8007658 <f_sync+0x86>
 80075e2:	7d23      	ldrb	r3, [r4, #20]
 80075e4:	065a      	lsls	r2, r3, #25
 80075e6:	d537      	bpl.n	8007658 <f_sync+0x86>
 80075e8:	061b      	lsls	r3, r3, #24
 80075ea:	d50c      	bpl.n	8007606 <f_sync+0x34>
 80075ec:	9801      	ldr	r0, [sp, #4]
 80075ee:	6a22      	ldr	r2, [r4, #32]
 80075f0:	7840      	ldrb	r0, [r0, #1]
 80075f2:	2301      	movs	r3, #1
 80075f4:	f104 0130 	add.w	r1, r4, #48	; 0x30
 80075f8:	f7fe ff9e 	bl	8006538 <disk_write>
 80075fc:	bb78      	cbnz	r0, 800765e <f_sync+0x8c>
 80075fe:	7d23      	ldrb	r3, [r4, #20]
 8007600:	f003 037f 	and.w	r3, r3, #127	; 0x7f
 8007604:	7523      	strb	r3, [r4, #20]
 8007606:	f7fd fce5 	bl	8004fd4 <get_fattime>
 800760a:	6a61      	ldr	r1, [r4, #36]	; 0x24
 800760c:	4607      	mov	r7, r0
 800760e:	9801      	ldr	r0, [sp, #4]
 8007610:	f7ff f8f4 	bl	80067fc <move_window>
 8007614:	4605      	mov	r5, r0
 8007616:	b9f8      	cbnz	r0, 8007658 <f_sync+0x86>
 8007618:	6aa6      	ldr	r6, [r4, #40]	; 0x28
 800761a:	7af3      	ldrb	r3, [r6, #11]
 800761c:	f043 0320 	orr.w	r3, r3, #32
 8007620:	72f3      	strb	r3, [r6, #11]
 8007622:	68a2      	ldr	r2, [r4, #8]
 8007624:	6820      	ldr	r0, [r4, #0]
 8007626:	4631      	mov	r1, r6
 8007628:	f7ff f8b3 	bl	8006792 <st_clust.isra.2>
 800762c:	68e1      	ldr	r1, [r4, #12]
 800762e:	f106 001c 	add.w	r0, r6, #28
 8007632:	f7fe ffa5 	bl	8006580 <st_dword>
 8007636:	4639      	mov	r1, r7
 8007638:	f106 0016 	add.w	r0, r6, #22
 800763c:	f7fe ffa0 	bl	8006580 <st_dword>
 8007640:	9801      	ldr	r0, [sp, #4]
 8007642:	74b5      	strb	r5, [r6, #18]
 8007644:	2301      	movs	r3, #1
 8007646:	74f5      	strb	r5, [r6, #19]
 8007648:	70c3      	strb	r3, [r0, #3]
 800764a:	f7ff fbf2 	bl	8006e32 <sync_fs>
 800764e:	7d23      	ldrb	r3, [r4, #20]
 8007650:	f023 0340 	bic.w	r3, r3, #64	; 0x40
 8007654:	4605      	mov	r5, r0
 8007656:	7523      	strb	r3, [r4, #20]
 8007658:	4628      	mov	r0, r5
 800765a:	b003      	add	sp, #12
 800765c:	bdf0      	pop	{r4, r5, r6, r7, pc}
 800765e:	2501      	movs	r5, #1
 8007660:	e7fa      	b.n	8007658 <f_sync+0x86>

08007662 <f_close>:
 8007662:	b513      	push	{r0, r1, r4, lr}
 8007664:	4604      	mov	r4, r0
 8007666:	f7ff ffb4 	bl	80075d2 <f_sync>
 800766a:	b948      	cbnz	r0, 8007680 <f_close+0x1e>
 800766c:	a901      	add	r1, sp, #4
 800766e:	4620      	mov	r0, r4
 8007670:	f7ff f85e 	bl	8006730 <validate>
 8007674:	b920      	cbnz	r0, 8007680 <f_close+0x1e>
 8007676:	6920      	ldr	r0, [r4, #16]
 8007678:	f7ff f80a 	bl	8006690 <dec_lock>
 800767c:	b900      	cbnz	r0, 8007680 <f_close+0x1e>
 800767e:	6020      	str	r0, [r4, #0]
 8007680:	b002      	add	sp, #8
 8007682:	bd10      	pop	{r4, pc}

08007684 <f_lseek>:
 8007684:	e92d 47f3 	stmdb	sp!, {r0, r1, r4, r5, r6, r7, r8, r9, sl, lr}
 8007688:	460d      	mov	r5, r1
 800768a:	a901      	add	r1, sp, #4
 800768c:	4604      	mov	r4, r0
 800768e:	f7ff f84f 	bl	8006730 <validate>
 8007692:	4606      	mov	r6, r0
 8007694:	b9d0      	cbnz	r0, 80076cc <f_lseek+0x48>
 8007696:	7d66      	ldrb	r6, [r4, #21]
 8007698:	b9c6      	cbnz	r6, 80076cc <f_lseek+0x48>
 800769a:	6ae3      	ldr	r3, [r4, #44]	; 0x2c
 800769c:	2b00      	cmp	r3, #0
 800769e:	d076      	beq.n	800778e <f_lseek+0x10a>
 80076a0:	1c6a      	adds	r2, r5, #1
 80076a2:	d137      	bne.n	8007714 <f_lseek+0x90>
 80076a4:	68a7      	ldr	r7, [r4, #8]
 80076a6:	f8d3 a000 	ldr.w	sl, [r3]
 80076aa:	f103 0904 	add.w	r9, r3, #4
 80076ae:	2502      	movs	r5, #2
 80076b0:	b33f      	cbz	r7, 8007702 <f_lseek+0x7e>
 80076b2:	f04f 0800 	mov.w	r8, #0
 80076b6:	eb07 0108 	add.w	r1, r7, r8
 80076ba:	6820      	ldr	r0, [r4, #0]
 80076bc:	f7ff fad0 	bl	8006c60 <get_fat.isra.8>
 80076c0:	2801      	cmp	r0, #1
 80076c2:	f108 0801 	add.w	r8, r8, #1
 80076c6:	d807      	bhi.n	80076d8 <f_lseek+0x54>
 80076c8:	2602      	movs	r6, #2
 80076ca:	7566      	strb	r6, [r4, #21]
 80076cc:	4630      	mov	r0, r6
 80076ce:	b002      	add	sp, #8
 80076d0:	e8bd 87f0 	ldmia.w	sp!, {r4, r5, r6, r7, r8, r9, sl, pc}
 80076d4:	4607      	mov	r7, r0
 80076d6:	e7ec      	b.n	80076b2 <f_lseek+0x2e>
 80076d8:	1c43      	adds	r3, r0, #1
 80076da:	d101      	bne.n	80076e0 <f_lseek+0x5c>
 80076dc:	2601      	movs	r6, #1
 80076de:	e7f4      	b.n	80076ca <f_lseek+0x46>
 80076e0:	eb07 0308 	add.w	r3, r7, r8
 80076e4:	4283      	cmp	r3, r0
 80076e6:	d0e6      	beq.n	80076b6 <f_lseek+0x32>
 80076e8:	3502      	adds	r5, #2
 80076ea:	45aa      	cmp	sl, r5
 80076ec:	bf21      	itttt	cs
 80076ee:	464b      	movcs	r3, r9
 80076f0:	f843 8b08 	strcs.w	r8, [r3], #8
 80076f4:	f8c9 7004 	strcs.w	r7, [r9, #4]
 80076f8:	4699      	movcs	r9, r3
 80076fa:	9b01      	ldr	r3, [sp, #4]
 80076fc:	695b      	ldr	r3, [r3, #20]
 80076fe:	4283      	cmp	r3, r0
 8007700:	d8e8      	bhi.n	80076d4 <f_lseek+0x50>
 8007702:	6ae3      	ldr	r3, [r4, #44]	; 0x2c
 8007704:	4555      	cmp	r5, sl
 8007706:	601d      	str	r5, [r3, #0]
 8007708:	f200 80d5 	bhi.w	80078b6 <f_lseek+0x232>
 800770c:	2300      	movs	r3, #0
 800770e:	f8c9 3000 	str.w	r3, [r9]
 8007712:	e7db      	b.n	80076cc <f_lseek+0x48>
 8007714:	68e0      	ldr	r0, [r4, #12]
 8007716:	4285      	cmp	r5, r0
 8007718:	bf28      	it	cs
 800771a:	4605      	movcs	r5, r0
 800771c:	61a5      	str	r5, [r4, #24]
 800771e:	2d00      	cmp	r5, #0
 8007720:	d0d4      	beq.n	80076cc <f_lseek+0x48>
 8007722:	f105 38ff 	add.w	r8, r5, #4294967295
 8007726:	4641      	mov	r1, r8
 8007728:	4620      	mov	r0, r4
 800772a:	f7fe ffd8 	bl	80066de <clmt_clust>
 800772e:	9f01      	ldr	r7, [sp, #4]
 8007730:	61e0      	str	r0, [r4, #28]
 8007732:	4601      	mov	r1, r0
 8007734:	4638      	mov	r0, r7
 8007736:	f7fe ffc7 	bl	80066c8 <clust2sect>
 800773a:	2800      	cmp	r0, #0
 800773c:	d0c4      	beq.n	80076c8 <f_lseek+0x44>
 800773e:	f3c5 0508 	ubfx	r5, r5, #0, #9
 8007742:	2d00      	cmp	r5, #0
 8007744:	d0c2      	beq.n	80076cc <f_lseek+0x48>
 8007746:	897d      	ldrh	r5, [r7, #10]
 8007748:	6a22      	ldr	r2, [r4, #32]
 800774a:	3d01      	subs	r5, #1
 800774c:	ea05 2558 	and.w	r5, r5, r8, lsr #9
 8007750:	4405      	add	r5, r0
 8007752:	42aa      	cmp	r2, r5
 8007754:	d0ba      	beq.n	80076cc <f_lseek+0x48>
 8007756:	f994 3014 	ldrsb.w	r3, [r4, #20]
 800775a:	2b00      	cmp	r3, #0
 800775c:	f104 0830 	add.w	r8, r4, #48	; 0x30
 8007760:	da0a      	bge.n	8007778 <f_lseek+0xf4>
 8007762:	2301      	movs	r3, #1
 8007764:	4641      	mov	r1, r8
 8007766:	7878      	ldrb	r0, [r7, #1]
 8007768:	f7fe fee6 	bl	8006538 <disk_write>
 800776c:	2800      	cmp	r0, #0
 800776e:	d1b5      	bne.n	80076dc <f_lseek+0x58>
 8007770:	7d23      	ldrb	r3, [r4, #20]
 8007772:	f003 037f 	and.w	r3, r3, #127	; 0x7f
 8007776:	7523      	strb	r3, [r4, #20]
 8007778:	9801      	ldr	r0, [sp, #4]
 800777a:	2301      	movs	r3, #1
 800777c:	462a      	mov	r2, r5
 800777e:	4641      	mov	r1, r8
 8007780:	7840      	ldrb	r0, [r0, #1]
 8007782:	f7fe fecb 	bl	800651c <disk_read>
 8007786:	2800      	cmp	r0, #0
 8007788:	d1a8      	bne.n	80076dc <f_lseek+0x58>
 800778a:	6225      	str	r5, [r4, #32]
 800778c:	e79e      	b.n	80076cc <f_lseek+0x48>
 800778e:	68e3      	ldr	r3, [r4, #12]
 8007790:	42ab      	cmp	r3, r5
 8007792:	d204      	bcs.n	800779e <f_lseek+0x11a>
 8007794:	7d22      	ldrb	r2, [r4, #20]
 8007796:	f012 0f02 	tst.w	r2, #2
 800779a:	bf08      	it	eq
 800779c:	461d      	moveq	r5, r3
 800779e:	2200      	movs	r2, #0
 80077a0:	69a3      	ldr	r3, [r4, #24]
 80077a2:	61a2      	str	r2, [r4, #24]
 80077a4:	b90d      	cbnz	r5, 80077aa <f_lseek+0x126>
 80077a6:	462f      	mov	r7, r5
 80077a8:	e01d      	b.n	80077e6 <f_lseek+0x162>
 80077aa:	9a01      	ldr	r2, [sp, #4]
 80077ac:	8957      	ldrh	r7, [r2, #10]
 80077ae:	027f      	lsls	r7, r7, #9
 80077b0:	2b00      	cmp	r3, #0
 80077b2:	d040      	beq.n	8007836 <f_lseek+0x1b2>
 80077b4:	3b01      	subs	r3, #1
 80077b6:	1e6a      	subs	r2, r5, #1
 80077b8:	fbb3 f1f7 	udiv	r1, r3, r7
 80077bc:	fbb2 f2f7 	udiv	r2, r2, r7
 80077c0:	428a      	cmp	r2, r1
 80077c2:	d338      	bcc.n	8007836 <f_lseek+0x1b2>
 80077c4:	427a      	negs	r2, r7
 80077c6:	4013      	ands	r3, r2
 80077c8:	69e1      	ldr	r1, [r4, #28]
 80077ca:	61a3      	str	r3, [r4, #24]
 80077cc:	1aed      	subs	r5, r5, r3
 80077ce:	2900      	cmp	r1, #0
 80077d0:	d15e      	bne.n	8007890 <f_lseek+0x20c>
 80077d2:	2700      	movs	r7, #0
 80077d4:	68e3      	ldr	r3, [r4, #12]
 80077d6:	69a5      	ldr	r5, [r4, #24]
 80077d8:	429d      	cmp	r5, r3
 80077da:	bf81      	itttt	hi
 80077dc:	7d23      	ldrbhi	r3, [r4, #20]
 80077de:	60e5      	strhi	r5, [r4, #12]
 80077e0:	f043 0340 	orrhi.w	r3, r3, #64	; 0x40
 80077e4:	7523      	strbhi	r3, [r4, #20]
 80077e6:	f3c5 0508 	ubfx	r5, r5, #0, #9
 80077ea:	2d00      	cmp	r5, #0
 80077ec:	f43f af6e 	beq.w	80076cc <f_lseek+0x48>
 80077f0:	6a22      	ldr	r2, [r4, #32]
 80077f2:	42ba      	cmp	r2, r7
 80077f4:	f43f af6a 	beq.w	80076cc <f_lseek+0x48>
 80077f8:	f994 3014 	ldrsb.w	r3, [r4, #20]
 80077fc:	2b00      	cmp	r3, #0
 80077fe:	f104 0530 	add.w	r5, r4, #48	; 0x30
 8007802:	da0c      	bge.n	800781e <f_lseek+0x19a>
 8007804:	9801      	ldr	r0, [sp, #4]
 8007806:	2301      	movs	r3, #1
 8007808:	4629      	mov	r1, r5
 800780a:	7840      	ldrb	r0, [r0, #1]
 800780c:	f7fe fe94 	bl	8006538 <disk_write>
 8007810:	2800      	cmp	r0, #0
 8007812:	f47f af63 	bne.w	80076dc <f_lseek+0x58>
 8007816:	7d23      	ldrb	r3, [r4, #20]
 8007818:	f003 037f 	and.w	r3, r3, #127	; 0x7f
 800781c:	7523      	strb	r3, [r4, #20]
 800781e:	9801      	ldr	r0, [sp, #4]
 8007820:	2301      	movs	r3, #1
 8007822:	463a      	mov	r2, r7
 8007824:	4629      	mov	r1, r5
 8007826:	7840      	ldrb	r0, [r0, #1]
 8007828:	f7fe fe78 	bl	800651c <disk_read>
 800782c:	2800      	cmp	r0, #0
 800782e:	f47f af55 	bne.w	80076dc <f_lseek+0x58>
 8007832:	6227      	str	r7, [r4, #32]
 8007834:	e74a      	b.n	80076cc <f_lseek+0x48>
 8007836:	68a1      	ldr	r1, [r4, #8]
 8007838:	b951      	cbnz	r1, 8007850 <f_lseek+0x1cc>
 800783a:	4620      	mov	r0, r4
 800783c:	f7ff fa6a 	bl	8006d14 <create_chain>
 8007840:	2801      	cmp	r0, #1
 8007842:	4601      	mov	r1, r0
 8007844:	f43f af40 	beq.w	80076c8 <f_lseek+0x44>
 8007848:	3001      	adds	r0, #1
 800784a:	f43f af47 	beq.w	80076dc <f_lseek+0x58>
 800784e:	60a1      	str	r1, [r4, #8]
 8007850:	61e1      	str	r1, [r4, #28]
 8007852:	e7bc      	b.n	80077ce <f_lseek+0x14a>
 8007854:	443b      	add	r3, r7
 8007856:	61a3      	str	r3, [r4, #24]
 8007858:	7d23      	ldrb	r3, [r4, #20]
 800785a:	079a      	lsls	r2, r3, #30
 800785c:	eba5 0507 	sub.w	r5, r5, r7
 8007860:	d506      	bpl.n	8007870 <f_lseek+0x1ec>
 8007862:	4620      	mov	r0, r4
 8007864:	f7ff fa56 	bl	8006d14 <create_chain>
 8007868:	4601      	mov	r1, r0
 800786a:	b928      	cbnz	r0, 8007878 <f_lseek+0x1f4>
 800786c:	4605      	mov	r5, r0
 800786e:	e012      	b.n	8007896 <f_lseek+0x212>
 8007870:	6820      	ldr	r0, [r4, #0]
 8007872:	f7ff f9f5 	bl	8006c60 <get_fat.isra.8>
 8007876:	4601      	mov	r1, r0
 8007878:	1c4b      	adds	r3, r1, #1
 800787a:	f43f af2f 	beq.w	80076dc <f_lseek+0x58>
 800787e:	2901      	cmp	r1, #1
 8007880:	f67f af22 	bls.w	80076c8 <f_lseek+0x44>
 8007884:	9b01      	ldr	r3, [sp, #4]
 8007886:	695b      	ldr	r3, [r3, #20]
 8007888:	428b      	cmp	r3, r1
 800788a:	f67f af1d 	bls.w	80076c8 <f_lseek+0x44>
 800788e:	61e1      	str	r1, [r4, #28]
 8007890:	42bd      	cmp	r5, r7
 8007892:	69a3      	ldr	r3, [r4, #24]
 8007894:	d8de      	bhi.n	8007854 <f_lseek+0x1d0>
 8007896:	69a3      	ldr	r3, [r4, #24]
 8007898:	442b      	add	r3, r5
 800789a:	61a3      	str	r3, [r4, #24]
 800789c:	f3c5 0308 	ubfx	r3, r5, #0, #9
 80078a0:	2b00      	cmp	r3, #0
 80078a2:	d096      	beq.n	80077d2 <f_lseek+0x14e>
 80078a4:	9801      	ldr	r0, [sp, #4]
 80078a6:	f7fe ff0f 	bl	80066c8 <clust2sect>
 80078aa:	2800      	cmp	r0, #0
 80078ac:	f43f af0c 	beq.w	80076c8 <f_lseek+0x44>
 80078b0:	eb00 2755 	add.w	r7, r0, r5, lsr #9
 80078b4:	e78e      	b.n	80077d4 <f_lseek+0x150>
 80078b6:	2611      	movs	r6, #17
 80078b8:	e708      	b.n	80076cc <f_lseek+0x48>
	...

080078bc <FATFS_LinkDriverEx>:
 80078bc:	b530      	push	{r4, r5, lr}
 80078be:	4b0f      	ldr	r3, [pc, #60]	; (80078fc <FATFS_LinkDriverEx+0x40>)
 80078c0:	7a5d      	ldrb	r5, [r3, #9]
 80078c2:	f005 04ff 	and.w	r4, r5, #255	; 0xff
 80078c6:	b9b5      	cbnz	r5, 80078f6 <FATFS_LinkDriverEx+0x3a>
 80078c8:	7a5d      	ldrb	r5, [r3, #9]
 80078ca:	555c      	strb	r4, [r3, r5]
 80078cc:	7a5d      	ldrb	r5, [r3, #9]
 80078ce:	eb03 0585 	add.w	r5, r3, r5, lsl #2
 80078d2:	6068      	str	r0, [r5, #4]
 80078d4:	7a58      	ldrb	r0, [r3, #9]
 80078d6:	4418      	add	r0, r3
 80078d8:	7202      	strb	r2, [r0, #8]
 80078da:	7a5a      	ldrb	r2, [r3, #9]
 80078dc:	b2d2      	uxtb	r2, r2
 80078de:	1c50      	adds	r0, r2, #1
 80078e0:	b2c0      	uxtb	r0, r0
 80078e2:	7258      	strb	r0, [r3, #9]
 80078e4:	233a      	movs	r3, #58	; 0x3a
 80078e6:	3230      	adds	r2, #48	; 0x30
 80078e8:	704b      	strb	r3, [r1, #1]
 80078ea:	232f      	movs	r3, #47	; 0x2f
 80078ec:	700a      	strb	r2, [r1, #0]
 80078ee:	708b      	strb	r3, [r1, #2]
 80078f0:	70cc      	strb	r4, [r1, #3]
 80078f2:	4620      	mov	r0, r4
 80078f4:	bd30      	pop	{r4, r5, pc}
 80078f6:	2001      	movs	r0, #1
 80078f8:	e7fc      	b.n	80078f4 <FATFS_LinkDriverEx+0x38>
 80078fa:	bf00      	nop
 80078fc:	20001df0 	.word	0x20001df0

08007900 <FATFS_LinkDriver>:
 8007900:	2200      	movs	r2, #0
 8007902:	f7ff bfdb 	b.w	80078bc <FATFS_LinkDriverEx>
	...

08007908 <USBH_UserProcess>:
 8007908:	2904      	cmp	r1, #4
 800790a:	b538      	push	{r3, r4, r5, lr}
 800790c:	d013      	beq.n	8007936 <USBH_UserProcess+0x2e>
 800790e:	2905      	cmp	r1, #5
 8007910:	d00d      	beq.n	800792e <USBH_UserProcess+0x26>
 8007912:	2902      	cmp	r1, #2
 8007914:	d10a      	bne.n	800792c <USBH_UserProcess+0x24>
 8007916:	4b09      	ldr	r3, [pc, #36]	; (800793c <USBH_UserProcess+0x34>)
 8007918:	4d09      	ldr	r5, [pc, #36]	; (8007940 <USBH_UserProcess+0x38>)
 800791a:	4c0a      	ldr	r4, [pc, #40]	; (8007944 <USBH_UserProcess+0x3c>)
 800791c:	7019      	strb	r1, [r3, #0]
 800791e:	2201      	movs	r2, #1
 8007920:	4629      	mov	r1, r5
 8007922:	4620      	mov	r0, r4
 8007924:	f7ff fc68 	bl	80071f8 <f_mount>
 8007928:	2800      	cmp	r0, #0
 800792a:	d1f8      	bne.n	800791e <USBH_UserProcess+0x16>
 800792c:	bd38      	pop	{r3, r4, r5, pc}
 800792e:	4b03      	ldr	r3, [pc, #12]	; (800793c <USBH_UserProcess+0x34>)
 8007930:	2203      	movs	r2, #3
 8007932:	701a      	strb	r2, [r3, #0]
 8007934:	e7fa      	b.n	800792c <USBH_UserProcess+0x24>
 8007936:	4b01      	ldr	r3, [pc, #4]	; (800793c <USBH_UserProcess+0x34>)
 8007938:	2201      	movs	r2, #1
 800793a:	e7fa      	b.n	8007932 <USBH_UserProcess+0x2a>
 800793c:	20001dfc 	.word	0x20001dfc
 8007940:	2000002c 	.word	0x2000002c
 8007944:	20003550 	.word	0x20003550

08007948 <imagesss>:
 8007948:	3801      	subs	r0, #1
 800794a:	f5b0 7fb0 	cmp.w	r0, #352	; 0x160
 800794e:	f200 8164 	bhi.w	8007c1a <imagesss+0x2d2>
 8007952:	e8df f010 	tbh	[pc, r0, lsl #1]
 8007956:	0161      	.short	0x0161
 8007958:	01660164 	.word	0x01660164
 800795c:	016a0168 	.word	0x016a0168
 8007960:	016e016c 	.word	0x016e016c
 8007964:	01720170 	.word	0x01720170
 8007968:	01760174 	.word	0x01760174
 800796c:	017a0178 	.word	0x017a0178
 8007970:	017e017c 	.word	0x017e017c
 8007974:	01820180 	.word	0x01820180
 8007978:	01860184 	.word	0x01860184
 800797c:	018a0188 	.word	0x018a0188
 8007980:	018e018c 	.word	0x018e018c
 8007984:	01920190 	.word	0x01920190
 8007988:	01960194 	.word	0x01960194
 800798c:	019a0198 	.word	0x019a0198
 8007990:	019e019c 	.word	0x019e019c
 8007994:	01a201a0 	.word	0x01a201a0
 8007998:	01a601a4 	.word	0x01a601a4
 800799c:	01aa01a8 	.word	0x01aa01a8
 80079a0:	01ae01ac 	.word	0x01ae01ac
 80079a4:	01b201b0 	.word	0x01b201b0
 80079a8:	01b601b4 	.word	0x01b601b4
 80079ac:	01ba01b8 	.word	0x01ba01b8
 80079b0:	01be01bc 	.word	0x01be01bc
 80079b4:	01c201c0 	.word	0x01c201c0
 80079b8:	01c601c4 	.word	0x01c601c4
 80079bc:	01ca01c8 	.word	0x01ca01c8
 80079c0:	01ce01cc 	.word	0x01ce01cc
 80079c4:	01d201d0 	.word	0x01d201d0
 80079c8:	01d601d4 	.word	0x01d601d4
 80079cc:	01da01d8 	.word	0x01da01d8
 80079d0:	01de01dc 	.word	0x01de01dc
 80079d4:	01e201e0 	.word	0x01e201e0
 80079d8:	01e601e4 	.word	0x01e601e4
 80079dc:	01ea01e8 	.word	0x01ea01e8
 80079e0:	01ee01ec 	.word	0x01ee01ec
 80079e4:	01f201f0 	.word	0x01f201f0
 80079e8:	01f601f4 	.word	0x01f601f4
 80079ec:	01fa01f8 	.word	0x01fa01f8
 80079f0:	01fe01fc 	.word	0x01fe01fc
 80079f4:	02020200 	.word	0x02020200
 80079f8:	02060204 	.word	0x02060204
 80079fc:	020a0208 	.word	0x020a0208
 8007a00:	020e020c 	.word	0x020e020c
 8007a04:	02120210 	.word	0x02120210
 8007a08:	02160214 	.word	0x02160214
 8007a0c:	021a0218 	.word	0x021a0218
 8007a10:	021e021c 	.word	0x021e021c
 8007a14:	02220220 	.word	0x02220220
 8007a18:	02260224 	.word	0x02260224
 8007a1c:	022a0228 	.word	0x022a0228
 8007a20:	022e022c 	.word	0x022e022c
 8007a24:	02320230 	.word	0x02320230
 8007a28:	02360234 	.word	0x02360234
 8007a2c:	023a0238 	.word	0x023a0238
 8007a30:	023e023c 	.word	0x023e023c
 8007a34:	02420240 	.word	0x02420240
 8007a38:	02460244 	.word	0x02460244
 8007a3c:	024a0248 	.word	0x024a0248
 8007a40:	024e024c 	.word	0x024e024c
 8007a44:	02520250 	.word	0x02520250
 8007a48:	02560254 	.word	0x02560254
 8007a4c:	025a0258 	.word	0x025a0258
 8007a50:	035b025c 	.word	0x035b025c
 8007a54:	035f035d 	.word	0x035f035d
 8007a58:	03630361 	.word	0x03630361
 8007a5c:	03670365 	.word	0x03670365
 8007a60:	036b0369 	.word	0x036b0369
 8007a64:	036f036d 	.word	0x036f036d
 8007a68:	03730371 	.word	0x03730371
 8007a6c:	03770375 	.word	0x03770375
 8007a70:	037b0379 	.word	0x037b0379
 8007a74:	037f037d 	.word	0x037f037d
 8007a78:	03830381 	.word	0x03830381
 8007a7c:	03870385 	.word	0x03870385
 8007a80:	038b0389 	.word	0x038b0389
 8007a84:	038f038d 	.word	0x038f038d
 8007a88:	03930391 	.word	0x03930391
 8007a8c:	03970395 	.word	0x03970395
 8007a90:	039b0399 	.word	0x039b0399
 8007a94:	039f039d 	.word	0x039f039d
 8007a98:	03a303a1 	.word	0x03a303a1
 8007a9c:	03a703a5 	.word	0x03a703a5
 8007aa0:	03ab03a9 	.word	0x03ab03a9
 8007aa4:	03af03ad 	.word	0x03af03ad
 8007aa8:	03b303b1 	.word	0x03b303b1
 8007aac:	03b703b5 	.word	0x03b703b5
 8007ab0:	03bb03b9 	.word	0x03bb03b9
 8007ab4:	03bf03bd 	.word	0x03bf03bd
 8007ab8:	03c303c1 	.word	0x03c303c1
 8007abc:	03c703c5 	.word	0x03c703c5
 8007ac0:	03cb03c9 	.word	0x03cb03c9
 8007ac4:	03cf03cd 	.word	0x03cf03cd
 8007ac8:	03d303d1 	.word	0x03d303d1
 8007acc:	03d703d5 	.word	0x03d703d5
 8007ad0:	03db03d9 	.word	0x03db03d9
 8007ad4:	03df03dd 	.word	0x03df03dd
 8007ad8:	03e303e1 	.word	0x03e303e1
 8007adc:	03e703e5 	.word	0x03e703e5
 8007ae0:	03eb03e9 	.word	0x03eb03e9
 8007ae4:	03ef03ed 	.word	0x03ef03ed
 8007ae8:	03f303f1 	.word	0x03f303f1
 8007aec:	03f703f5 	.word	0x03f703f5
 8007af0:	03fb03f9 	.word	0x03fb03f9
 8007af4:	03ff03fd 	.word	0x03ff03fd
 8007af8:	04030401 	.word	0x04030401
 8007afc:	04070405 	.word	0x04070405
 8007b00:	040b0409 	.word	0x040b0409
 8007b04:	040f040d 	.word	0x040f040d
 8007b08:	04130411 	.word	0x04130411
 8007b0c:	04170415 	.word	0x04170415
 8007b10:	041b0419 	.word	0x041b0419
 8007b14:	041f041d 	.word	0x041f041d
 8007b18:	04230421 	.word	0x04230421
 8007b1c:	04270425 	.word	0x04270425
 8007b20:	042b0429 	.word	0x042b0429
 8007b24:	042f042d 	.word	0x042f042d
 8007b28:	04330431 	.word	0x04330431
 8007b2c:	04370435 	.word	0x04370435
 8007b30:	043b0439 	.word	0x043b0439
 8007b34:	043f043d 	.word	0x043f043d
 8007b38:	04430441 	.word	0x04430441
 8007b3c:	04470445 	.word	0x04470445
 8007b40:	044b0449 	.word	0x044b0449
 8007b44:	044f044d 	.word	0x044f044d
 8007b48:	04530451 	.word	0x04530451
 8007b4c:	04570455 	.word	0x04570455
 8007b50:	05590557 	.word	0x05590557
 8007b54:	055d055b 	.word	0x055d055b
 8007b58:	0561055f 	.word	0x0561055f
 8007b5c:	05670564 	.word	0x05670564
 8007b60:	056d056a 	.word	0x056d056a
 8007b64:	05730570 	.word	0x05730570
 8007b68:	05790576 	.word	0x05790576
 8007b6c:	057f057c 	.word	0x057f057c
 8007b70:	05850582 	.word	0x05850582
 8007b74:	058b0588 	.word	0x058b0588
 8007b78:	0591058e 	.word	0x0591058e
 8007b7c:	05970594 	.word	0x05970594
 8007b80:	059d059a 	.word	0x059d059a
 8007b84:	05a305a0 	.word	0x05a305a0
 8007b88:	05a905a6 	.word	0x05a905a6
 8007b8c:	05af05ac 	.word	0x05af05ac
 8007b90:	05b505b2 	.word	0x05b505b2
 8007b94:	05bb05b8 	.word	0x05bb05b8
 8007b98:	05c105be 	.word	0x05c105be
 8007b9c:	05c705c4 	.word	0x05c705c4
 8007ba0:	05cd05ca 	.word	0x05cd05ca
 8007ba4:	05d305d0 	.word	0x05d305d0
 8007ba8:	05d905d6 	.word	0x05d905d6
 8007bac:	05df05dc 	.word	0x05df05dc
 8007bb0:	05e505e2 	.word	0x05e505e2
 8007bb4:	05eb05e8 	.word	0x05eb05e8
 8007bb8:	05f105ee 	.word	0x05f105ee
 8007bbc:	05f705f4 	.word	0x05f705f4
 8007bc0:	05fd05fa 	.word	0x05fd05fa
 8007bc4:	06030600 	.word	0x06030600
 8007bc8:	06090606 	.word	0x06090606
 8007bcc:	060f060c 	.word	0x060f060c
 8007bd0:	06150612 	.word	0x06150612
 8007bd4:	061b0618 	.word	0x061b0618
 8007bd8:	0621061e 	.word	0x0621061e
 8007bdc:	06270624 	.word	0x06270624
 8007be0:	062d062a 	.word	0x062d062a
 8007be4:	06330630 	.word	0x06330630
 8007be8:	06390636 	.word	0x06390636
 8007bec:	063f063c 	.word	0x063f063c
 8007bf0:	06450642 	.word	0x06450642
 8007bf4:	064b0648 	.word	0x064b0648
 8007bf8:	0651064e 	.word	0x0651064e
 8007bfc:	06570654 	.word	0x06570654
 8007c00:	065d065a 	.word	0x065d065a
 8007c04:	06630660 	.word	0x06630660
 8007c08:	06690666 	.word	0x06690666
 8007c0c:	066f066c 	.word	0x066f066c
 8007c10:	06750672 	.word	0x06750672
 8007c14:	067b0678 	.word	0x067b0678
 8007c18:	4b7e      	ldr	r3, [pc, #504]	; (8007e14 <imagesss+0x4cc>)
 8007c1a:	4618      	mov	r0, r3
 8007c1c:	4770      	bx	lr
 8007c1e:	4b7e      	ldr	r3, [pc, #504]	; (8007e18 <imagesss+0x4d0>)
 8007c20:	e7fb      	b.n	8007c1a <imagesss+0x2d2>
 8007c22:	4b7e      	ldr	r3, [pc, #504]	; (8007e1c <imagesss+0x4d4>)
 8007c24:	e7f9      	b.n	8007c1a <imagesss+0x2d2>
 8007c26:	4b7e      	ldr	r3, [pc, #504]	; (8007e20 <imagesss+0x4d8>)
 8007c28:	e7f7      	b.n	8007c1a <imagesss+0x2d2>
 8007c2a:	4b7e      	ldr	r3, [pc, #504]	; (8007e24 <imagesss+0x4dc>)
 8007c2c:	e7f5      	b.n	8007c1a <imagesss+0x2d2>
 8007c2e:	4b7e      	ldr	r3, [pc, #504]	; (8007e28 <imagesss+0x4e0>)
 8007c30:	e7f3      	b.n	8007c1a <imagesss+0x2d2>
 8007c32:	4b7e      	ldr	r3, [pc, #504]	; (8007e2c <imagesss+0x4e4>)
 8007c34:	e7f1      	b.n	8007c1a <imagesss+0x2d2>
 8007c36:	4b7e      	ldr	r3, [pc, #504]	; (8007e30 <imagesss+0x4e8>)
 8007c38:	e7ef      	b.n	8007c1a <imagesss+0x2d2>
 8007c3a:	4b7e      	ldr	r3, [pc, #504]	; (8007e34 <imagesss+0x4ec>)
 8007c3c:	e7ed      	b.n	8007c1a <imagesss+0x2d2>
 8007c3e:	4b7e      	ldr	r3, [pc, #504]	; (8007e38 <imagesss+0x4f0>)
 8007c40:	e7eb      	b.n	8007c1a <imagesss+0x2d2>
 8007c42:	4b7e      	ldr	r3, [pc, #504]	; (8007e3c <imagesss+0x4f4>)
 8007c44:	e7e9      	b.n	8007c1a <imagesss+0x2d2>
 8007c46:	4b7e      	ldr	r3, [pc, #504]	; (8007e40 <imagesss+0x4f8>)
 8007c48:	e7e7      	b.n	8007c1a <imagesss+0x2d2>
 8007c4a:	4b7e      	ldr	r3, [pc, #504]	; (8007e44 <imagesss+0x4fc>)
 8007c4c:	e7e5      	b.n	8007c1a <imagesss+0x2d2>
 8007c4e:	4b7e      	ldr	r3, [pc, #504]	; (8007e48 <imagesss+0x500>)
 8007c50:	e7e3      	b.n	8007c1a <imagesss+0x2d2>
 8007c52:	4b7e      	ldr	r3, [pc, #504]	; (8007e4c <imagesss+0x504>)
 8007c54:	e7e1      	b.n	8007c1a <imagesss+0x2d2>
 8007c56:	4b7e      	ldr	r3, [pc, #504]	; (8007e50 <imagesss+0x508>)
 8007c58:	e7df      	b.n	8007c1a <imagesss+0x2d2>
 8007c5a:	4b7e      	ldr	r3, [pc, #504]	; (8007e54 <imagesss+0x50c>)
 8007c5c:	e7dd      	b.n	8007c1a <imagesss+0x2d2>
 8007c5e:	4b7e      	ldr	r3, [pc, #504]	; (8007e58 <imagesss+0x510>)
 8007c60:	e7db      	b.n	8007c1a <imagesss+0x2d2>
 8007c62:	4b7e      	ldr	r3, [pc, #504]	; (8007e5c <imagesss+0x514>)
 8007c64:	e7d9      	b.n	8007c1a <imagesss+0x2d2>
 8007c66:	4b7e      	ldr	r3, [pc, #504]	; (8007e60 <imagesss+0x518>)
 8007c68:	e7d7      	b.n	8007c1a <imagesss+0x2d2>
 8007c6a:	4b7e      	ldr	r3, [pc, #504]	; (8007e64 <imagesss+0x51c>)
 8007c6c:	e7d5      	b.n	8007c1a <imagesss+0x2d2>
 8007c6e:	4b7e      	ldr	r3, [pc, #504]	; (8007e68 <imagesss+0x520>)
 8007c70:	e7d3      	b.n	8007c1a <imagesss+0x2d2>
 8007c72:	4b7e      	ldr	r3, [pc, #504]	; (8007e6c <imagesss+0x524>)
 8007c74:	e7d1      	b.n	8007c1a <imagesss+0x2d2>
 8007c76:	4b7e      	ldr	r3, [pc, #504]	; (8007e70 <imagesss+0x528>)
 8007c78:	e7cf      	b.n	8007c1a <imagesss+0x2d2>
 8007c7a:	4b7e      	ldr	r3, [pc, #504]	; (8007e74 <imagesss+0x52c>)
 8007c7c:	e7cd      	b.n	8007c1a <imagesss+0x2d2>
 8007c7e:	4b7e      	ldr	r3, [pc, #504]	; (8007e78 <imagesss+0x530>)
 8007c80:	e7cb      	b.n	8007c1a <imagesss+0x2d2>
 8007c82:	4b7e      	ldr	r3, [pc, #504]	; (8007e7c <imagesss+0x534>)
 8007c84:	e7c9      	b.n	8007c1a <imagesss+0x2d2>
 8007c86:	4b7e      	ldr	r3, [pc, #504]	; (8007e80 <imagesss+0x538>)
 8007c88:	e7c7      	b.n	8007c1a <imagesss+0x2d2>
 8007c8a:	4b7e      	ldr	r3, [pc, #504]	; (8007e84 <imagesss+0x53c>)
 8007c8c:	e7c5      	b.n	8007c1a <imagesss+0x2d2>
 8007c8e:	4b7e      	ldr	r3, [pc, #504]	; (8007e88 <imagesss+0x540>)
 8007c90:	e7c3      	b.n	8007c1a <imagesss+0x2d2>
 8007c92:	4b7e      	ldr	r3, [pc, #504]	; (8007e8c <imagesss+0x544>)
 8007c94:	e7c1      	b.n	8007c1a <imagesss+0x2d2>
 8007c96:	4b7e      	ldr	r3, [pc, #504]	; (8007e90 <imagesss+0x548>)
 8007c98:	e7bf      	b.n	8007c1a <imagesss+0x2d2>
 8007c9a:	4b7e      	ldr	r3, [pc, #504]	; (8007e94 <imagesss+0x54c>)
 8007c9c:	e7bd      	b.n	8007c1a <imagesss+0x2d2>
 8007c9e:	4b7e      	ldr	r3, [pc, #504]	; (8007e98 <imagesss+0x550>)
 8007ca0:	e7bb      	b.n	8007c1a <imagesss+0x2d2>
 8007ca2:	4b7e      	ldr	r3, [pc, #504]	; (8007e9c <imagesss+0x554>)
 8007ca4:	e7b9      	b.n	8007c1a <imagesss+0x2d2>
 8007ca6:	4b7e      	ldr	r3, [pc, #504]	; (8007ea0 <imagesss+0x558>)
 8007ca8:	e7b7      	b.n	8007c1a <imagesss+0x2d2>
 8007caa:	4b7e      	ldr	r3, [pc, #504]	; (8007ea4 <imagesss+0x55c>)
 8007cac:	e7b5      	b.n	8007c1a <imagesss+0x2d2>
 8007cae:	4b7e      	ldr	r3, [pc, #504]	; (8007ea8 <imagesss+0x560>)
 8007cb0:	e7b3      	b.n	8007c1a <imagesss+0x2d2>
 8007cb2:	4b7e      	ldr	r3, [pc, #504]	; (8007eac <imagesss+0x564>)
 8007cb4:	e7b1      	b.n	8007c1a <imagesss+0x2d2>
 8007cb6:	4b7e      	ldr	r3, [pc, #504]	; (8007eb0 <imagesss+0x568>)
 8007cb8:	e7af      	b.n	8007c1a <imagesss+0x2d2>
 8007cba:	4b7e      	ldr	r3, [pc, #504]	; (8007eb4 <imagesss+0x56c>)
 8007cbc:	e7ad      	b.n	8007c1a <imagesss+0x2d2>
 8007cbe:	4b7e      	ldr	r3, [pc, #504]	; (8007eb8 <imagesss+0x570>)
 8007cc0:	e7ab      	b.n	8007c1a <imagesss+0x2d2>
 8007cc2:	4b7e      	ldr	r3, [pc, #504]	; (8007ebc <imagesss+0x574>)
 8007cc4:	e7a9      	b.n	8007c1a <imagesss+0x2d2>
 8007cc6:	4b7e      	ldr	r3, [pc, #504]	; (8007ec0 <imagesss+0x578>)
 8007cc8:	e7a7      	b.n	8007c1a <imagesss+0x2d2>
 8007cca:	4b7e      	ldr	r3, [pc, #504]	; (8007ec4 <imagesss+0x57c>)
 8007ccc:	e7a5      	b.n	8007c1a <imagesss+0x2d2>
 8007cce:	4b7e      	ldr	r3, [pc, #504]	; (8007ec8 <imagesss+0x580>)
 8007cd0:	e7a3      	b.n	8007c1a <imagesss+0x2d2>
 8007cd2:	4b7e      	ldr	r3, [pc, #504]	; (8007ecc <imagesss+0x584>)
 8007cd4:	e7a1      	b.n	8007c1a <imagesss+0x2d2>
 8007cd6:	4b7e      	ldr	r3, [pc, #504]	; (8007ed0 <imagesss+0x588>)
 8007cd8:	e79f      	b.n	8007c1a <imagesss+0x2d2>
 8007cda:	4b7e      	ldr	r3, [pc, #504]	; (8007ed4 <imagesss+0x58c>)
 8007cdc:	e79d      	b.n	8007c1a <imagesss+0x2d2>
 8007cde:	4b7e      	ldr	r3, [pc, #504]	; (8007ed8 <imagesss+0x590>)
 8007ce0:	e79b      	b.n	8007c1a <imagesss+0x2d2>
 8007ce2:	4b7e      	ldr	r3, [pc, #504]	; (8007edc <imagesss+0x594>)
 8007ce4:	e799      	b.n	8007c1a <imagesss+0x2d2>
 8007ce6:	4b7e      	ldr	r3, [pc, #504]	; (8007ee0 <imagesss+0x598>)
 8007ce8:	e797      	b.n	8007c1a <imagesss+0x2d2>
 8007cea:	4b7e      	ldr	r3, [pc, #504]	; (8007ee4 <imagesss+0x59c>)
 8007cec:	e795      	b.n	8007c1a <imagesss+0x2d2>
 8007cee:	4b7e      	ldr	r3, [pc, #504]	; (8007ee8 <imagesss+0x5a0>)
 8007cf0:	e793      	b.n	8007c1a <imagesss+0x2d2>
 8007cf2:	4b7e      	ldr	r3, [pc, #504]	; (8007eec <imagesss+0x5a4>)
 8007cf4:	e791      	b.n	8007c1a <imagesss+0x2d2>
 8007cf6:	4b7e      	ldr	r3, [pc, #504]	; (8007ef0 <imagesss+0x5a8>)
 8007cf8:	e78f      	b.n	8007c1a <imagesss+0x2d2>
 8007cfa:	4b7e      	ldr	r3, [pc, #504]	; (8007ef4 <imagesss+0x5ac>)
 8007cfc:	e78d      	b.n	8007c1a <imagesss+0x2d2>
 8007cfe:	4b7e      	ldr	r3, [pc, #504]	; (8007ef8 <imagesss+0x5b0>)
 8007d00:	e78b      	b.n	8007c1a <imagesss+0x2d2>
 8007d02:	4b7e      	ldr	r3, [pc, #504]	; (8007efc <imagesss+0x5b4>)
 8007d04:	e789      	b.n	8007c1a <imagesss+0x2d2>
 8007d06:	4b7e      	ldr	r3, [pc, #504]	; (8007f00 <imagesss+0x5b8>)
 8007d08:	e787      	b.n	8007c1a <imagesss+0x2d2>
 8007d0a:	4b7e      	ldr	r3, [pc, #504]	; (8007f04 <imagesss+0x5bc>)
 8007d0c:	e785      	b.n	8007c1a <imagesss+0x2d2>
 8007d0e:	4b7e      	ldr	r3, [pc, #504]	; (8007f08 <imagesss+0x5c0>)
 8007d10:	e783      	b.n	8007c1a <imagesss+0x2d2>
 8007d12:	4b7e      	ldr	r3, [pc, #504]	; (8007f0c <imagesss+0x5c4>)
 8007d14:	e781      	b.n	8007c1a <imagesss+0x2d2>
 8007d16:	4b7e      	ldr	r3, [pc, #504]	; (8007f10 <imagesss+0x5c8>)
 8007d18:	e77f      	b.n	8007c1a <imagesss+0x2d2>
 8007d1a:	4b7e      	ldr	r3, [pc, #504]	; (8007f14 <imagesss+0x5cc>)
 8007d1c:	e77d      	b.n	8007c1a <imagesss+0x2d2>
 8007d1e:	4b7e      	ldr	r3, [pc, #504]	; (8007f18 <imagesss+0x5d0>)
 8007d20:	e77b      	b.n	8007c1a <imagesss+0x2d2>
 8007d22:	4b7e      	ldr	r3, [pc, #504]	; (8007f1c <imagesss+0x5d4>)
 8007d24:	e779      	b.n	8007c1a <imagesss+0x2d2>
 8007d26:	4b7e      	ldr	r3, [pc, #504]	; (8007f20 <imagesss+0x5d8>)
 8007d28:	e777      	b.n	8007c1a <imagesss+0x2d2>
 8007d2a:	4b7e      	ldr	r3, [pc, #504]	; (8007f24 <imagesss+0x5dc>)
 8007d2c:	e775      	b.n	8007c1a <imagesss+0x2d2>
 8007d2e:	4b7e      	ldr	r3, [pc, #504]	; (8007f28 <imagesss+0x5e0>)
 8007d30:	e773      	b.n	8007c1a <imagesss+0x2d2>
 8007d32:	4b7e      	ldr	r3, [pc, #504]	; (8007f2c <imagesss+0x5e4>)
 8007d34:	e771      	b.n	8007c1a <imagesss+0x2d2>
 8007d36:	4b7e      	ldr	r3, [pc, #504]	; (8007f30 <imagesss+0x5e8>)
 8007d38:	e76f      	b.n	8007c1a <imagesss+0x2d2>
 8007d3a:	4b7e      	ldr	r3, [pc, #504]	; (8007f34 <imagesss+0x5ec>)
 8007d3c:	e76d      	b.n	8007c1a <imagesss+0x2d2>
 8007d3e:	4b7e      	ldr	r3, [pc, #504]	; (8007f38 <imagesss+0x5f0>)
 8007d40:	e76b      	b.n	8007c1a <imagesss+0x2d2>
 8007d42:	4b7e      	ldr	r3, [pc, #504]	; (8007f3c <imagesss+0x5f4>)
 8007d44:	e769      	b.n	8007c1a <imagesss+0x2d2>
 8007d46:	4b7e      	ldr	r3, [pc, #504]	; (8007f40 <imagesss+0x5f8>)
 8007d48:	e767      	b.n	8007c1a <imagesss+0x2d2>
 8007d4a:	4b7e      	ldr	r3, [pc, #504]	; (8007f44 <imagesss+0x5fc>)
 8007d4c:	e765      	b.n	8007c1a <imagesss+0x2d2>
 8007d4e:	4b7e      	ldr	r3, [pc, #504]	; (8007f48 <imagesss+0x600>)
 8007d50:	e763      	b.n	8007c1a <imagesss+0x2d2>
 8007d52:	4b7e      	ldr	r3, [pc, #504]	; (8007f4c <imagesss+0x604>)
 8007d54:	e761      	b.n	8007c1a <imagesss+0x2d2>
 8007d56:	4b7e      	ldr	r3, [pc, #504]	; (8007f50 <imagesss+0x608>)
 8007d58:	e75f      	b.n	8007c1a <imagesss+0x2d2>
 8007d5a:	4b7e      	ldr	r3, [pc, #504]	; (8007f54 <imagesss+0x60c>)
 8007d5c:	e75d      	b.n	8007c1a <imagesss+0x2d2>
 8007d5e:	4b7e      	ldr	r3, [pc, #504]	; (8007f58 <imagesss+0x610>)
 8007d60:	e75b      	b.n	8007c1a <imagesss+0x2d2>
 8007d62:	4b7e      	ldr	r3, [pc, #504]	; (8007f5c <imagesss+0x614>)
 8007d64:	e759      	b.n	8007c1a <imagesss+0x2d2>
 8007d66:	4b7e      	ldr	r3, [pc, #504]	; (8007f60 <imagesss+0x618>)
 8007d68:	e757      	b.n	8007c1a <imagesss+0x2d2>
 8007d6a:	4b7e      	ldr	r3, [pc, #504]	; (8007f64 <imagesss+0x61c>)
 8007d6c:	e755      	b.n	8007c1a <imagesss+0x2d2>
 8007d6e:	4b7e      	ldr	r3, [pc, #504]	; (8007f68 <imagesss+0x620>)
 8007d70:	e753      	b.n	8007c1a <imagesss+0x2d2>
 8007d72:	4b7e      	ldr	r3, [pc, #504]	; (8007f6c <imagesss+0x624>)
 8007d74:	e751      	b.n	8007c1a <imagesss+0x2d2>
 8007d76:	4b7e      	ldr	r3, [pc, #504]	; (8007f70 <imagesss+0x628>)
 8007d78:	e74f      	b.n	8007c1a <imagesss+0x2d2>
 8007d7a:	4b7e      	ldr	r3, [pc, #504]	; (8007f74 <imagesss+0x62c>)
 8007d7c:	e74d      	b.n	8007c1a <imagesss+0x2d2>
 8007d7e:	4b7e      	ldr	r3, [pc, #504]	; (8007f78 <imagesss+0x630>)
 8007d80:	e74b      	b.n	8007c1a <imagesss+0x2d2>
 8007d82:	4b7e      	ldr	r3, [pc, #504]	; (8007f7c <imagesss+0x634>)
 8007d84:	e749      	b.n	8007c1a <imagesss+0x2d2>
 8007d86:	4b7e      	ldr	r3, [pc, #504]	; (8007f80 <imagesss+0x638>)
 8007d88:	e747      	b.n	8007c1a <imagesss+0x2d2>
 8007d8a:	4b7e      	ldr	r3, [pc, #504]	; (8007f84 <imagesss+0x63c>)
 8007d8c:	e745      	b.n	8007c1a <imagesss+0x2d2>
 8007d8e:	4b7e      	ldr	r3, [pc, #504]	; (8007f88 <imagesss+0x640>)
 8007d90:	e743      	b.n	8007c1a <imagesss+0x2d2>
 8007d92:	4b7e      	ldr	r3, [pc, #504]	; (8007f8c <imagesss+0x644>)
 8007d94:	e741      	b.n	8007c1a <imagesss+0x2d2>
 8007d96:	4b7e      	ldr	r3, [pc, #504]	; (8007f90 <imagesss+0x648>)
 8007d98:	e73f      	b.n	8007c1a <imagesss+0x2d2>
 8007d9a:	4b7e      	ldr	r3, [pc, #504]	; (8007f94 <imagesss+0x64c>)
 8007d9c:	e73d      	b.n	8007c1a <imagesss+0x2d2>
 8007d9e:	4b7e      	ldr	r3, [pc, #504]	; (8007f98 <imagesss+0x650>)
 8007da0:	e73b      	b.n	8007c1a <imagesss+0x2d2>
 8007da2:	4b7e      	ldr	r3, [pc, #504]	; (8007f9c <imagesss+0x654>)
 8007da4:	e739      	b.n	8007c1a <imagesss+0x2d2>
 8007da6:	4b7e      	ldr	r3, [pc, #504]	; (8007fa0 <imagesss+0x658>)
 8007da8:	e737      	b.n	8007c1a <imagesss+0x2d2>
 8007daa:	4b7e      	ldr	r3, [pc, #504]	; (8007fa4 <imagesss+0x65c>)
 8007dac:	e735      	b.n	8007c1a <imagesss+0x2d2>
 8007dae:	4b7e      	ldr	r3, [pc, #504]	; (8007fa8 <imagesss+0x660>)
 8007db0:	e733      	b.n	8007c1a <imagesss+0x2d2>
 8007db2:	4b7e      	ldr	r3, [pc, #504]	; (8007fac <imagesss+0x664>)
 8007db4:	e731      	b.n	8007c1a <imagesss+0x2d2>
 8007db6:	4b7e      	ldr	r3, [pc, #504]	; (8007fb0 <imagesss+0x668>)
 8007db8:	e72f      	b.n	8007c1a <imagesss+0x2d2>
 8007dba:	4b7e      	ldr	r3, [pc, #504]	; (8007fb4 <imagesss+0x66c>)
 8007dbc:	e72d      	b.n	8007c1a <imagesss+0x2d2>
 8007dbe:	4b7e      	ldr	r3, [pc, #504]	; (8007fb8 <imagesss+0x670>)
 8007dc0:	e72b      	b.n	8007c1a <imagesss+0x2d2>
 8007dc2:	4b7e      	ldr	r3, [pc, #504]	; (8007fbc <imagesss+0x674>)
 8007dc4:	e729      	b.n	8007c1a <imagesss+0x2d2>
 8007dc6:	4b7e      	ldr	r3, [pc, #504]	; (8007fc0 <imagesss+0x678>)
 8007dc8:	e727      	b.n	8007c1a <imagesss+0x2d2>
 8007dca:	4b7e      	ldr	r3, [pc, #504]	; (8007fc4 <imagesss+0x67c>)
 8007dcc:	e725      	b.n	8007c1a <imagesss+0x2d2>
 8007dce:	4b7e      	ldr	r3, [pc, #504]	; (8007fc8 <imagesss+0x680>)
 8007dd0:	e723      	b.n	8007c1a <imagesss+0x2d2>
 8007dd2:	4b7e      	ldr	r3, [pc, #504]	; (8007fcc <imagesss+0x684>)
 8007dd4:	e721      	b.n	8007c1a <imagesss+0x2d2>
 8007dd6:	4b7e      	ldr	r3, [pc, #504]	; (8007fd0 <imagesss+0x688>)
 8007dd8:	e71f      	b.n	8007c1a <imagesss+0x2d2>
 8007dda:	4b7e      	ldr	r3, [pc, #504]	; (8007fd4 <imagesss+0x68c>)
 8007ddc:	e71d      	b.n	8007c1a <imagesss+0x2d2>
 8007dde:	4b7e      	ldr	r3, [pc, #504]	; (8007fd8 <imagesss+0x690>)
 8007de0:	e71b      	b.n	8007c1a <imagesss+0x2d2>
 8007de2:	4b7e      	ldr	r3, [pc, #504]	; (8007fdc <imagesss+0x694>)
 8007de4:	e719      	b.n	8007c1a <imagesss+0x2d2>
 8007de6:	4b7e      	ldr	r3, [pc, #504]	; (8007fe0 <imagesss+0x698>)
 8007de8:	e717      	b.n	8007c1a <imagesss+0x2d2>
 8007dea:	4b7e      	ldr	r3, [pc, #504]	; (8007fe4 <imagesss+0x69c>)
 8007dec:	e715      	b.n	8007c1a <imagesss+0x2d2>
 8007dee:	4b7e      	ldr	r3, [pc, #504]	; (8007fe8 <imagesss+0x6a0>)
 8007df0:	e713      	b.n	8007c1a <imagesss+0x2d2>
 8007df2:	4b7e      	ldr	r3, [pc, #504]	; (8007fec <imagesss+0x6a4>)
 8007df4:	e711      	b.n	8007c1a <imagesss+0x2d2>
 8007df6:	4b7e      	ldr	r3, [pc, #504]	; (8007ff0 <imagesss+0x6a8>)
 8007df8:	e70f      	b.n	8007c1a <imagesss+0x2d2>
 8007dfa:	4b7e      	ldr	r3, [pc, #504]	; (8007ff4 <imagesss+0x6ac>)
 8007dfc:	e70d      	b.n	8007c1a <imagesss+0x2d2>
 8007dfe:	4b7e      	ldr	r3, [pc, #504]	; (8007ff8 <imagesss+0x6b0>)
 8007e00:	e70b      	b.n	8007c1a <imagesss+0x2d2>
 8007e02:	4b7e      	ldr	r3, [pc, #504]	; (8007ffc <imagesss+0x6b4>)
 8007e04:	e709      	b.n	8007c1a <imagesss+0x2d2>
 8007e06:	4b7e      	ldr	r3, [pc, #504]	; (8008000 <imagesss+0x6b8>)
 8007e08:	e707      	b.n	8007c1a <imagesss+0x2d2>
 8007e0a:	4b7e      	ldr	r3, [pc, #504]	; (8008004 <imagesss+0x6bc>)
 8007e0c:	e705      	b.n	8007c1a <imagesss+0x2d2>
 8007e0e:	4b7e      	ldr	r3, [pc, #504]	; (8008008 <imagesss+0x6c0>)
 8007e10:	e703      	b.n	8007c1a <imagesss+0x2d2>
 8007e12:	bf00      	nop
 8007e14:	08009933 	.word	0x08009933
 8007e18:	0800993c 	.word	0x0800993c
 8007e1c:	08009945 	.word	0x08009945
 8007e20:	0800994e 	.word	0x0800994e
 8007e24:	08009957 	.word	0x08009957
 8007e28:	08009960 	.word	0x08009960
 8007e2c:	08009969 	.word	0x08009969
 8007e30:	08009972 	.word	0x08009972
 8007e34:	0800997b 	.word	0x0800997b
 8007e38:	08009984 	.word	0x08009984
 8007e3c:	0800998d 	.word	0x0800998d
 8007e40:	08009996 	.word	0x08009996
 8007e44:	0800999f 	.word	0x0800999f
 8007e48:	080099a8 	.word	0x080099a8
 8007e4c:	080099b1 	.word	0x080099b1
 8007e50:	080099ba 	.word	0x080099ba
 8007e54:	080099c3 	.word	0x080099c3
 8007e58:	080099cc 	.word	0x080099cc
 8007e5c:	080099d5 	.word	0x080099d5
 8007e60:	080099de 	.word	0x080099de
 8007e64:	080099e7 	.word	0x080099e7
 8007e68:	080099f0 	.word	0x080099f0
 8007e6c:	080099f9 	.word	0x080099f9
 8007e70:	08009a02 	.word	0x08009a02
 8007e74:	08009a0b 	.word	0x08009a0b
 8007e78:	08009a14 	.word	0x08009a14
 8007e7c:	08009a1d 	.word	0x08009a1d
 8007e80:	08009a26 	.word	0x08009a26
 8007e84:	08009a2f 	.word	0x08009a2f
 8007e88:	08009a38 	.word	0x08009a38
 8007e8c:	08009a41 	.word	0x08009a41
 8007e90:	08009a4a 	.word	0x08009a4a
 8007e94:	08009a53 	.word	0x08009a53
 8007e98:	08009a5c 	.word	0x08009a5c
 8007e9c:	08009a65 	.word	0x08009a65
 8007ea0:	08009a6e 	.word	0x08009a6e
 8007ea4:	08009a77 	.word	0x08009a77
 8007ea8:	08009a80 	.word	0x08009a80
 8007eac:	08009a89 	.word	0x08009a89
 8007eb0:	08009a92 	.word	0x08009a92
 8007eb4:	08009a9b 	.word	0x08009a9b
 8007eb8:	08009aa4 	.word	0x08009aa4
 8007ebc:	08009aad 	.word	0x08009aad
 8007ec0:	08009ab6 	.word	0x08009ab6
 8007ec4:	08009abf 	.word	0x08009abf
 8007ec8:	08009ac8 	.word	0x08009ac8
 8007ecc:	08009ad1 	.word	0x08009ad1
 8007ed0:	08009ada 	.word	0x08009ada
 8007ed4:	08009ae3 	.word	0x08009ae3
 8007ed8:	08009aec 	.word	0x08009aec
 8007edc:	08009af5 	.word	0x08009af5
 8007ee0:	08009afe 	.word	0x08009afe
 8007ee4:	08009b07 	.word	0x08009b07
 8007ee8:	08009b10 	.word	0x08009b10
 8007eec:	08009b19 	.word	0x08009b19
 8007ef0:	08009b22 	.word	0x08009b22
 8007ef4:	08009b2b 	.word	0x08009b2b
 8007ef8:	08009b34 	.word	0x08009b34
 8007efc:	08009b3d 	.word	0x08009b3d
 8007f00:	08009b46 	.word	0x08009b46
 8007f04:	08009b4f 	.word	0x08009b4f
 8007f08:	08009b58 	.word	0x08009b58
 8007f0c:	08009b61 	.word	0x08009b61
 8007f10:	08009b6a 	.word	0x08009b6a
 8007f14:	08009b73 	.word	0x08009b73
 8007f18:	08009b7c 	.word	0x08009b7c
 8007f1c:	08009b85 	.word	0x08009b85
 8007f20:	08009b8e 	.word	0x08009b8e
 8007f24:	08009b97 	.word	0x08009b97
 8007f28:	08009ba0 	.word	0x08009ba0
 8007f2c:	08009ba9 	.word	0x08009ba9
 8007f30:	08009bb2 	.word	0x08009bb2
 8007f34:	08009bbb 	.word	0x08009bbb
 8007f38:	08009bc4 	.word	0x08009bc4
 8007f3c:	08009bcd 	.word	0x08009bcd
 8007f40:	08009bd6 	.word	0x08009bd6
 8007f44:	08009bdf 	.word	0x08009bdf
 8007f48:	08009be8 	.word	0x08009be8
 8007f4c:	08009bf1 	.word	0x08009bf1
 8007f50:	08009bfa 	.word	0x08009bfa
 8007f54:	08009c03 	.word	0x08009c03
 8007f58:	08009c0c 	.word	0x08009c0c
 8007f5c:	08009c15 	.word	0x08009c15
 8007f60:	08009c1e 	.word	0x08009c1e
 8007f64:	08009c27 	.word	0x08009c27
 8007f68:	08009c30 	.word	0x08009c30
 8007f6c:	08009c39 	.word	0x08009c39
 8007f70:	08009c42 	.word	0x08009c42
 8007f74:	08009c4b 	.word	0x08009c4b
 8007f78:	08009c54 	.word	0x08009c54
 8007f7c:	08009c5d 	.word	0x08009c5d
 8007f80:	08009c66 	.word	0x08009c66
 8007f84:	08009c6f 	.word	0x08009c6f
 8007f88:	08009c78 	.word	0x08009c78
 8007f8c:	08009c81 	.word	0x08009c81
 8007f90:	08009c8a 	.word	0x08009c8a
 8007f94:	08009c93 	.word	0x08009c93
 8007f98:	08009c9c 	.word	0x08009c9c
 8007f9c:	08009ca5 	.word	0x08009ca5
 8007fa0:	08009cae 	.word	0x08009cae
 8007fa4:	08009cb7 	.word	0x08009cb7
 8007fa8:	08009cc0 	.word	0x08009cc0
 8007fac:	08009cc9 	.word	0x08009cc9
 8007fb0:	08009cd2 	.word	0x08009cd2
 8007fb4:	08009cdb 	.word	0x08009cdb
 8007fb8:	08009ce4 	.word	0x08009ce4
 8007fbc:	08009ced 	.word	0x08009ced
 8007fc0:	08009cf6 	.word	0x08009cf6
 8007fc4:	08009cff 	.word	0x08009cff
 8007fc8:	08009d08 	.word	0x08009d08
 8007fcc:	08009d11 	.word	0x08009d11
 8007fd0:	08009d1a 	.word	0x08009d1a
 8007fd4:	08009d23 	.word	0x08009d23
 8007fd8:	08009d2c 	.word	0x08009d2c
 8007fdc:	08009d35 	.word	0x08009d35
 8007fe0:	08009d3e 	.word	0x08009d3e
 8007fe4:	08009d47 	.word	0x08009d47
 8007fe8:	08009d50 	.word	0x08009d50
 8007fec:	08009d59 	.word	0x08009d59
 8007ff0:	08009d62 	.word	0x08009d62
 8007ff4:	08009d6b 	.word	0x08009d6b
 8007ff8:	08009d74 	.word	0x08009d74
 8007ffc:	08009d7d 	.word	0x08009d7d
 8008000:	08009d86 	.word	0x08009d86
 8008004:	08009d8f 	.word	0x08009d8f
 8008008:	08009d98 	.word	0x08009d98
 800800c:	4b7e      	ldr	r3, [pc, #504]	; (8008208 <imagesss+0x8c0>)
 800800e:	e604      	b.n	8007c1a <imagesss+0x2d2>
 8008010:	4b7e      	ldr	r3, [pc, #504]	; (800820c <imagesss+0x8c4>)
 8008012:	e602      	b.n	8007c1a <imagesss+0x2d2>
 8008014:	4b7e      	ldr	r3, [pc, #504]	; (8008210 <imagesss+0x8c8>)
 8008016:	e600      	b.n	8007c1a <imagesss+0x2d2>
 8008018:	4b7e      	ldr	r3, [pc, #504]	; (8008214 <imagesss+0x8cc>)
 800801a:	e5fe      	b.n	8007c1a <imagesss+0x2d2>
 800801c:	4b7e      	ldr	r3, [pc, #504]	; (8008218 <imagesss+0x8d0>)
 800801e:	e5fc      	b.n	8007c1a <imagesss+0x2d2>
 8008020:	4b7e      	ldr	r3, [pc, #504]	; (800821c <imagesss+0x8d4>)
 8008022:	e5fa      	b.n	8007c1a <imagesss+0x2d2>
 8008024:	4b7e      	ldr	r3, [pc, #504]	; (8008220 <imagesss+0x8d8>)
 8008026:	e5f8      	b.n	8007c1a <imagesss+0x2d2>
 8008028:	4b7e      	ldr	r3, [pc, #504]	; (8008224 <imagesss+0x8dc>)
 800802a:	e5f6      	b.n	8007c1a <imagesss+0x2d2>
 800802c:	4b7e      	ldr	r3, [pc, #504]	; (8008228 <imagesss+0x8e0>)
 800802e:	e5f4      	b.n	8007c1a <imagesss+0x2d2>
 8008030:	4b7e      	ldr	r3, [pc, #504]	; (800822c <imagesss+0x8e4>)
 8008032:	e5f2      	b.n	8007c1a <imagesss+0x2d2>
 8008034:	4b7e      	ldr	r3, [pc, #504]	; (8008230 <imagesss+0x8e8>)
 8008036:	e5f0      	b.n	8007c1a <imagesss+0x2d2>
 8008038:	4b7e      	ldr	r3, [pc, #504]	; (8008234 <imagesss+0x8ec>)
 800803a:	e5ee      	b.n	8007c1a <imagesss+0x2d2>
 800803c:	4b7e      	ldr	r3, [pc, #504]	; (8008238 <imagesss+0x8f0>)
 800803e:	e5ec      	b.n	8007c1a <imagesss+0x2d2>
 8008040:	4b7e      	ldr	r3, [pc, #504]	; (800823c <imagesss+0x8f4>)
 8008042:	e5ea      	b.n	8007c1a <imagesss+0x2d2>
 8008044:	4b7e      	ldr	r3, [pc, #504]	; (8008240 <imagesss+0x8f8>)
 8008046:	e5e8      	b.n	8007c1a <imagesss+0x2d2>
 8008048:	4b7e      	ldr	r3, [pc, #504]	; (8008244 <imagesss+0x8fc>)
 800804a:	e5e6      	b.n	8007c1a <imagesss+0x2d2>
 800804c:	4b7e      	ldr	r3, [pc, #504]	; (8008248 <imagesss+0x900>)
 800804e:	e5e4      	b.n	8007c1a <imagesss+0x2d2>
 8008050:	4b7e      	ldr	r3, [pc, #504]	; (800824c <imagesss+0x904>)
 8008052:	e5e2      	b.n	8007c1a <imagesss+0x2d2>
 8008054:	4b7e      	ldr	r3, [pc, #504]	; (8008250 <imagesss+0x908>)
 8008056:	e5e0      	b.n	8007c1a <imagesss+0x2d2>
 8008058:	4b7e      	ldr	r3, [pc, #504]	; (8008254 <imagesss+0x90c>)
 800805a:	e5de      	b.n	8007c1a <imagesss+0x2d2>
 800805c:	4b7e      	ldr	r3, [pc, #504]	; (8008258 <imagesss+0x910>)
 800805e:	e5dc      	b.n	8007c1a <imagesss+0x2d2>
 8008060:	4b7e      	ldr	r3, [pc, #504]	; (800825c <imagesss+0x914>)
 8008062:	e5da      	b.n	8007c1a <imagesss+0x2d2>
 8008064:	4b7e      	ldr	r3, [pc, #504]	; (8008260 <imagesss+0x918>)
 8008066:	e5d8      	b.n	8007c1a <imagesss+0x2d2>
 8008068:	4b7e      	ldr	r3, [pc, #504]	; (8008264 <imagesss+0x91c>)
 800806a:	e5d6      	b.n	8007c1a <imagesss+0x2d2>
 800806c:	4b7e      	ldr	r3, [pc, #504]	; (8008268 <imagesss+0x920>)
 800806e:	e5d4      	b.n	8007c1a <imagesss+0x2d2>
 8008070:	4b7e      	ldr	r3, [pc, #504]	; (800826c <imagesss+0x924>)
 8008072:	e5d2      	b.n	8007c1a <imagesss+0x2d2>
 8008074:	4b7e      	ldr	r3, [pc, #504]	; (8008270 <imagesss+0x928>)
 8008076:	e5d0      	b.n	8007c1a <imagesss+0x2d2>
 8008078:	4b7e      	ldr	r3, [pc, #504]	; (8008274 <imagesss+0x92c>)
 800807a:	e5ce      	b.n	8007c1a <imagesss+0x2d2>
 800807c:	4b7e      	ldr	r3, [pc, #504]	; (8008278 <imagesss+0x930>)
 800807e:	e5cc      	b.n	8007c1a <imagesss+0x2d2>
 8008080:	4b7e      	ldr	r3, [pc, #504]	; (800827c <imagesss+0x934>)
 8008082:	e5ca      	b.n	8007c1a <imagesss+0x2d2>
 8008084:	4b7e      	ldr	r3, [pc, #504]	; (8008280 <imagesss+0x938>)
 8008086:	e5c8      	b.n	8007c1a <imagesss+0x2d2>
 8008088:	4b7e      	ldr	r3, [pc, #504]	; (8008284 <imagesss+0x93c>)
 800808a:	e5c6      	b.n	8007c1a <imagesss+0x2d2>
 800808c:	4b7e      	ldr	r3, [pc, #504]	; (8008288 <imagesss+0x940>)
 800808e:	e5c4      	b.n	8007c1a <imagesss+0x2d2>
 8008090:	4b7e      	ldr	r3, [pc, #504]	; (800828c <imagesss+0x944>)
 8008092:	e5c2      	b.n	8007c1a <imagesss+0x2d2>
 8008094:	4b7e      	ldr	r3, [pc, #504]	; (8008290 <imagesss+0x948>)
 8008096:	e5c0      	b.n	8007c1a <imagesss+0x2d2>
 8008098:	4b7e      	ldr	r3, [pc, #504]	; (8008294 <imagesss+0x94c>)
 800809a:	e5be      	b.n	8007c1a <imagesss+0x2d2>
 800809c:	4b7e      	ldr	r3, [pc, #504]	; (8008298 <imagesss+0x950>)
 800809e:	e5bc      	b.n	8007c1a <imagesss+0x2d2>
 80080a0:	4b7e      	ldr	r3, [pc, #504]	; (800829c <imagesss+0x954>)
 80080a2:	e5ba      	b.n	8007c1a <imagesss+0x2d2>
 80080a4:	4b7e      	ldr	r3, [pc, #504]	; (80082a0 <imagesss+0x958>)
 80080a6:	e5b8      	b.n	8007c1a <imagesss+0x2d2>
 80080a8:	4b7e      	ldr	r3, [pc, #504]	; (80082a4 <imagesss+0x95c>)
 80080aa:	e5b6      	b.n	8007c1a <imagesss+0x2d2>
 80080ac:	4b7e      	ldr	r3, [pc, #504]	; (80082a8 <imagesss+0x960>)
 80080ae:	e5b4      	b.n	8007c1a <imagesss+0x2d2>
 80080b0:	4b7e      	ldr	r3, [pc, #504]	; (80082ac <imagesss+0x964>)
 80080b2:	e5b2      	b.n	8007c1a <imagesss+0x2d2>
 80080b4:	4b7e      	ldr	r3, [pc, #504]	; (80082b0 <imagesss+0x968>)
 80080b6:	e5b0      	b.n	8007c1a <imagesss+0x2d2>
 80080b8:	4b7e      	ldr	r3, [pc, #504]	; (80082b4 <imagesss+0x96c>)
 80080ba:	e5ae      	b.n	8007c1a <imagesss+0x2d2>
 80080bc:	4b7e      	ldr	r3, [pc, #504]	; (80082b8 <imagesss+0x970>)
 80080be:	e5ac      	b.n	8007c1a <imagesss+0x2d2>
 80080c0:	4b7e      	ldr	r3, [pc, #504]	; (80082bc <imagesss+0x974>)
 80080c2:	e5aa      	b.n	8007c1a <imagesss+0x2d2>
 80080c4:	4b7e      	ldr	r3, [pc, #504]	; (80082c0 <imagesss+0x978>)
 80080c6:	e5a8      	b.n	8007c1a <imagesss+0x2d2>
 80080c8:	4b7e      	ldr	r3, [pc, #504]	; (80082c4 <imagesss+0x97c>)
 80080ca:	e5a6      	b.n	8007c1a <imagesss+0x2d2>
 80080cc:	4b7e      	ldr	r3, [pc, #504]	; (80082c8 <imagesss+0x980>)
 80080ce:	e5a4      	b.n	8007c1a <imagesss+0x2d2>
 80080d0:	4b7e      	ldr	r3, [pc, #504]	; (80082cc <imagesss+0x984>)
 80080d2:	e5a2      	b.n	8007c1a <imagesss+0x2d2>
 80080d4:	4b7e      	ldr	r3, [pc, #504]	; (80082d0 <imagesss+0x988>)
 80080d6:	e5a0      	b.n	8007c1a <imagesss+0x2d2>
 80080d8:	4b7e      	ldr	r3, [pc, #504]	; (80082d4 <imagesss+0x98c>)
 80080da:	e59e      	b.n	8007c1a <imagesss+0x2d2>
 80080dc:	4b7e      	ldr	r3, [pc, #504]	; (80082d8 <imagesss+0x990>)
 80080de:	e59c      	b.n	8007c1a <imagesss+0x2d2>
 80080e0:	4b7e      	ldr	r3, [pc, #504]	; (80082dc <imagesss+0x994>)
 80080e2:	e59a      	b.n	8007c1a <imagesss+0x2d2>
 80080e4:	4b7e      	ldr	r3, [pc, #504]	; (80082e0 <imagesss+0x998>)
 80080e6:	e598      	b.n	8007c1a <imagesss+0x2d2>
 80080e8:	4b7e      	ldr	r3, [pc, #504]	; (80082e4 <imagesss+0x99c>)
 80080ea:	e596      	b.n	8007c1a <imagesss+0x2d2>
 80080ec:	4b7e      	ldr	r3, [pc, #504]	; (80082e8 <imagesss+0x9a0>)
 80080ee:	e594      	b.n	8007c1a <imagesss+0x2d2>
 80080f0:	4b7e      	ldr	r3, [pc, #504]	; (80082ec <imagesss+0x9a4>)
 80080f2:	e592      	b.n	8007c1a <imagesss+0x2d2>
 80080f4:	4b7e      	ldr	r3, [pc, #504]	; (80082f0 <imagesss+0x9a8>)
 80080f6:	e590      	b.n	8007c1a <imagesss+0x2d2>
 80080f8:	4b7e      	ldr	r3, [pc, #504]	; (80082f4 <imagesss+0x9ac>)
 80080fa:	e58e      	b.n	8007c1a <imagesss+0x2d2>
 80080fc:	4b7e      	ldr	r3, [pc, #504]	; (80082f8 <imagesss+0x9b0>)
 80080fe:	e58c      	b.n	8007c1a <imagesss+0x2d2>
 8008100:	4b7e      	ldr	r3, [pc, #504]	; (80082fc <imagesss+0x9b4>)
 8008102:	e58a      	b.n	8007c1a <imagesss+0x2d2>
 8008104:	4b7e      	ldr	r3, [pc, #504]	; (8008300 <imagesss+0x9b8>)
 8008106:	e588      	b.n	8007c1a <imagesss+0x2d2>
 8008108:	4b7e      	ldr	r3, [pc, #504]	; (8008304 <imagesss+0x9bc>)
 800810a:	e586      	b.n	8007c1a <imagesss+0x2d2>
 800810c:	4b7e      	ldr	r3, [pc, #504]	; (8008308 <imagesss+0x9c0>)
 800810e:	e584      	b.n	8007c1a <imagesss+0x2d2>
 8008110:	4b7e      	ldr	r3, [pc, #504]	; (800830c <imagesss+0x9c4>)
 8008112:	e582      	b.n	8007c1a <imagesss+0x2d2>
 8008114:	4b7e      	ldr	r3, [pc, #504]	; (8008310 <imagesss+0x9c8>)
 8008116:	e580      	b.n	8007c1a <imagesss+0x2d2>
 8008118:	4b7e      	ldr	r3, [pc, #504]	; (8008314 <imagesss+0x9cc>)
 800811a:	e57e      	b.n	8007c1a <imagesss+0x2d2>
 800811c:	4b7e      	ldr	r3, [pc, #504]	; (8008318 <imagesss+0x9d0>)
 800811e:	e57c      	b.n	8007c1a <imagesss+0x2d2>
 8008120:	4b7e      	ldr	r3, [pc, #504]	; (800831c <imagesss+0x9d4>)
 8008122:	e57a      	b.n	8007c1a <imagesss+0x2d2>
 8008124:	4b7e      	ldr	r3, [pc, #504]	; (8008320 <imagesss+0x9d8>)
 8008126:	e578      	b.n	8007c1a <imagesss+0x2d2>
 8008128:	4b7e      	ldr	r3, [pc, #504]	; (8008324 <imagesss+0x9dc>)
 800812a:	e576      	b.n	8007c1a <imagesss+0x2d2>
 800812c:	4b7e      	ldr	r3, [pc, #504]	; (8008328 <imagesss+0x9e0>)
 800812e:	e574      	b.n	8007c1a <imagesss+0x2d2>
 8008130:	4b7e      	ldr	r3, [pc, #504]	; (800832c <imagesss+0x9e4>)
 8008132:	e572      	b.n	8007c1a <imagesss+0x2d2>
 8008134:	4b7e      	ldr	r3, [pc, #504]	; (8008330 <imagesss+0x9e8>)
 8008136:	e570      	b.n	8007c1a <imagesss+0x2d2>
 8008138:	4b7e      	ldr	r3, [pc, #504]	; (8008334 <imagesss+0x9ec>)
 800813a:	e56e      	b.n	8007c1a <imagesss+0x2d2>
 800813c:	4b7e      	ldr	r3, [pc, #504]	; (8008338 <imagesss+0x9f0>)
 800813e:	e56c      	b.n	8007c1a <imagesss+0x2d2>
 8008140:	4b7e      	ldr	r3, [pc, #504]	; (800833c <imagesss+0x9f4>)
 8008142:	e56a      	b.n	8007c1a <imagesss+0x2d2>
 8008144:	4b7e      	ldr	r3, [pc, #504]	; (8008340 <imagesss+0x9f8>)
 8008146:	e568      	b.n	8007c1a <imagesss+0x2d2>
 8008148:	4b7e      	ldr	r3, [pc, #504]	; (8008344 <imagesss+0x9fc>)
 800814a:	e566      	b.n	8007c1a <imagesss+0x2d2>
 800814c:	4b7e      	ldr	r3, [pc, #504]	; (8008348 <imagesss+0xa00>)
 800814e:	e564      	b.n	8007c1a <imagesss+0x2d2>
 8008150:	4b7e      	ldr	r3, [pc, #504]	; (800834c <imagesss+0xa04>)
 8008152:	e562      	b.n	8007c1a <imagesss+0x2d2>
 8008154:	4b7e      	ldr	r3, [pc, #504]	; (8008350 <imagesss+0xa08>)
 8008156:	e560      	b.n	8007c1a <imagesss+0x2d2>
 8008158:	4b7e      	ldr	r3, [pc, #504]	; (8008354 <imagesss+0xa0c>)
 800815a:	e55e      	b.n	8007c1a <imagesss+0x2d2>
 800815c:	4b7e      	ldr	r3, [pc, #504]	; (8008358 <imagesss+0xa10>)
 800815e:	e55c      	b.n	8007c1a <imagesss+0x2d2>
 8008160:	4b7e      	ldr	r3, [pc, #504]	; (800835c <imagesss+0xa14>)
 8008162:	e55a      	b.n	8007c1a <imagesss+0x2d2>
 8008164:	4b7e      	ldr	r3, [pc, #504]	; (8008360 <imagesss+0xa18>)
 8008166:	e558      	b.n	8007c1a <imagesss+0x2d2>
 8008168:	4b7e      	ldr	r3, [pc, #504]	; (8008364 <imagesss+0xa1c>)
 800816a:	e556      	b.n	8007c1a <imagesss+0x2d2>
 800816c:	4b7e      	ldr	r3, [pc, #504]	; (8008368 <imagesss+0xa20>)
 800816e:	e554      	b.n	8007c1a <imagesss+0x2d2>
 8008170:	4b7e      	ldr	r3, [pc, #504]	; (800836c <imagesss+0xa24>)
 8008172:	e552      	b.n	8007c1a <imagesss+0x2d2>
 8008174:	4b7e      	ldr	r3, [pc, #504]	; (8008370 <imagesss+0xa28>)
 8008176:	e550      	b.n	8007c1a <imagesss+0x2d2>
 8008178:	4b7e      	ldr	r3, [pc, #504]	; (8008374 <imagesss+0xa2c>)
 800817a:	e54e      	b.n	8007c1a <imagesss+0x2d2>
 800817c:	4b7e      	ldr	r3, [pc, #504]	; (8008378 <imagesss+0xa30>)
 800817e:	e54c      	b.n	8007c1a <imagesss+0x2d2>
 8008180:	4b7e      	ldr	r3, [pc, #504]	; (800837c <imagesss+0xa34>)
 8008182:	e54a      	b.n	8007c1a <imagesss+0x2d2>
 8008184:	4b7e      	ldr	r3, [pc, #504]	; (8008380 <imagesss+0xa38>)
 8008186:	e548      	b.n	8007c1a <imagesss+0x2d2>
 8008188:	4b7e      	ldr	r3, [pc, #504]	; (8008384 <imagesss+0xa3c>)
 800818a:	e546      	b.n	8007c1a <imagesss+0x2d2>
 800818c:	4b7e      	ldr	r3, [pc, #504]	; (8008388 <imagesss+0xa40>)
 800818e:	e544      	b.n	8007c1a <imagesss+0x2d2>
 8008190:	4b7e      	ldr	r3, [pc, #504]	; (800838c <imagesss+0xa44>)
 8008192:	e542      	b.n	8007c1a <imagesss+0x2d2>
 8008194:	4b7e      	ldr	r3, [pc, #504]	; (8008390 <imagesss+0xa48>)
 8008196:	e540      	b.n	8007c1a <imagesss+0x2d2>
 8008198:	4b7e      	ldr	r3, [pc, #504]	; (8008394 <imagesss+0xa4c>)
 800819a:	e53e      	b.n	8007c1a <imagesss+0x2d2>
 800819c:	4b7e      	ldr	r3, [pc, #504]	; (8008398 <imagesss+0xa50>)
 800819e:	e53c      	b.n	8007c1a <imagesss+0x2d2>
 80081a0:	4b7e      	ldr	r3, [pc, #504]	; (800839c <imagesss+0xa54>)
 80081a2:	e53a      	b.n	8007c1a <imagesss+0x2d2>
 80081a4:	4b7e      	ldr	r3, [pc, #504]	; (80083a0 <imagesss+0xa58>)
 80081a6:	e538      	b.n	8007c1a <imagesss+0x2d2>
 80081a8:	4b7e      	ldr	r3, [pc, #504]	; (80083a4 <imagesss+0xa5c>)
 80081aa:	e536      	b.n	8007c1a <imagesss+0x2d2>
 80081ac:	4b7e      	ldr	r3, [pc, #504]	; (80083a8 <imagesss+0xa60>)
 80081ae:	e534      	b.n	8007c1a <imagesss+0x2d2>
 80081b0:	4b7e      	ldr	r3, [pc, #504]	; (80083ac <imagesss+0xa64>)
 80081b2:	e532      	b.n	8007c1a <imagesss+0x2d2>
 80081b4:	4b7e      	ldr	r3, [pc, #504]	; (80083b0 <imagesss+0xa68>)
 80081b6:	e530      	b.n	8007c1a <imagesss+0x2d2>
 80081b8:	4b7e      	ldr	r3, [pc, #504]	; (80083b4 <imagesss+0xa6c>)
 80081ba:	e52e      	b.n	8007c1a <imagesss+0x2d2>
 80081bc:	4b7e      	ldr	r3, [pc, #504]	; (80083b8 <imagesss+0xa70>)
 80081be:	e52c      	b.n	8007c1a <imagesss+0x2d2>
 80081c0:	4b7e      	ldr	r3, [pc, #504]	; (80083bc <imagesss+0xa74>)
 80081c2:	e52a      	b.n	8007c1a <imagesss+0x2d2>
 80081c4:	4b7e      	ldr	r3, [pc, #504]	; (80083c0 <imagesss+0xa78>)
 80081c6:	e528      	b.n	8007c1a <imagesss+0x2d2>
 80081c8:	4b7e      	ldr	r3, [pc, #504]	; (80083c4 <imagesss+0xa7c>)
 80081ca:	e526      	b.n	8007c1a <imagesss+0x2d2>
 80081cc:	4b7e      	ldr	r3, [pc, #504]	; (80083c8 <imagesss+0xa80>)
 80081ce:	e524      	b.n	8007c1a <imagesss+0x2d2>
 80081d0:	4b7e      	ldr	r3, [pc, #504]	; (80083cc <imagesss+0xa84>)
 80081d2:	e522      	b.n	8007c1a <imagesss+0x2d2>
 80081d4:	4b7e      	ldr	r3, [pc, #504]	; (80083d0 <imagesss+0xa88>)
 80081d6:	e520      	b.n	8007c1a <imagesss+0x2d2>
 80081d8:	4b7e      	ldr	r3, [pc, #504]	; (80083d4 <imagesss+0xa8c>)
 80081da:	e51e      	b.n	8007c1a <imagesss+0x2d2>
 80081dc:	4b7e      	ldr	r3, [pc, #504]	; (80083d8 <imagesss+0xa90>)
 80081de:	e51c      	b.n	8007c1a <imagesss+0x2d2>
 80081e0:	4b7e      	ldr	r3, [pc, #504]	; (80083dc <imagesss+0xa94>)
 80081e2:	e51a      	b.n	8007c1a <imagesss+0x2d2>
 80081e4:	4b7e      	ldr	r3, [pc, #504]	; (80083e0 <imagesss+0xa98>)
 80081e6:	e518      	b.n	8007c1a <imagesss+0x2d2>
 80081e8:	4b7e      	ldr	r3, [pc, #504]	; (80083e4 <imagesss+0xa9c>)
 80081ea:	e516      	b.n	8007c1a <imagesss+0x2d2>
 80081ec:	4b7e      	ldr	r3, [pc, #504]	; (80083e8 <imagesss+0xaa0>)
 80081ee:	e514      	b.n	8007c1a <imagesss+0x2d2>
 80081f0:	4b7e      	ldr	r3, [pc, #504]	; (80083ec <imagesss+0xaa4>)
 80081f2:	e512      	b.n	8007c1a <imagesss+0x2d2>
 80081f4:	4b7e      	ldr	r3, [pc, #504]	; (80083f0 <imagesss+0xaa8>)
 80081f6:	e510      	b.n	8007c1a <imagesss+0x2d2>
 80081f8:	4b7e      	ldr	r3, [pc, #504]	; (80083f4 <imagesss+0xaac>)
 80081fa:	e50e      	b.n	8007c1a <imagesss+0x2d2>
 80081fc:	4b7e      	ldr	r3, [pc, #504]	; (80083f8 <imagesss+0xab0>)
 80081fe:	e50c      	b.n	8007c1a <imagesss+0x2d2>
 8008200:	4b7e      	ldr	r3, [pc, #504]	; (80083fc <imagesss+0xab4>)
 8008202:	e50a      	b.n	8007c1a <imagesss+0x2d2>
 8008204:	4b7e      	ldr	r3, [pc, #504]	; (8008400 <imagesss+0xab8>)
 8008206:	e508      	b.n	8007c1a <imagesss+0x2d2>
 8008208:	08009da1 	.word	0x08009da1
 800820c:	08009daa 	.word	0x08009daa
 8008210:	08009db3 	.word	0x08009db3
 8008214:	08009dbc 	.word	0x08009dbc
 8008218:	08009dc5 	.word	0x08009dc5
 800821c:	08009dce 	.word	0x08009dce
 8008220:	08009dd7 	.word	0x08009dd7
 8008224:	08009de0 	.word	0x08009de0
 8008228:	08009de9 	.word	0x08009de9
 800822c:	08009df2 	.word	0x08009df2
 8008230:	08009dfb 	.word	0x08009dfb
 8008234:	08009e04 	.word	0x08009e04
 8008238:	08009e0d 	.word	0x08009e0d
 800823c:	08009e16 	.word	0x08009e16
 8008240:	08009e1f 	.word	0x08009e1f
 8008244:	08009e28 	.word	0x08009e28
 8008248:	08009e31 	.word	0x08009e31
 800824c:	08009e3a 	.word	0x08009e3a
 8008250:	08009e43 	.word	0x08009e43
 8008254:	08009e4c 	.word	0x08009e4c
 8008258:	08009e55 	.word	0x08009e55
 800825c:	08009e5e 	.word	0x08009e5e
 8008260:	08009e67 	.word	0x08009e67
 8008264:	08009e70 	.word	0x08009e70
 8008268:	08009e79 	.word	0x08009e79
 800826c:	08009e82 	.word	0x08009e82
 8008270:	08009e8b 	.word	0x08009e8b
 8008274:	08009e94 	.word	0x08009e94
 8008278:	08009e9d 	.word	0x08009e9d
 800827c:	08009ea6 	.word	0x08009ea6
 8008280:	08009eaf 	.word	0x08009eaf
 8008284:	08009eb8 	.word	0x08009eb8
 8008288:	08009ec1 	.word	0x08009ec1
 800828c:	08009eca 	.word	0x08009eca
 8008290:	08009ed3 	.word	0x08009ed3
 8008294:	08009edc 	.word	0x08009edc
 8008298:	08009ee5 	.word	0x08009ee5
 800829c:	08009eee 	.word	0x08009eee
 80082a0:	08009ef7 	.word	0x08009ef7
 80082a4:	08009f00 	.word	0x08009f00
 80082a8:	08009f09 	.word	0x08009f09
 80082ac:	08009f12 	.word	0x08009f12
 80082b0:	08009f1b 	.word	0x08009f1b
 80082b4:	08009f24 	.word	0x08009f24
 80082b8:	08009f2d 	.word	0x08009f2d
 80082bc:	08009f36 	.word	0x08009f36
 80082c0:	08009f3f 	.word	0x08009f3f
 80082c4:	08009f48 	.word	0x08009f48
 80082c8:	08009f51 	.word	0x08009f51
 80082cc:	08009f5a 	.word	0x08009f5a
 80082d0:	08009f63 	.word	0x08009f63
 80082d4:	08009f6c 	.word	0x08009f6c
 80082d8:	08009f75 	.word	0x08009f75
 80082dc:	08009f7e 	.word	0x08009f7e
 80082e0:	08009f87 	.word	0x08009f87
 80082e4:	08009f90 	.word	0x08009f90
 80082e8:	08009f99 	.word	0x08009f99
 80082ec:	08009fa2 	.word	0x08009fa2
 80082f0:	08009fab 	.word	0x08009fab
 80082f4:	08009fb4 	.word	0x08009fb4
 80082f8:	08009fbd 	.word	0x08009fbd
 80082fc:	08009fc6 	.word	0x08009fc6
 8008300:	08009fcf 	.word	0x08009fcf
 8008304:	08009fd8 	.word	0x08009fd8
 8008308:	08009fe1 	.word	0x08009fe1
 800830c:	08009fea 	.word	0x08009fea
 8008310:	08009ff3 	.word	0x08009ff3
 8008314:	08009ffc 	.word	0x08009ffc
 8008318:	0800a005 	.word	0x0800a005
 800831c:	0800a00e 	.word	0x0800a00e
 8008320:	0800a017 	.word	0x0800a017
 8008324:	0800a020 	.word	0x0800a020
 8008328:	0800a029 	.word	0x0800a029
 800832c:	0800a032 	.word	0x0800a032
 8008330:	0800a03b 	.word	0x0800a03b
 8008334:	0800a044 	.word	0x0800a044
 8008338:	0800a04d 	.word	0x0800a04d
 800833c:	0800a056 	.word	0x0800a056
 8008340:	0800a05f 	.word	0x0800a05f
 8008344:	0800a068 	.word	0x0800a068
 8008348:	0800a071 	.word	0x0800a071
 800834c:	0800a07a 	.word	0x0800a07a
 8008350:	0800a083 	.word	0x0800a083
 8008354:	0800a08c 	.word	0x0800a08c
 8008358:	0800a095 	.word	0x0800a095
 800835c:	0800a09e 	.word	0x0800a09e
 8008360:	0800a0a7 	.word	0x0800a0a7
 8008364:	0800a0b0 	.word	0x0800a0b0
 8008368:	0800a0b9 	.word	0x0800a0b9
 800836c:	0800a0c2 	.word	0x0800a0c2
 8008370:	0800a0cb 	.word	0x0800a0cb
 8008374:	0800a0d4 	.word	0x0800a0d4
 8008378:	0800a0dd 	.word	0x0800a0dd
 800837c:	0800a0e6 	.word	0x0800a0e6
 8008380:	0800a0ef 	.word	0x0800a0ef
 8008384:	0800a0f8 	.word	0x0800a0f8
 8008388:	0800a101 	.word	0x0800a101
 800838c:	0800a10a 	.word	0x0800a10a
 8008390:	0800a113 	.word	0x0800a113
 8008394:	0800a11c 	.word	0x0800a11c
 8008398:	0800a125 	.word	0x0800a125
 800839c:	0800a12e 	.word	0x0800a12e
 80083a0:	0800a137 	.word	0x0800a137
 80083a4:	0800a140 	.word	0x0800a140
 80083a8:	0800a149 	.word	0x0800a149
 80083ac:	0800a152 	.word	0x0800a152
 80083b0:	0800a15b 	.word	0x0800a15b
 80083b4:	0800a164 	.word	0x0800a164
 80083b8:	0800a16d 	.word	0x0800a16d
 80083bc:	0800a176 	.word	0x0800a176
 80083c0:	0800a17f 	.word	0x0800a17f
 80083c4:	0800a188 	.word	0x0800a188
 80083c8:	0800a191 	.word	0x0800a191
 80083cc:	0800a19a 	.word	0x0800a19a
 80083d0:	0800a1a3 	.word	0x0800a1a3
 80083d4:	0800a1ac 	.word	0x0800a1ac
 80083d8:	0800a1b5 	.word	0x0800a1b5
 80083dc:	0800a1be 	.word	0x0800a1be
 80083e0:	0800a1c7 	.word	0x0800a1c7
 80083e4:	0800a1d0 	.word	0x0800a1d0
 80083e8:	0800a1d9 	.word	0x0800a1d9
 80083ec:	0800a1e2 	.word	0x0800a1e2
 80083f0:	0800a1eb 	.word	0x0800a1eb
 80083f4:	0800a1f4 	.word	0x0800a1f4
 80083f8:	0800a1fd 	.word	0x0800a1fd
 80083fc:	0800a206 	.word	0x0800a206
 8008400:	0800a20f 	.word	0x0800a20f
 8008404:	4b93      	ldr	r3, [pc, #588]	; (8008654 <imagesss+0xd0c>)
 8008406:	e408      	b.n	8007c1a <imagesss+0x2d2>
 8008408:	4b93      	ldr	r3, [pc, #588]	; (8008658 <imagesss+0xd10>)
 800840a:	e406      	b.n	8007c1a <imagesss+0x2d2>
 800840c:	4b93      	ldr	r3, [pc, #588]	; (800865c <imagesss+0xd14>)
 800840e:	e404      	b.n	8007c1a <imagesss+0x2d2>
 8008410:	4b93      	ldr	r3, [pc, #588]	; (8008660 <imagesss+0xd18>)
 8008412:	e402      	b.n	8007c1a <imagesss+0x2d2>
 8008414:	4b93      	ldr	r3, [pc, #588]	; (8008664 <imagesss+0xd1c>)
 8008416:	e400      	b.n	8007c1a <imagesss+0x2d2>
 8008418:	4b93      	ldr	r3, [pc, #588]	; (8008668 <imagesss+0xd20>)
 800841a:	f7ff bbfe 	b.w	8007c1a <imagesss+0x2d2>
 800841e:	4b93      	ldr	r3, [pc, #588]	; (800866c <imagesss+0xd24>)
 8008420:	f7ff bbfb 	b.w	8007c1a <imagesss+0x2d2>
 8008424:	4b92      	ldr	r3, [pc, #584]	; (8008670 <imagesss+0xd28>)
 8008426:	f7ff bbf8 	b.w	8007c1a <imagesss+0x2d2>
 800842a:	4b92      	ldr	r3, [pc, #584]	; (8008674 <imagesss+0xd2c>)
 800842c:	f7ff bbf5 	b.w	8007c1a <imagesss+0x2d2>
 8008430:	4b91      	ldr	r3, [pc, #580]	; (8008678 <imagesss+0xd30>)
 8008432:	f7ff bbf2 	b.w	8007c1a <imagesss+0x2d2>
 8008436:	4b91      	ldr	r3, [pc, #580]	; (800867c <imagesss+0xd34>)
 8008438:	f7ff bbef 	b.w	8007c1a <imagesss+0x2d2>
 800843c:	4b90      	ldr	r3, [pc, #576]	; (8008680 <imagesss+0xd38>)
 800843e:	f7ff bbec 	b.w	8007c1a <imagesss+0x2d2>
 8008442:	4b90      	ldr	r3, [pc, #576]	; (8008684 <imagesss+0xd3c>)
 8008444:	f7ff bbe9 	b.w	8007c1a <imagesss+0x2d2>
 8008448:	4b8f      	ldr	r3, [pc, #572]	; (8008688 <imagesss+0xd40>)
 800844a:	f7ff bbe6 	b.w	8007c1a <imagesss+0x2d2>
 800844e:	4b8f      	ldr	r3, [pc, #572]	; (800868c <imagesss+0xd44>)
 8008450:	f7ff bbe3 	b.w	8007c1a <imagesss+0x2d2>
 8008454:	4b8e      	ldr	r3, [pc, #568]	; (8008690 <imagesss+0xd48>)
 8008456:	f7ff bbe0 	b.w	8007c1a <imagesss+0x2d2>
 800845a:	4b8e      	ldr	r3, [pc, #568]	; (8008694 <imagesss+0xd4c>)
 800845c:	f7ff bbdd 	b.w	8007c1a <imagesss+0x2d2>
 8008460:	4b8d      	ldr	r3, [pc, #564]	; (8008698 <imagesss+0xd50>)
 8008462:	f7ff bbda 	b.w	8007c1a <imagesss+0x2d2>
 8008466:	4b8d      	ldr	r3, [pc, #564]	; (800869c <imagesss+0xd54>)
 8008468:	f7ff bbd7 	b.w	8007c1a <imagesss+0x2d2>
 800846c:	4b8c      	ldr	r3, [pc, #560]	; (80086a0 <imagesss+0xd58>)
 800846e:	f7ff bbd4 	b.w	8007c1a <imagesss+0x2d2>
 8008472:	4b8c      	ldr	r3, [pc, #560]	; (80086a4 <imagesss+0xd5c>)
 8008474:	f7ff bbd1 	b.w	8007c1a <imagesss+0x2d2>
 8008478:	4b8b      	ldr	r3, [pc, #556]	; (80086a8 <imagesss+0xd60>)
 800847a:	f7ff bbce 	b.w	8007c1a <imagesss+0x2d2>
 800847e:	4b8b      	ldr	r3, [pc, #556]	; (80086ac <imagesss+0xd64>)
 8008480:	f7ff bbcb 	b.w	8007c1a <imagesss+0x2d2>
 8008484:	4b8a      	ldr	r3, [pc, #552]	; (80086b0 <imagesss+0xd68>)
 8008486:	f7ff bbc8 	b.w	8007c1a <imagesss+0x2d2>
 800848a:	4b8a      	ldr	r3, [pc, #552]	; (80086b4 <imagesss+0xd6c>)
 800848c:	f7ff bbc5 	b.w	8007c1a <imagesss+0x2d2>
 8008490:	4b89      	ldr	r3, [pc, #548]	; (80086b8 <imagesss+0xd70>)
 8008492:	f7ff bbc2 	b.w	8007c1a <imagesss+0x2d2>
 8008496:	4b89      	ldr	r3, [pc, #548]	; (80086bc <imagesss+0xd74>)
 8008498:	f7ff bbbf 	b.w	8007c1a <imagesss+0x2d2>
 800849c:	4b88      	ldr	r3, [pc, #544]	; (80086c0 <imagesss+0xd78>)
 800849e:	f7ff bbbc 	b.w	8007c1a <imagesss+0x2d2>
 80084a2:	4b88      	ldr	r3, [pc, #544]	; (80086c4 <imagesss+0xd7c>)
 80084a4:	f7ff bbb9 	b.w	8007c1a <imagesss+0x2d2>
 80084a8:	4b87      	ldr	r3, [pc, #540]	; (80086c8 <imagesss+0xd80>)
 80084aa:	f7ff bbb6 	b.w	8007c1a <imagesss+0x2d2>
 80084ae:	4b87      	ldr	r3, [pc, #540]	; (80086cc <imagesss+0xd84>)
 80084b0:	f7ff bbb3 	b.w	8007c1a <imagesss+0x2d2>
 80084b4:	4b86      	ldr	r3, [pc, #536]	; (80086d0 <imagesss+0xd88>)
 80084b6:	f7ff bbb0 	b.w	8007c1a <imagesss+0x2d2>
 80084ba:	4b86      	ldr	r3, [pc, #536]	; (80086d4 <imagesss+0xd8c>)
 80084bc:	f7ff bbad 	b.w	8007c1a <imagesss+0x2d2>
 80084c0:	4b85      	ldr	r3, [pc, #532]	; (80086d8 <imagesss+0xd90>)
 80084c2:	f7ff bbaa 	b.w	8007c1a <imagesss+0x2d2>
 80084c6:	4b85      	ldr	r3, [pc, #532]	; (80086dc <imagesss+0xd94>)
 80084c8:	f7ff bba7 	b.w	8007c1a <imagesss+0x2d2>
 80084cc:	4b84      	ldr	r3, [pc, #528]	; (80086e0 <imagesss+0xd98>)
 80084ce:	f7ff bba4 	b.w	8007c1a <imagesss+0x2d2>
 80084d2:	4b84      	ldr	r3, [pc, #528]	; (80086e4 <imagesss+0xd9c>)
 80084d4:	f7ff bba1 	b.w	8007c1a <imagesss+0x2d2>
 80084d8:	4b83      	ldr	r3, [pc, #524]	; (80086e8 <imagesss+0xda0>)
 80084da:	f7ff bb9e 	b.w	8007c1a <imagesss+0x2d2>
 80084de:	4b83      	ldr	r3, [pc, #524]	; (80086ec <imagesss+0xda4>)
 80084e0:	f7ff bb9b 	b.w	8007c1a <imagesss+0x2d2>
 80084e4:	4b82      	ldr	r3, [pc, #520]	; (80086f0 <imagesss+0xda8>)
 80084e6:	f7ff bb98 	b.w	8007c1a <imagesss+0x2d2>
 80084ea:	4b82      	ldr	r3, [pc, #520]	; (80086f4 <imagesss+0xdac>)
 80084ec:	f7ff bb95 	b.w	8007c1a <imagesss+0x2d2>
 80084f0:	4b81      	ldr	r3, [pc, #516]	; (80086f8 <imagesss+0xdb0>)
 80084f2:	f7ff bb92 	b.w	8007c1a <imagesss+0x2d2>
 80084f6:	4b81      	ldr	r3, [pc, #516]	; (80086fc <imagesss+0xdb4>)
 80084f8:	f7ff bb8f 	b.w	8007c1a <imagesss+0x2d2>
 80084fc:	4b80      	ldr	r3, [pc, #512]	; (8008700 <imagesss+0xdb8>)
 80084fe:	f7ff bb8c 	b.w	8007c1a <imagesss+0x2d2>
 8008502:	4b80      	ldr	r3, [pc, #512]	; (8008704 <imagesss+0xdbc>)
 8008504:	f7ff bb89 	b.w	8007c1a <imagesss+0x2d2>
 8008508:	4b7f      	ldr	r3, [pc, #508]	; (8008708 <imagesss+0xdc0>)
 800850a:	f7ff bb86 	b.w	8007c1a <imagesss+0x2d2>
 800850e:	4b7f      	ldr	r3, [pc, #508]	; (800870c <imagesss+0xdc4>)
 8008510:	f7ff bb83 	b.w	8007c1a <imagesss+0x2d2>
 8008514:	4b7e      	ldr	r3, [pc, #504]	; (8008710 <imagesss+0xdc8>)
 8008516:	f7ff bb80 	b.w	8007c1a <imagesss+0x2d2>
 800851a:	4b7e      	ldr	r3, [pc, #504]	; (8008714 <imagesss+0xdcc>)
 800851c:	f7ff bb7d 	b.w	8007c1a <imagesss+0x2d2>
 8008520:	4b7d      	ldr	r3, [pc, #500]	; (8008718 <imagesss+0xdd0>)
 8008522:	f7ff bb7a 	b.w	8007c1a <imagesss+0x2d2>
 8008526:	4b7d      	ldr	r3, [pc, #500]	; (800871c <imagesss+0xdd4>)
 8008528:	f7ff bb77 	b.w	8007c1a <imagesss+0x2d2>
 800852c:	4b7c      	ldr	r3, [pc, #496]	; (8008720 <imagesss+0xdd8>)
 800852e:	f7ff bb74 	b.w	8007c1a <imagesss+0x2d2>
 8008532:	4b7c      	ldr	r3, [pc, #496]	; (8008724 <imagesss+0xddc>)
 8008534:	f7ff bb71 	b.w	8007c1a <imagesss+0x2d2>
 8008538:	4b7b      	ldr	r3, [pc, #492]	; (8008728 <imagesss+0xde0>)
 800853a:	f7ff bb6e 	b.w	8007c1a <imagesss+0x2d2>
 800853e:	4b7b      	ldr	r3, [pc, #492]	; (800872c <imagesss+0xde4>)
 8008540:	f7ff bb6b 	b.w	8007c1a <imagesss+0x2d2>
 8008544:	4b7a      	ldr	r3, [pc, #488]	; (8008730 <imagesss+0xde8>)
 8008546:	f7ff bb68 	b.w	8007c1a <imagesss+0x2d2>
 800854a:	4b7a      	ldr	r3, [pc, #488]	; (8008734 <imagesss+0xdec>)
 800854c:	f7ff bb65 	b.w	8007c1a <imagesss+0x2d2>
 8008550:	4b79      	ldr	r3, [pc, #484]	; (8008738 <imagesss+0xdf0>)
 8008552:	f7ff bb62 	b.w	8007c1a <imagesss+0x2d2>
 8008556:	4b79      	ldr	r3, [pc, #484]	; (800873c <imagesss+0xdf4>)
 8008558:	f7ff bb5f 	b.w	8007c1a <imagesss+0x2d2>
 800855c:	4b78      	ldr	r3, [pc, #480]	; (8008740 <imagesss+0xdf8>)
 800855e:	f7ff bb5c 	b.w	8007c1a <imagesss+0x2d2>
 8008562:	4b78      	ldr	r3, [pc, #480]	; (8008744 <imagesss+0xdfc>)
 8008564:	f7ff bb59 	b.w	8007c1a <imagesss+0x2d2>
 8008568:	4b77      	ldr	r3, [pc, #476]	; (8008748 <imagesss+0xe00>)
 800856a:	f7ff bb56 	b.w	8007c1a <imagesss+0x2d2>
 800856e:	4b77      	ldr	r3, [pc, #476]	; (800874c <imagesss+0xe04>)
 8008570:	f7ff bb53 	b.w	8007c1a <imagesss+0x2d2>
 8008574:	4b76      	ldr	r3, [pc, #472]	; (8008750 <imagesss+0xe08>)
 8008576:	f7ff bb50 	b.w	8007c1a <imagesss+0x2d2>
 800857a:	4b76      	ldr	r3, [pc, #472]	; (8008754 <imagesss+0xe0c>)
 800857c:	f7ff bb4d 	b.w	8007c1a <imagesss+0x2d2>
 8008580:	4b75      	ldr	r3, [pc, #468]	; (8008758 <imagesss+0xe10>)
 8008582:	f7ff bb4a 	b.w	8007c1a <imagesss+0x2d2>
 8008586:	4b75      	ldr	r3, [pc, #468]	; (800875c <imagesss+0xe14>)
 8008588:	f7ff bb47 	b.w	8007c1a <imagesss+0x2d2>
 800858c:	4b74      	ldr	r3, [pc, #464]	; (8008760 <imagesss+0xe18>)
 800858e:	f7ff bb44 	b.w	8007c1a <imagesss+0x2d2>
 8008592:	4b74      	ldr	r3, [pc, #464]	; (8008764 <imagesss+0xe1c>)
 8008594:	f7ff bb41 	b.w	8007c1a <imagesss+0x2d2>
 8008598:	4b73      	ldr	r3, [pc, #460]	; (8008768 <imagesss+0xe20>)
 800859a:	f7ff bb3e 	b.w	8007c1a <imagesss+0x2d2>
 800859e:	4b73      	ldr	r3, [pc, #460]	; (800876c <imagesss+0xe24>)
 80085a0:	f7ff bb3b 	b.w	8007c1a <imagesss+0x2d2>
 80085a4:	4b72      	ldr	r3, [pc, #456]	; (8008770 <imagesss+0xe28>)
 80085a6:	f7ff bb38 	b.w	8007c1a <imagesss+0x2d2>
 80085aa:	4b72      	ldr	r3, [pc, #456]	; (8008774 <imagesss+0xe2c>)
 80085ac:	f7ff bb35 	b.w	8007c1a <imagesss+0x2d2>
 80085b0:	4b71      	ldr	r3, [pc, #452]	; (8008778 <imagesss+0xe30>)
 80085b2:	f7ff bb32 	b.w	8007c1a <imagesss+0x2d2>
 80085b6:	4b71      	ldr	r3, [pc, #452]	; (800877c <imagesss+0xe34>)
 80085b8:	f7ff bb2f 	b.w	8007c1a <imagesss+0x2d2>
 80085bc:	4b70      	ldr	r3, [pc, #448]	; (8008780 <imagesss+0xe38>)
 80085be:	f7ff bb2c 	b.w	8007c1a <imagesss+0x2d2>
 80085c2:	4b70      	ldr	r3, [pc, #448]	; (8008784 <imagesss+0xe3c>)
 80085c4:	f7ff bb29 	b.w	8007c1a <imagesss+0x2d2>
 80085c8:	4b6f      	ldr	r3, [pc, #444]	; (8008788 <imagesss+0xe40>)
 80085ca:	f7ff bb26 	b.w	8007c1a <imagesss+0x2d2>
 80085ce:	4b6f      	ldr	r3, [pc, #444]	; (800878c <imagesss+0xe44>)
 80085d0:	f7ff bb23 	b.w	8007c1a <imagesss+0x2d2>
 80085d4:	4b6e      	ldr	r3, [pc, #440]	; (8008790 <imagesss+0xe48>)
 80085d6:	f7ff bb20 	b.w	8007c1a <imagesss+0x2d2>
 80085da:	4b6e      	ldr	r3, [pc, #440]	; (8008794 <imagesss+0xe4c>)
 80085dc:	f7ff bb1d 	b.w	8007c1a <imagesss+0x2d2>
 80085e0:	4b6d      	ldr	r3, [pc, #436]	; (8008798 <imagesss+0xe50>)
 80085e2:	f7ff bb1a 	b.w	8007c1a <imagesss+0x2d2>
 80085e6:	4b6d      	ldr	r3, [pc, #436]	; (800879c <imagesss+0xe54>)
 80085e8:	f7ff bb17 	b.w	8007c1a <imagesss+0x2d2>
 80085ec:	4b6c      	ldr	r3, [pc, #432]	; (80087a0 <imagesss+0xe58>)
 80085ee:	f7ff bb14 	b.w	8007c1a <imagesss+0x2d2>
 80085f2:	4b6c      	ldr	r3, [pc, #432]	; (80087a4 <imagesss+0xe5c>)
 80085f4:	f7ff bb11 	b.w	8007c1a <imagesss+0x2d2>
 80085f8:	4b6b      	ldr	r3, [pc, #428]	; (80087a8 <imagesss+0xe60>)
 80085fa:	f7ff bb0e 	b.w	8007c1a <imagesss+0x2d2>
 80085fe:	4b6b      	ldr	r3, [pc, #428]	; (80087ac <imagesss+0xe64>)
 8008600:	f7ff bb0b 	b.w	8007c1a <imagesss+0x2d2>
 8008604:	4b6a      	ldr	r3, [pc, #424]	; (80087b0 <imagesss+0xe68>)
 8008606:	f7ff bb08 	b.w	8007c1a <imagesss+0x2d2>
 800860a:	4b6a      	ldr	r3, [pc, #424]	; (80087b4 <imagesss+0xe6c>)
 800860c:	f7ff bb05 	b.w	8007c1a <imagesss+0x2d2>
 8008610:	4b69      	ldr	r3, [pc, #420]	; (80087b8 <imagesss+0xe70>)
 8008612:	f7ff bb02 	b.w	8007c1a <imagesss+0x2d2>
 8008616:	4b69      	ldr	r3, [pc, #420]	; (80087bc <imagesss+0xe74>)
 8008618:	f7ff baff 	b.w	8007c1a <imagesss+0x2d2>
 800861c:	4b68      	ldr	r3, [pc, #416]	; (80087c0 <imagesss+0xe78>)
 800861e:	f7ff bafc 	b.w	8007c1a <imagesss+0x2d2>
 8008622:	4b68      	ldr	r3, [pc, #416]	; (80087c4 <imagesss+0xe7c>)
 8008624:	f7ff baf9 	b.w	8007c1a <imagesss+0x2d2>
 8008628:	4b67      	ldr	r3, [pc, #412]	; (80087c8 <imagesss+0xe80>)
 800862a:	f7ff baf6 	b.w	8007c1a <imagesss+0x2d2>
 800862e:	4b67      	ldr	r3, [pc, #412]	; (80087cc <imagesss+0xe84>)
 8008630:	f7ff baf3 	b.w	8007c1a <imagesss+0x2d2>
 8008634:	4b66      	ldr	r3, [pc, #408]	; (80087d0 <imagesss+0xe88>)
 8008636:	f7ff baf0 	b.w	8007c1a <imagesss+0x2d2>
 800863a:	4b66      	ldr	r3, [pc, #408]	; (80087d4 <imagesss+0xe8c>)
 800863c:	f7ff baed 	b.w	8007c1a <imagesss+0x2d2>
 8008640:	4b65      	ldr	r3, [pc, #404]	; (80087d8 <imagesss+0xe90>)
 8008642:	f7ff baea 	b.w	8007c1a <imagesss+0x2d2>
 8008646:	4b65      	ldr	r3, [pc, #404]	; (80087dc <imagesss+0xe94>)
 8008648:	f7ff bae7 	b.w	8007c1a <imagesss+0x2d2>
 800864c:	4b64      	ldr	r3, [pc, #400]	; (80087e0 <imagesss+0xe98>)
 800864e:	f7ff bae4 	b.w	8007c1a <imagesss+0x2d2>
 8008652:	bf00      	nop
 8008654:	0800a218 	.word	0x0800a218
 8008658:	0800a221 	.word	0x0800a221
 800865c:	0800a22a 	.word	0x0800a22a
 8008660:	0800a233 	.word	0x0800a233
 8008664:	0800a23c 	.word	0x0800a23c
 8008668:	0800a245 	.word	0x0800a245
 800866c:	0800a24e 	.word	0x0800a24e
 8008670:	0800a257 	.word	0x0800a257
 8008674:	0800a260 	.word	0x0800a260
 8008678:	0800a269 	.word	0x0800a269
 800867c:	0800a272 	.word	0x0800a272
 8008680:	0800a27b 	.word	0x0800a27b
 8008684:	0800a284 	.word	0x0800a284
 8008688:	0800a28d 	.word	0x0800a28d
 800868c:	0800a296 	.word	0x0800a296
 8008690:	0800a29f 	.word	0x0800a29f
 8008694:	0800a2a8 	.word	0x0800a2a8
 8008698:	0800a2b1 	.word	0x0800a2b1
 800869c:	0800a2ba 	.word	0x0800a2ba
 80086a0:	0800a2c3 	.word	0x0800a2c3
 80086a4:	0800a2cc 	.word	0x0800a2cc
 80086a8:	0800a2d5 	.word	0x0800a2d5
 80086ac:	0800a2de 	.word	0x0800a2de
 80086b0:	0800a2e7 	.word	0x0800a2e7
 80086b4:	0800a2f0 	.word	0x0800a2f0
 80086b8:	0800a2f9 	.word	0x0800a2f9
 80086bc:	0800a302 	.word	0x0800a302
 80086c0:	0800a30b 	.word	0x0800a30b
 80086c4:	0800a314 	.word	0x0800a314
 80086c8:	0800a31d 	.word	0x0800a31d
 80086cc:	0800a326 	.word	0x0800a326
 80086d0:	0800a32f 	.word	0x0800a32f
 80086d4:	0800a338 	.word	0x0800a338
 80086d8:	0800a341 	.word	0x0800a341
 80086dc:	0800a34a 	.word	0x0800a34a
 80086e0:	0800a353 	.word	0x0800a353
 80086e4:	0800a35c 	.word	0x0800a35c
 80086e8:	0800a365 	.word	0x0800a365
 80086ec:	0800a36e 	.word	0x0800a36e
 80086f0:	0800a377 	.word	0x0800a377
 80086f4:	0800a380 	.word	0x0800a380
 80086f8:	0800a389 	.word	0x0800a389
 80086fc:	0800a392 	.word	0x0800a392
 8008700:	0800a39b 	.word	0x0800a39b
 8008704:	0800a3a4 	.word	0x0800a3a4
 8008708:	0800a3ad 	.word	0x0800a3ad
 800870c:	0800a3b6 	.word	0x0800a3b6
 8008710:	0800a3bf 	.word	0x0800a3bf
 8008714:	0800a3c8 	.word	0x0800a3c8
 8008718:	0800a3d1 	.word	0x0800a3d1
 800871c:	0800a3da 	.word	0x0800a3da
 8008720:	0800a3e3 	.word	0x0800a3e3
 8008724:	0800a3ec 	.word	0x0800a3ec
 8008728:	0800a3f5 	.word	0x0800a3f5
 800872c:	0800a3fe 	.word	0x0800a3fe
 8008730:	0800a407 	.word	0x0800a407
 8008734:	0800a410 	.word	0x0800a410
 8008738:	0800a419 	.word	0x0800a419
 800873c:	0800a422 	.word	0x0800a422
 8008740:	0800a42b 	.word	0x0800a42b
 8008744:	0800a434 	.word	0x0800a434
 8008748:	0800a43d 	.word	0x0800a43d
 800874c:	0800a446 	.word	0x0800a446
 8008750:	0800a44f 	.word	0x0800a44f
 8008754:	0800a458 	.word	0x0800a458
 8008758:	0800a461 	.word	0x0800a461
 800875c:	0800a46a 	.word	0x0800a46a
 8008760:	0800a473 	.word	0x0800a473
 8008764:	0800a47c 	.word	0x0800a47c
 8008768:	0800a485 	.word	0x0800a485
 800876c:	0800a48e 	.word	0x0800a48e
 8008770:	0800a497 	.word	0x0800a497
 8008774:	0800a4a0 	.word	0x0800a4a0
 8008778:	0800a4a9 	.word	0x0800a4a9
 800877c:	0800a4b2 	.word	0x0800a4b2
 8008780:	0800a4bb 	.word	0x0800a4bb
 8008784:	0800a4c4 	.word	0x0800a4c4
 8008788:	0800a4cd 	.word	0x0800a4cd
 800878c:	0800a4d6 	.word	0x0800a4d6
 8008790:	0800a4df 	.word	0x0800a4df
 8008794:	0800a4e8 	.word	0x0800a4e8
 8008798:	0800a4f1 	.word	0x0800a4f1
 800879c:	0800a4fa 	.word	0x0800a4fa
 80087a0:	0800a503 	.word	0x0800a503
 80087a4:	0800a50c 	.word	0x0800a50c
 80087a8:	0800a515 	.word	0x0800a515
 80087ac:	0800a51e 	.word	0x0800a51e
 80087b0:	0800a527 	.word	0x0800a527
 80087b4:	0800a530 	.word	0x0800a530
 80087b8:	0800a539 	.word	0x0800a539
 80087bc:	0800a542 	.word	0x0800a542
 80087c0:	0800a54b 	.word	0x0800a54b
 80087c4:	0800a554 	.word	0x0800a554
 80087c8:	0800a55d 	.word	0x0800a55d
 80087cc:	0800a566 	.word	0x0800a566
 80087d0:	0800a56f 	.word	0x0800a56f
 80087d4:	0800a578 	.word	0x0800a578
 80087d8:	0800a581 	.word	0x0800a581
 80087dc:	0800a58a 	.word	0x0800a58a
 80087e0:	0800a593 	.word	0x0800a593

080087e4 <cam_image>:
 80087e4:	b5f8      	push	{r3, r4, r5, r6, r7, lr}
 80087e6:	4b2b      	ldr	r3, [pc, #172]	; (8008894 <cam_image+0xb0>)
 80087e8:	781f      	ldrb	r7, [r3, #0]
 80087ea:	2f02      	cmp	r7, #2
 80087ec:	d113      	bne.n	8008816 <cam_image+0x32>
 80087ee:	4c2a      	ldr	r4, [pc, #168]	; (8008898 <cam_image+0xb4>)
 80087f0:	6820      	ldr	r0, [r4, #0]
 80087f2:	f5b0 7fb1 	cmp.w	r0, #354	; 0x162
 80087f6:	da4a      	bge.n	800888e <cam_image+0xaa>
 80087f8:	4d28      	ldr	r5, [pc, #160]	; (800889c <cam_image+0xb8>)
 80087fa:	682e      	ldr	r6, [r5, #0]
 80087fc:	b9a6      	cbnz	r6, 8008828 <cam_image+0x44>
 80087fe:	f7ff f8a3 	bl	8007948 <imagesss>
 8008802:	4c27      	ldr	r4, [pc, #156]	; (80088a0 <cam_image+0xbc>)
 8008804:	4b27      	ldr	r3, [pc, #156]	; (80088a4 <cam_image+0xc0>)
 8008806:	4601      	mov	r1, r0
 8008808:	6018      	str	r0, [r3, #0]
 800880a:	2201      	movs	r2, #1
 800880c:	4620      	mov	r0, r4
 800880e:	f7fe fd27 	bl	8007260 <f_open>
 8008812:	b108      	cbz	r0, 8008818 <cam_image+0x34>
 8008814:	602e      	str	r6, [r5, #0]
 8008816:	bdf8      	pop	{r3, r4, r5, r6, r7, pc}
 8008818:	4b23      	ldr	r3, [pc, #140]	; (80088a8 <cam_image+0xc4>)
 800881a:	68e2      	ldr	r2, [r4, #12]
 800881c:	601a      	str	r2, [r3, #0]
 800881e:	4b23      	ldr	r3, [pc, #140]	; (80088ac <cam_image+0xc8>)
 8008820:	6018      	str	r0, [r3, #0]
 8008822:	2301      	movs	r3, #1
 8008824:	602b      	str	r3, [r5, #0]
 8008826:	e7f6      	b.n	8008816 <cam_image+0x32>
 8008828:	4b21      	ldr	r3, [pc, #132]	; (80088b0 <cam_image+0xcc>)
 800882a:	781b      	ldrb	r3, [r3, #0]
 800882c:	b353      	cbz	r3, 8008884 <cam_image+0xa0>
 800882e:	4e1f      	ldr	r6, [pc, #124]	; (80088ac <cam_image+0xc8>)
 8008830:	4b1d      	ldr	r3, [pc, #116]	; (80088a8 <cam_image+0xc4>)
 8008832:	6831      	ldr	r1, [r6, #0]
 8008834:	681b      	ldr	r3, [r3, #0]
 8008836:	4299      	cmp	r1, r3
 8008838:	d10a      	bne.n	8008850 <cam_image+0x6c>
 800883a:	4819      	ldr	r0, [pc, #100]	; (80088a0 <cam_image+0xbc>)
 800883c:	f7fe ff11 	bl	8007662 <f_close>
 8008840:	2300      	movs	r3, #0
 8008842:	602b      	str	r3, [r5, #0]
 8008844:	6823      	ldr	r3, [r4, #0]
 8008846:	3301      	adds	r3, #1
 8008848:	6023      	str	r3, [r4, #0]
 800884a:	4b1a      	ldr	r3, [pc, #104]	; (80088b4 <cam_image+0xd0>)
 800884c:	701f      	strb	r7, [r3, #0]
 800884e:	e7e2      	b.n	8008816 <cam_image+0x32>
 8008850:	4b19      	ldr	r3, [pc, #100]	; (80088b8 <cam_image+0xd4>)
 8008852:	781b      	ldrb	r3, [r3, #0]
 8008854:	b1b3      	cbz	r3, 8008884 <cam_image+0xa0>
 8008856:	4c19      	ldr	r4, [pc, #100]	; (80088bc <cam_image+0xd8>)
 8008858:	4811      	ldr	r0, [pc, #68]	; (80088a0 <cam_image+0xbc>)
 800885a:	f7fe ff13 	bl	8007684 <f_lseek>
 800885e:	f44f 6200 	mov.w	r2, #2048	; 0x800
 8008862:	4917      	ldr	r1, [pc, #92]	; (80088c0 <cam_image+0xdc>)
 8008864:	480e      	ldr	r0, [pc, #56]	; (80088a0 <cam_image+0xbc>)
 8008866:	4623      	mov	r3, r4
 8008868:	f7fe fe06 	bl	8007478 <f_read>
 800886c:	6821      	ldr	r1, [r4, #0]
 800886e:	4a15      	ldr	r2, [pc, #84]	; (80088c4 <cam_image+0xe0>)
 8008870:	b101      	cbz	r1, 8008874 <cam_image+0x90>
 8008872:	b110      	cbz	r0, 800887a <cam_image+0x96>
 8008874:	2300      	movs	r3, #0
 8008876:	7013      	strb	r3, [r2, #0]
 8008878:	e7cd      	b.n	8008816 <cam_image+0x32>
 800887a:	6833      	ldr	r3, [r6, #0]
 800887c:	440b      	add	r3, r1
 800887e:	6033      	str	r3, [r6, #0]
 8008880:	2301      	movs	r3, #1
 8008882:	e7f8      	b.n	8008876 <cam_image+0x92>
 8008884:	200a      	movs	r0, #10
 8008886:	e8bd 40f8 	ldmia.w	sp!, {r3, r4, r5, r6, r7, lr}
 800888a:	f7f9 be07 	b.w	800249c <HAL_Delay>
 800888e:	2301      	movs	r3, #1
 8008890:	6023      	str	r3, [r4, #0]
 8008892:	e7c0      	b.n	8008816 <cam_image+0x32>
 8008894:	20001dfc 	.word	0x20001dfc
 8008898:	20000030 	.word	0x20000030
 800889c:	20001e00 	.word	0x20001e00
 80088a0:	20003320 	.word	0x20003320
 80088a4:	2000331c 	.word	0x2000331c
 80088a8:	20001e08 	.word	0x20001e08
 80088ac:	20001e04 	.word	0x20001e04
 80088b0:	20000035 	.word	0x20000035
 80088b4:	200027dd 	.word	0x200027dd
 80088b8:	20000034 	.word	0x20000034
 80088bc:	200027e0 	.word	0x200027e0
 80088c0:	20001e18 	.word	0x20001e18
 80088c4:	20001e0c 	.word	0x20001e0c

080088c8 <MX_USB_HOST_Init>:
 80088c8:	b508      	push	{r3, lr}
 80088ca:	2201      	movs	r2, #1
 80088cc:	490b      	ldr	r1, [pc, #44]	; (80088fc <MX_USB_HOST_Init+0x34>)
 80088ce:	480c      	ldr	r0, [pc, #48]	; (8008900 <MX_USB_HOST_Init+0x38>)
 80088d0:	f7fd f986 	bl	8005be0 <USBH_Init>
 80088d4:	b108      	cbz	r0, 80088da <MX_USB_HOST_Init+0x12>
 80088d6:	f7f9 fc87 	bl	80021e8 <Error_Handler>
 80088da:	490a      	ldr	r1, [pc, #40]	; (8008904 <MX_USB_HOST_Init+0x3c>)
 80088dc:	4808      	ldr	r0, [pc, #32]	; (8008900 <MX_USB_HOST_Init+0x38>)
 80088de:	f7fd f99e 	bl	8005c1e <USBH_RegisterClass>
 80088e2:	b108      	cbz	r0, 80088e8 <MX_USB_HOST_Init+0x20>
 80088e4:	f7f9 fc80 	bl	80021e8 <Error_Handler>
 80088e8:	4805      	ldr	r0, [pc, #20]	; (8008900 <MX_USB_HOST_Init+0x38>)
 80088ea:	f7fd f9ca 	bl	8005c82 <USBH_Start>
 80088ee:	b118      	cbz	r0, 80088f8 <MX_USB_HOST_Init+0x30>
 80088f0:	e8bd 4008 	ldmia.w	sp!, {r3, lr}
 80088f4:	f7f9 bc78 	b.w	80021e8 <Error_Handler>
 80088f8:	bd08      	pop	{r3, pc}
 80088fa:	bf00      	nop
 80088fc:	08007909 	.word	0x08007909
 8008900:	20002f4c 	.word	0x20002f4c
 8008904:	2000000c 	.word	0x2000000c

08008908 <MX_USB_HOST_Process>:
 8008908:	4801      	ldr	r0, [pc, #4]	; (8008910 <MX_USB_HOST_Process+0x8>)
 800890a:	f7fd b9c4 	b.w	8005c96 <USBH_Process>
 800890e:	bf00      	nop
 8008910:	20002f4c 	.word	0x20002f4c

08008914 <HAL_HCD_MspInit>:
 8008914:	b510      	push	{r4, lr}
 8008916:	4604      	mov	r4, r0
 8008918:	b088      	sub	sp, #32
 800891a:	2214      	movs	r2, #20
 800891c:	2100      	movs	r1, #0
 800891e:	a803      	add	r0, sp, #12
 8008920:	f000 f98c 	bl	8008c3c <memset>
 8008924:	6823      	ldr	r3, [r4, #0]
 8008926:	f1b3 4fa0 	cmp.w	r3, #1342177280	; 0x50000000
 800892a:	d13a      	bne.n	80089a2 <HAL_HCD_MspInit+0x8e>
 800892c:	4c1f      	ldr	r4, [pc, #124]	; (80089ac <HAL_HCD_MspInit+0x98>)
 800892e:	6ce3      	ldr	r3, [r4, #76]	; 0x4c
 8008930:	f043 0301 	orr.w	r3, r3, #1
 8008934:	64e3      	str	r3, [r4, #76]	; 0x4c
 8008936:	6ce3      	ldr	r3, [r4, #76]	; 0x4c
 8008938:	f003 0301 	and.w	r3, r3, #1
 800893c:	9300      	str	r3, [sp, #0]
 800893e:	9b00      	ldr	r3, [sp, #0]
 8008940:	f44f 52c0 	mov.w	r2, #6144	; 0x1800
 8008944:	2302      	movs	r3, #2
 8008946:	e9cd 2303 	strd	r2, r3, [sp, #12]
 800894a:	2103      	movs	r1, #3
 800894c:	230a      	movs	r3, #10
 800894e:	e9cd 1306 	strd	r1, r3, [sp, #24]
 8008952:	f04f 4090 	mov.w	r0, #1207959552	; 0x48000000
 8008956:	a903      	add	r1, sp, #12
 8008958:	f7f9 fe44 	bl	80025e4 <HAL_GPIO_Init>
 800895c:	6ce3      	ldr	r3, [r4, #76]	; 0x4c
 800895e:	f443 5380 	orr.w	r3, r3, #4096	; 0x1000
 8008962:	64e3      	str	r3, [r4, #76]	; 0x4c
 8008964:	6ce3      	ldr	r3, [r4, #76]	; 0x4c
 8008966:	f403 5380 	and.w	r3, r3, #4096	; 0x1000
 800896a:	9301      	str	r3, [sp, #4]
 800896c:	9b01      	ldr	r3, [sp, #4]
 800896e:	6da3      	ldr	r3, [r4, #88]	; 0x58
 8008970:	00d8      	lsls	r0, r3, #3
 8008972:	d418      	bmi.n	80089a6 <HAL_HCD_MspInit+0x92>
 8008974:	6da3      	ldr	r3, [r4, #88]	; 0x58
 8008976:	f043 5380 	orr.w	r3, r3, #268435456	; 0x10000000
 800897a:	65a3      	str	r3, [r4, #88]	; 0x58
 800897c:	6da3      	ldr	r3, [r4, #88]	; 0x58
 800897e:	f003 5380 	and.w	r3, r3, #268435456	; 0x10000000
 8008982:	9302      	str	r3, [sp, #8]
 8008984:	9b02      	ldr	r3, [sp, #8]
 8008986:	f7fa fb5f 	bl	8003048 <HAL_PWREx_EnableVddUSB>
 800898a:	6da3      	ldr	r3, [r4, #88]	; 0x58
 800898c:	f023 5380 	bic.w	r3, r3, #268435456	; 0x10000000
 8008990:	65a3      	str	r3, [r4, #88]	; 0x58
 8008992:	2200      	movs	r2, #0
 8008994:	2043      	movs	r0, #67	; 0x43
 8008996:	4611      	mov	r1, r2
 8008998:	f7f9 fda6 	bl	80024e8 <HAL_NVIC_SetPriority>
 800899c:	2043      	movs	r0, #67	; 0x43
 800899e:	f7f9 fdd7 	bl	8002550 <HAL_NVIC_EnableIRQ>
 80089a2:	b008      	add	sp, #32
 80089a4:	bd10      	pop	{r4, pc}
 80089a6:	f7fa fb4f 	bl	8003048 <HAL_PWREx_EnableVddUSB>
 80089aa:	e7f2      	b.n	8008992 <HAL_HCD_MspInit+0x7e>
 80089ac:	40021000 	.word	0x40021000

080089b0 <HAL_HCD_SOF_Callback>:
 80089b0:	f8d0 02c0 	ldr.w	r0, [r0, #704]	; 0x2c0
 80089b4:	f7fd bac0 	b.w	8005f38 <USBH_LL_IncTimer>

080089b8 <HAL_HCD_Connect_Callback>:
 80089b8:	f8d0 02c0 	ldr.w	r0, [r0, #704]	; 0x2c0
 80089bc:	f7fd bad2 	b.w	8005f64 <USBH_LL_Connect>

080089c0 <HAL_HCD_Disconnect_Callback>:
 80089c0:	f8d0 02c0 	ldr.w	r0, [r0, #704]	; 0x2c0
 80089c4:	f7fd bad8 	b.w	8005f78 <USBH_LL_Disconnect>

080089c8 <HAL_HCD_HC_NotifyURBChange_Callback>:
 80089c8:	4770      	bx	lr

080089ca <HAL_HCD_PortEnabled_Callback>:
 80089ca:	f8d0 02c0 	ldr.w	r0, [r0, #704]	; 0x2c0
 80089ce:	f7fd bac1 	b.w	8005f54 <USBH_LL_PortEnabled>

080089d2 <HAL_HCD_PortDisabled_Callback>:
 80089d2:	f8d0 02c0 	ldr.w	r0, [r0, #704]	; 0x2c0
 80089d6:	f7fd bac1 	b.w	8005f5c <USBH_LL_PortDisabled>
	...

080089dc <USBH_LL_Init>:
 80089dc:	b510      	push	{r4, lr}
 80089de:	f890 33c4 	ldrb.w	r3, [r0, #964]	; 0x3c4
 80089e2:	2b01      	cmp	r3, #1
 80089e4:	4604      	mov	r4, r0
 80089e6:	d11b      	bne.n	8008a20 <USBH_LL_Init+0x44>
 80089e8:	480e      	ldr	r0, [pc, #56]	; (8008a24 <USBH_LL_Init+0x48>)
 80089ea:	f8c4 03c8 	str.w	r0, [r4, #968]	; 0x3c8
 80089ee:	f04f 42a0 	mov.w	r2, #1342177280	; 0x50000000
 80089f2:	6002      	str	r2, [r0, #0]
 80089f4:	2208      	movs	r2, #8
 80089f6:	e9c0 2302 	strd	r2, r3, [r0, #8]
 80089fa:	2300      	movs	r3, #0
 80089fc:	2202      	movs	r2, #2
 80089fe:	f8c0 42c0 	str.w	r4, [r0, #704]	; 0x2c0
 8008a02:	6103      	str	r3, [r0, #16]
 8008a04:	e9c0 2306 	strd	r2, r3, [r0, #24]
 8008a08:	f7f9 ff16 	bl	8002838 <HAL_HCD_Init>
 8008a0c:	b108      	cbz	r0, 8008a12 <USBH_LL_Init+0x36>
 8008a0e:	f7f9 fbeb 	bl	80021e8 <Error_Handler>
 8008a12:	4804      	ldr	r0, [pc, #16]	; (8008a24 <USBH_LL_Init+0x48>)
 8008a14:	f7fa fabe 	bl	8002f94 <HAL_HCD_GetCurrentFrame>
 8008a18:	4601      	mov	r1, r0
 8008a1a:	4620      	mov	r0, r4
 8008a1c:	f7fd fa89 	bl	8005f32 <USBH_LL_SetTimer>
 8008a20:	2000      	movs	r0, #0
 8008a22:	bd10      	pop	{r4, pc}
 8008a24:	20003780 	.word	0x20003780

08008a28 <USBH_LL_Start>:
 8008a28:	b508      	push	{r3, lr}
 8008a2a:	f8d0 03c8 	ldr.w	r0, [r0, #968]	; 0x3c8
 8008a2e:	f7fa fa7b 	bl	8002f28 <HAL_HCD_Start>
 8008a32:	2803      	cmp	r0, #3
 8008a34:	bf96      	itet	ls
 8008a36:	4b02      	ldrls	r3, [pc, #8]	; (8008a40 <USBH_LL_Start+0x18>)
 8008a38:	2002      	movhi	r0, #2
 8008a3a:	5c18      	ldrbls	r0, [r3, r0]
 8008a3c:	bd08      	pop	{r3, pc}
 8008a3e:	bf00      	nop
 8008a40:	0800a59f 	.word	0x0800a59f

08008a44 <USBH_LL_Stop>:
 8008a44:	b508      	push	{r3, lr}
 8008a46:	f8d0 03c8 	ldr.w	r0, [r0, #968]	; 0x3c8
 8008a4a:	f7fa fa83 	bl	8002f54 <HAL_HCD_Stop>
 8008a4e:	2803      	cmp	r0, #3
 8008a50:	bf96      	itet	ls
 8008a52:	4b02      	ldrls	r3, [pc, #8]	; (8008a5c <USBH_LL_Stop+0x18>)
 8008a54:	2002      	movhi	r0, #2
 8008a56:	5c18      	ldrbls	r0, [r3, r0]
 8008a58:	bd08      	pop	{r3, pc}
 8008a5a:	bf00      	nop
 8008a5c:	0800a59f 	.word	0x0800a59f

08008a60 <USBH_LL_GetSpeed>:
 8008a60:	b508      	push	{r3, lr}
 8008a62:	f8d0 03c8 	ldr.w	r0, [r0, #968]	; 0x3c8
 8008a66:	f7fa fa98 	bl	8002f9a <HAL_HCD_GetCurrentSpeed>
 8008a6a:	2802      	cmp	r0, #2
 8008a6c:	bf96      	itet	ls
 8008a6e:	4b02      	ldrls	r3, [pc, #8]	; (8008a78 <USBH_LL_GetSpeed+0x18>)
 8008a70:	2001      	movhi	r0, #1
 8008a72:	5c18      	ldrbls	r0, [r3, r0]
 8008a74:	bd08      	pop	{r3, pc}
 8008a76:	bf00      	nop
 8008a78:	0800a59c 	.word	0x0800a59c

08008a7c <USBH_LL_ResetPort>:
 8008a7c:	b508      	push	{r3, lr}
 8008a7e:	f8d0 03c8 	ldr.w	r0, [r0, #968]	; 0x3c8
 8008a82:	f7fa fa79 	bl	8002f78 <HAL_HCD_ResetPort>
 8008a86:	2803      	cmp	r0, #3
 8008a88:	bf96      	itet	ls
 8008a8a:	4b02      	ldrls	r3, [pc, #8]	; (8008a94 <USBH_LL_ResetPort+0x18>)
 8008a8c:	2002      	movhi	r0, #2
 8008a8e:	5c18      	ldrbls	r0, [r3, r0]
 8008a90:	bd08      	pop	{r3, pc}
 8008a92:	bf00      	nop
 8008a94:	0800a59f 	.word	0x0800a59f

08008a98 <USBH_LL_GetLastXferSize>:
 8008a98:	f8d0 03c8 	ldr.w	r0, [r0, #968]	; 0x3c8
 8008a9c:	f7fa ba75 	b.w	8002f8a <HAL_HCD_HC_GetXferCount>

08008aa0 <USBH_LL_OpenPipe>:
 8008aa0:	b51f      	push	{r0, r1, r2, r3, r4, lr}
 8008aa2:	f8bd 4020 	ldrh.w	r4, [sp, #32]
 8008aa6:	9402      	str	r4, [sp, #8]
 8008aa8:	f89d 401c 	ldrb.w	r4, [sp, #28]
 8008aac:	9401      	str	r4, [sp, #4]
 8008aae:	f89d 4018 	ldrb.w	r4, [sp, #24]
 8008ab2:	9400      	str	r4, [sp, #0]
 8008ab4:	f8d0 03c8 	ldr.w	r0, [r0, #968]	; 0x3c8
 8008ab8:	f7f9 fe75 	bl	80027a6 <HAL_HCD_HC_Init>
 8008abc:	2803      	cmp	r0, #3
 8008abe:	bf9a      	itte	ls
 8008ac0:	4b02      	ldrls	r3, [pc, #8]	; (8008acc <USBH_LL_OpenPipe+0x2c>)
 8008ac2:	5c18      	ldrbls	r0, [r3, r0]
 8008ac4:	2002      	movhi	r0, #2
 8008ac6:	b004      	add	sp, #16
 8008ac8:	bd10      	pop	{r4, pc}
 8008aca:	bf00      	nop
 8008acc:	0800a59f 	.word	0x0800a59f

08008ad0 <USBH_LL_ClosePipe>:
 8008ad0:	b508      	push	{r3, lr}
 8008ad2:	f8d0 03c8 	ldr.w	r0, [r0, #968]	; 0x3c8
 8008ad6:	f7f9 fe9d 	bl	8002814 <HAL_HCD_HC_Halt>
 8008ada:	2803      	cmp	r0, #3
 8008adc:	bf96      	itet	ls
 8008ade:	4b02      	ldrls	r3, [pc, #8]	; (8008ae8 <USBH_LL_ClosePipe+0x18>)
 8008ae0:	2002      	movhi	r0, #2
 8008ae2:	5c18      	ldrbls	r0, [r3, r0]
 8008ae4:	bd08      	pop	{r3, pc}
 8008ae6:	bf00      	nop
 8008ae8:	0800a59f 	.word	0x0800a59f

08008aec <USBH_LL_SubmitURB>:
 8008aec:	b51f      	push	{r0, r1, r2, r3, r4, lr}
 8008aee:	f89d 4024 	ldrb.w	r4, [sp, #36]	; 0x24
 8008af2:	9403      	str	r4, [sp, #12]
 8008af4:	f8bd 4020 	ldrh.w	r4, [sp, #32]
 8008af8:	9402      	str	r4, [sp, #8]
 8008afa:	9c07      	ldr	r4, [sp, #28]
 8008afc:	9401      	str	r4, [sp, #4]
 8008afe:	f89d 4018 	ldrb.w	r4, [sp, #24]
 8008b02:	9400      	str	r4, [sp, #0]
 8008b04:	f8d0 03c8 	ldr.w	r0, [r0, #968]	; 0x3c8
 8008b08:	f7f9 fee0 	bl	80028cc <HAL_HCD_HC_SubmitRequest>
 8008b0c:	2803      	cmp	r0, #3
 8008b0e:	bf9a      	itte	ls
 8008b10:	4b02      	ldrls	r3, [pc, #8]	; (8008b1c <USBH_LL_SubmitURB+0x30>)
 8008b12:	5c18      	ldrbls	r0, [r3, r0]
 8008b14:	2002      	movhi	r0, #2
 8008b16:	b004      	add	sp, #16
 8008b18:	bd10      	pop	{r4, pc}
 8008b1a:	bf00      	nop
 8008b1c:	0800a59f 	.word	0x0800a59f

08008b20 <USBH_LL_GetURBState>:
 8008b20:	f8d0 03c8 	ldr.w	r0, [r0, #968]	; 0x3c8
 8008b24:	f7fa ba2b 	b.w	8002f7e <HAL_HCD_HC_GetURBState>

08008b28 <USBH_LL_DriverVBUS>:
 8008b28:	b508      	push	{r3, lr}
 8008b2a:	f890 33c4 	ldrb.w	r3, [r0, #964]	; 0x3c4
 8008b2e:	2b01      	cmp	r3, #1
 8008b30:	d102      	bne.n	8008b38 <USBH_LL_DriverVBUS+0x10>
 8008b32:	4608      	mov	r0, r1
 8008b34:	f000 f824 	bl	8008b80 <MX_DriverVbusFS>
 8008b38:	20c8      	movs	r0, #200	; 0xc8
 8008b3a:	f7f9 fcaf 	bl	800249c <HAL_Delay>
 8008b3e:	2000      	movs	r0, #0
 8008b40:	bd08      	pop	{r3, pc}

08008b42 <USBH_LL_SetToggle>:
 8008b42:	f8d0 03c8 	ldr.w	r0, [r0, #968]	; 0x3c8
 8008b46:	2328      	movs	r3, #40	; 0x28
 8008b48:	fb03 0101 	mla	r1, r3, r1, r0
 8008b4c:	f891 303b 	ldrb.w	r3, [r1, #59]	; 0x3b
 8008b50:	b11b      	cbz	r3, 8008b5a <USBH_LL_SetToggle+0x18>
 8008b52:	f881 2050 	strb.w	r2, [r1, #80]	; 0x50
 8008b56:	2000      	movs	r0, #0
 8008b58:	4770      	bx	lr
 8008b5a:	f881 2051 	strb.w	r2, [r1, #81]	; 0x51
 8008b5e:	e7fa      	b.n	8008b56 <USBH_LL_SetToggle+0x14>

08008b60 <USBH_LL_GetToggle>:
 8008b60:	f8d0 23c8 	ldr.w	r2, [r0, #968]	; 0x3c8
 8008b64:	2328      	movs	r3, #40	; 0x28
 8008b66:	fb03 2101 	mla	r1, r3, r1, r2
 8008b6a:	f891 303b 	ldrb.w	r3, [r1, #59]	; 0x3b
 8008b6e:	b113      	cbz	r3, 8008b76 <USBH_LL_GetToggle+0x16>
 8008b70:	f891 0050 	ldrb.w	r0, [r1, #80]	; 0x50
 8008b74:	4770      	bx	lr
 8008b76:	f891 0051 	ldrb.w	r0, [r1, #81]	; 0x51
 8008b7a:	4770      	bx	lr

08008b7c <USBH_Delay>:
 8008b7c:	f7f9 bc8e 	b.w	800249c <HAL_Delay>

08008b80 <MX_DriverVbusFS>:
 8008b80:	fab0 f280 	clz	r2, r0
 8008b84:	0952      	lsrs	r2, r2, #5
 8008b86:	f44f 7180 	mov.w	r1, #256	; 0x100
 8008b8a:	f04f 4090 	mov.w	r0, #1207959552	; 0x48000000
 8008b8e:	f7f9 be05 	b.w	800279c <HAL_GPIO_WritePin>
	...

08008b94 <__errno>:
 8008b94:	4b01      	ldr	r3, [pc, #4]	; (8008b9c <__errno+0x8>)
 8008b96:	6818      	ldr	r0, [r3, #0]
 8008b98:	4770      	bx	lr
 8008b9a:	bf00      	nop
 8008b9c:	20000038 	.word	0x20000038

08008ba0 <__libc_init_array>:
 8008ba0:	b570      	push	{r4, r5, r6, lr}
 8008ba2:	4e0d      	ldr	r6, [pc, #52]	; (8008bd8 <__libc_init_array+0x38>)
 8008ba4:	4c0d      	ldr	r4, [pc, #52]	; (8008bdc <__libc_init_array+0x3c>)
 8008ba6:	1ba4      	subs	r4, r4, r6
 8008ba8:	10a4      	asrs	r4, r4, #2
 8008baa:	2500      	movs	r5, #0
 8008bac:	42a5      	cmp	r5, r4
 8008bae:	d109      	bne.n	8008bc4 <__libc_init_array+0x24>
 8008bb0:	4e0b      	ldr	r6, [pc, #44]	; (8008be0 <__libc_init_array+0x40>)
 8008bb2:	4c0c      	ldr	r4, [pc, #48]	; (8008be4 <__libc_init_array+0x44>)
 8008bb4:	f000 fcc6 	bl	8009544 <_init>
 8008bb8:	1ba4      	subs	r4, r4, r6
 8008bba:	10a4      	asrs	r4, r4, #2
 8008bbc:	2500      	movs	r5, #0
 8008bbe:	42a5      	cmp	r5, r4
 8008bc0:	d105      	bne.n	8008bce <__libc_init_array+0x2e>
 8008bc2:	bd70      	pop	{r4, r5, r6, pc}
 8008bc4:	f856 3025 	ldr.w	r3, [r6, r5, lsl #2]
 8008bc8:	4798      	blx	r3
 8008bca:	3501      	adds	r5, #1
 8008bcc:	e7ee      	b.n	8008bac <__libc_init_array+0xc>
 8008bce:	f856 3025 	ldr.w	r3, [r6, r5, lsl #2]
 8008bd2:	4798      	blx	r3
 8008bd4:	3501      	adds	r5, #1
 8008bd6:	e7f2      	b.n	8008bbe <__libc_init_array+0x1e>
 8008bd8:	0800a5e0 	.word	0x0800a5e0
 8008bdc:	0800a5e0 	.word	0x0800a5e0
 8008be0:	0800a5e0 	.word	0x0800a5e0
 8008be4:	0800a5e4 	.word	0x0800a5e4

08008be8 <malloc>:
 8008be8:	4b02      	ldr	r3, [pc, #8]	; (8008bf4 <malloc+0xc>)
 8008bea:	4601      	mov	r1, r0
 8008bec:	6818      	ldr	r0, [r3, #0]
 8008bee:	f000 b87b 	b.w	8008ce8 <_malloc_r>
 8008bf2:	bf00      	nop
 8008bf4:	20000038 	.word	0x20000038

08008bf8 <free>:
 8008bf8:	4b02      	ldr	r3, [pc, #8]	; (8008c04 <free+0xc>)
 8008bfa:	4601      	mov	r1, r0
 8008bfc:	6818      	ldr	r0, [r3, #0]
 8008bfe:	f000 b825 	b.w	8008c4c <_free_r>
 8008c02:	bf00      	nop
 8008c04:	20000038 	.word	0x20000038

08008c08 <memcmp>:
 8008c08:	b530      	push	{r4, r5, lr}
 8008c0a:	2400      	movs	r4, #0
 8008c0c:	42a2      	cmp	r2, r4
 8008c0e:	d101      	bne.n	8008c14 <memcmp+0xc>
 8008c10:	2000      	movs	r0, #0
 8008c12:	e007      	b.n	8008c24 <memcmp+0x1c>
 8008c14:	5d03      	ldrb	r3, [r0, r4]
 8008c16:	3401      	adds	r4, #1
 8008c18:	190d      	adds	r5, r1, r4
 8008c1a:	f815 5c01 	ldrb.w	r5, [r5, #-1]
 8008c1e:	42ab      	cmp	r3, r5
 8008c20:	d0f4      	beq.n	8008c0c <memcmp+0x4>
 8008c22:	1b58      	subs	r0, r3, r5
 8008c24:	bd30      	pop	{r4, r5, pc}

08008c26 <memcpy>:
 8008c26:	b510      	push	{r4, lr}
 8008c28:	1e43      	subs	r3, r0, #1
 8008c2a:	440a      	add	r2, r1
 8008c2c:	4291      	cmp	r1, r2
 8008c2e:	d100      	bne.n	8008c32 <memcpy+0xc>
 8008c30:	bd10      	pop	{r4, pc}
 8008c32:	f811 4b01 	ldrb.w	r4, [r1], #1
 8008c36:	f803 4f01 	strb.w	r4, [r3, #1]!
 8008c3a:	e7f7      	b.n	8008c2c <memcpy+0x6>

08008c3c <memset>:
 8008c3c:	4402      	add	r2, r0
 8008c3e:	4603      	mov	r3, r0
 8008c40:	4293      	cmp	r3, r2
 8008c42:	d100      	bne.n	8008c46 <memset+0xa>
 8008c44:	4770      	bx	lr
 8008c46:	f803 1b01 	strb.w	r1, [r3], #1
 8008c4a:	e7f9      	b.n	8008c40 <memset+0x4>

08008c4c <_free_r>:
 8008c4c:	b538      	push	{r3, r4, r5, lr}
 8008c4e:	4605      	mov	r5, r0
 8008c50:	2900      	cmp	r1, #0
 8008c52:	d045      	beq.n	8008ce0 <_free_r+0x94>
 8008c54:	f851 3c04 	ldr.w	r3, [r1, #-4]
 8008c58:	1f0c      	subs	r4, r1, #4
 8008c5a:	2b00      	cmp	r3, #0
 8008c5c:	bfb8      	it	lt
 8008c5e:	18e4      	addlt	r4, r4, r3
 8008c60:	f000 f94c 	bl	8008efc <__malloc_lock>
 8008c64:	4a1f      	ldr	r2, [pc, #124]	; (8008ce4 <_free_r+0x98>)
 8008c66:	6813      	ldr	r3, [r2, #0]
 8008c68:	4610      	mov	r0, r2
 8008c6a:	b933      	cbnz	r3, 8008c7a <_free_r+0x2e>
 8008c6c:	6063      	str	r3, [r4, #4]
 8008c6e:	6014      	str	r4, [r2, #0]
 8008c70:	4628      	mov	r0, r5
 8008c72:	e8bd 4038 	ldmia.w	sp!, {r3, r4, r5, lr}
 8008c76:	f000 b942 	b.w	8008efe <__malloc_unlock>
 8008c7a:	42a3      	cmp	r3, r4
 8008c7c:	d90c      	bls.n	8008c98 <_free_r+0x4c>
 8008c7e:	6821      	ldr	r1, [r4, #0]
 8008c80:	1862      	adds	r2, r4, r1
 8008c82:	4293      	cmp	r3, r2
 8008c84:	bf04      	itt	eq
 8008c86:	681a      	ldreq	r2, [r3, #0]
 8008c88:	685b      	ldreq	r3, [r3, #4]
 8008c8a:	6063      	str	r3, [r4, #4]
 8008c8c:	bf04      	itt	eq
 8008c8e:	1852      	addeq	r2, r2, r1
 8008c90:	6022      	streq	r2, [r4, #0]
 8008c92:	6004      	str	r4, [r0, #0]
 8008c94:	e7ec      	b.n	8008c70 <_free_r+0x24>
 8008c96:	4613      	mov	r3, r2
 8008c98:	685a      	ldr	r2, [r3, #4]
 8008c9a:	b10a      	cbz	r2, 8008ca0 <_free_r+0x54>
 8008c9c:	42a2      	cmp	r2, r4
 8008c9e:	d9fa      	bls.n	8008c96 <_free_r+0x4a>
 8008ca0:	6819      	ldr	r1, [r3, #0]
 8008ca2:	1858      	adds	r0, r3, r1
 8008ca4:	42a0      	cmp	r0, r4
 8008ca6:	d10b      	bne.n	8008cc0 <_free_r+0x74>
 8008ca8:	6820      	ldr	r0, [r4, #0]
 8008caa:	4401      	add	r1, r0
 8008cac:	1858      	adds	r0, r3, r1
 8008cae:	4282      	cmp	r2, r0
 8008cb0:	6019      	str	r1, [r3, #0]
 8008cb2:	d1dd      	bne.n	8008c70 <_free_r+0x24>
 8008cb4:	6810      	ldr	r0, [r2, #0]
 8008cb6:	6852      	ldr	r2, [r2, #4]
 8008cb8:	605a      	str	r2, [r3, #4]
 8008cba:	4401      	add	r1, r0
 8008cbc:	6019      	str	r1, [r3, #0]
 8008cbe:	e7d7      	b.n	8008c70 <_free_r+0x24>
 8008cc0:	d902      	bls.n	8008cc8 <_free_r+0x7c>
 8008cc2:	230c      	movs	r3, #12
 8008cc4:	602b      	str	r3, [r5, #0]
 8008cc6:	e7d3      	b.n	8008c70 <_free_r+0x24>
 8008cc8:	6820      	ldr	r0, [r4, #0]
 8008cca:	1821      	adds	r1, r4, r0
 8008ccc:	428a      	cmp	r2, r1
 8008cce:	bf04      	itt	eq
 8008cd0:	6811      	ldreq	r1, [r2, #0]
 8008cd2:	6852      	ldreq	r2, [r2, #4]
 8008cd4:	6062      	str	r2, [r4, #4]
 8008cd6:	bf04      	itt	eq
 8008cd8:	1809      	addeq	r1, r1, r0
 8008cda:	6021      	streq	r1, [r4, #0]
 8008cdc:	605c      	str	r4, [r3, #4]
 8008cde:	e7c7      	b.n	8008c70 <_free_r+0x24>
 8008ce0:	bd38      	pop	{r3, r4, r5, pc}
 8008ce2:	bf00      	nop
 8008ce4:	20001e10 	.word	0x20001e10

08008ce8 <_malloc_r>:
 8008ce8:	b570      	push	{r4, r5, r6, lr}
 8008cea:	1ccd      	adds	r5, r1, #3
 8008cec:	f025 0503 	bic.w	r5, r5, #3
 8008cf0:	3508      	adds	r5, #8
 8008cf2:	2d0c      	cmp	r5, #12
 8008cf4:	bf38      	it	cc
 8008cf6:	250c      	movcc	r5, #12
 8008cf8:	2d00      	cmp	r5, #0
 8008cfa:	4606      	mov	r6, r0
 8008cfc:	db01      	blt.n	8008d02 <_malloc_r+0x1a>
 8008cfe:	42a9      	cmp	r1, r5
 8008d00:	d903      	bls.n	8008d0a <_malloc_r+0x22>
 8008d02:	230c      	movs	r3, #12
 8008d04:	6033      	str	r3, [r6, #0]
 8008d06:	2000      	movs	r0, #0
 8008d08:	bd70      	pop	{r4, r5, r6, pc}
 8008d0a:	f000 f8f7 	bl	8008efc <__malloc_lock>
 8008d0e:	4a21      	ldr	r2, [pc, #132]	; (8008d94 <_malloc_r+0xac>)
 8008d10:	6814      	ldr	r4, [r2, #0]
 8008d12:	4621      	mov	r1, r4
 8008d14:	b991      	cbnz	r1, 8008d3c <_malloc_r+0x54>
 8008d16:	4c20      	ldr	r4, [pc, #128]	; (8008d98 <_malloc_r+0xb0>)
 8008d18:	6823      	ldr	r3, [r4, #0]
 8008d1a:	b91b      	cbnz	r3, 8008d24 <_malloc_r+0x3c>
 8008d1c:	4630      	mov	r0, r6
 8008d1e:	f000 f83d 	bl	8008d9c <_sbrk_r>
 8008d22:	6020      	str	r0, [r4, #0]
 8008d24:	4629      	mov	r1, r5
 8008d26:	4630      	mov	r0, r6
 8008d28:	f000 f838 	bl	8008d9c <_sbrk_r>
 8008d2c:	1c43      	adds	r3, r0, #1
 8008d2e:	d124      	bne.n	8008d7a <_malloc_r+0x92>
 8008d30:	230c      	movs	r3, #12
 8008d32:	6033      	str	r3, [r6, #0]
 8008d34:	4630      	mov	r0, r6
 8008d36:	f000 f8e2 	bl	8008efe <__malloc_unlock>
 8008d3a:	e7e4      	b.n	8008d06 <_malloc_r+0x1e>
 8008d3c:	680b      	ldr	r3, [r1, #0]
 8008d3e:	1b5b      	subs	r3, r3, r5
 8008d40:	d418      	bmi.n	8008d74 <_malloc_r+0x8c>
 8008d42:	2b0b      	cmp	r3, #11
 8008d44:	d90f      	bls.n	8008d66 <_malloc_r+0x7e>
 8008d46:	600b      	str	r3, [r1, #0]
 8008d48:	50cd      	str	r5, [r1, r3]
 8008d4a:	18cc      	adds	r4, r1, r3
 8008d4c:	4630      	mov	r0, r6
 8008d4e:	f000 f8d6 	bl	8008efe <__malloc_unlock>
 8008d52:	f104 000b 	add.w	r0, r4, #11
 8008d56:	1d23      	adds	r3, r4, #4
 8008d58:	f020 0007 	bic.w	r0, r0, #7
 8008d5c:	1ac3      	subs	r3, r0, r3
 8008d5e:	d0d3      	beq.n	8008d08 <_malloc_r+0x20>
 8008d60:	425a      	negs	r2, r3
 8008d62:	50e2      	str	r2, [r4, r3]
 8008d64:	e7d0      	b.n	8008d08 <_malloc_r+0x20>
 8008d66:	428c      	cmp	r4, r1
 8008d68:	684b      	ldr	r3, [r1, #4]
 8008d6a:	bf16      	itet	ne
 8008d6c:	6063      	strne	r3, [r4, #4]
 8008d6e:	6013      	streq	r3, [r2, #0]
 8008d70:	460c      	movne	r4, r1
 8008d72:	e7eb      	b.n	8008d4c <_malloc_r+0x64>
 8008d74:	460c      	mov	r4, r1
 8008d76:	6849      	ldr	r1, [r1, #4]
 8008d78:	e7cc      	b.n	8008d14 <_malloc_r+0x2c>
 8008d7a:	1cc4      	adds	r4, r0, #3
 8008d7c:	f024 0403 	bic.w	r4, r4, #3
 8008d80:	42a0      	cmp	r0, r4
 8008d82:	d005      	beq.n	8008d90 <_malloc_r+0xa8>
 8008d84:	1a21      	subs	r1, r4, r0
 8008d86:	4630      	mov	r0, r6
 8008d88:	f000 f808 	bl	8008d9c <_sbrk_r>
 8008d8c:	3001      	adds	r0, #1
 8008d8e:	d0cf      	beq.n	8008d30 <_malloc_r+0x48>
 8008d90:	6025      	str	r5, [r4, #0]
 8008d92:	e7db      	b.n	8008d4c <_malloc_r+0x64>
 8008d94:	20001e10 	.word	0x20001e10
 8008d98:	20001e14 	.word	0x20001e14

08008d9c <_sbrk_r>:
 8008d9c:	b538      	push	{r3, r4, r5, lr}
 8008d9e:	4c06      	ldr	r4, [pc, #24]	; (8008db8 <_sbrk_r+0x1c>)
 8008da0:	2300      	movs	r3, #0
 8008da2:	4605      	mov	r5, r0
 8008da4:	4608      	mov	r0, r1
 8008da6:	6023      	str	r3, [r4, #0]
 8008da8:	f7f9 fac8 	bl	800233c <_sbrk>
 8008dac:	1c43      	adds	r3, r0, #1
 8008dae:	d102      	bne.n	8008db6 <_sbrk_r+0x1a>
 8008db0:	6823      	ldr	r3, [r4, #0]
 8008db2:	b103      	cbz	r3, 8008db6 <_sbrk_r+0x1a>
 8008db4:	602b      	str	r3, [r5, #0]
 8008db6:	bd38      	pop	{r3, r4, r5, pc}
 8008db8:	20003a44 	.word	0x20003a44

08008dbc <siprintf>:
 8008dbc:	b40e      	push	{r1, r2, r3}
 8008dbe:	b500      	push	{lr}
 8008dc0:	b09c      	sub	sp, #112	; 0x70
 8008dc2:	ab1d      	add	r3, sp, #116	; 0x74
 8008dc4:	9002      	str	r0, [sp, #8]
 8008dc6:	9006      	str	r0, [sp, #24]
 8008dc8:	f06f 4100 	mvn.w	r1, #2147483648	; 0x80000000
 8008dcc:	4809      	ldr	r0, [pc, #36]	; (8008df4 <siprintf+0x38>)
 8008dce:	9107      	str	r1, [sp, #28]
 8008dd0:	9104      	str	r1, [sp, #16]
 8008dd2:	4909      	ldr	r1, [pc, #36]	; (8008df8 <siprintf+0x3c>)
 8008dd4:	f853 2b04 	ldr.w	r2, [r3], #4
 8008dd8:	9105      	str	r1, [sp, #20]
 8008dda:	6800      	ldr	r0, [r0, #0]
 8008ddc:	9301      	str	r3, [sp, #4]
 8008dde:	a902      	add	r1, sp, #8
 8008de0:	f000 f8e8 	bl	8008fb4 <_svfiprintf_r>
 8008de4:	9b02      	ldr	r3, [sp, #8]
 8008de6:	2200      	movs	r2, #0
 8008de8:	701a      	strb	r2, [r3, #0]
 8008dea:	b01c      	add	sp, #112	; 0x70
 8008dec:	f85d eb04 	ldr.w	lr, [sp], #4
 8008df0:	b003      	add	sp, #12
 8008df2:	4770      	bx	lr
 8008df4:	20000038 	.word	0x20000038
 8008df8:	ffff0208 	.word	0xffff0208

08008dfc <strncmp>:
 8008dfc:	b510      	push	{r4, lr}
 8008dfe:	b16a      	cbz	r2, 8008e1c <strncmp+0x20>
 8008e00:	3901      	subs	r1, #1
 8008e02:	1884      	adds	r4, r0, r2
 8008e04:	f810 3b01 	ldrb.w	r3, [r0], #1
 8008e08:	f811 2f01 	ldrb.w	r2, [r1, #1]!
 8008e0c:	4293      	cmp	r3, r2
 8008e0e:	d103      	bne.n	8008e18 <strncmp+0x1c>
 8008e10:	42a0      	cmp	r0, r4
 8008e12:	d001      	beq.n	8008e18 <strncmp+0x1c>
 8008e14:	2b00      	cmp	r3, #0
 8008e16:	d1f5      	bne.n	8008e04 <strncmp+0x8>
 8008e18:	1a98      	subs	r0, r3, r2
 8008e1a:	bd10      	pop	{r4, pc}
 8008e1c:	4610      	mov	r0, r2
 8008e1e:	e7fc      	b.n	8008e1a <strncmp+0x1e>

08008e20 <strstr>:
 8008e20:	b5f0      	push	{r4, r5, r6, r7, lr}
 8008e22:	7803      	ldrb	r3, [r0, #0]
 8008e24:	b17b      	cbz	r3, 8008e46 <strstr+0x26>
 8008e26:	4604      	mov	r4, r0
 8008e28:	7823      	ldrb	r3, [r4, #0]
 8008e2a:	4620      	mov	r0, r4
 8008e2c:	1c66      	adds	r6, r4, #1
 8008e2e:	b17b      	cbz	r3, 8008e50 <strstr+0x30>
 8008e30:	1e4a      	subs	r2, r1, #1
 8008e32:	1e63      	subs	r3, r4, #1
 8008e34:	f812 5f01 	ldrb.w	r5, [r2, #1]!
 8008e38:	b14d      	cbz	r5, 8008e4e <strstr+0x2e>
 8008e3a:	f813 7f01 	ldrb.w	r7, [r3, #1]!
 8008e3e:	42af      	cmp	r7, r5
 8008e40:	4634      	mov	r4, r6
 8008e42:	d0f7      	beq.n	8008e34 <strstr+0x14>
 8008e44:	e7f0      	b.n	8008e28 <strstr+0x8>
 8008e46:	780b      	ldrb	r3, [r1, #0]
 8008e48:	2b00      	cmp	r3, #0
 8008e4a:	bf18      	it	ne
 8008e4c:	2000      	movne	r0, #0
 8008e4e:	bdf0      	pop	{r4, r5, r6, r7, pc}
 8008e50:	4618      	mov	r0, r3
 8008e52:	e7fc      	b.n	8008e4e <strstr+0x2e>

08008e54 <strtok>:
 8008e54:	4b13      	ldr	r3, [pc, #76]	; (8008ea4 <strtok+0x50>)
 8008e56:	e92d 41f0 	stmdb	sp!, {r4, r5, r6, r7, r8, lr}
 8008e5a:	681d      	ldr	r5, [r3, #0]
 8008e5c:	6dac      	ldr	r4, [r5, #88]	; 0x58
 8008e5e:	4606      	mov	r6, r0
 8008e60:	460f      	mov	r7, r1
 8008e62:	b9b4      	cbnz	r4, 8008e92 <strtok+0x3e>
 8008e64:	2050      	movs	r0, #80	; 0x50
 8008e66:	f7ff febf 	bl	8008be8 <malloc>
 8008e6a:	65a8      	str	r0, [r5, #88]	; 0x58
 8008e6c:	e9c0 4400 	strd	r4, r4, [r0]
 8008e70:	e9c0 4402 	strd	r4, r4, [r0, #8]
 8008e74:	e9c0 4404 	strd	r4, r4, [r0, #16]
 8008e78:	e9c0 440a 	strd	r4, r4, [r0, #40]	; 0x28
 8008e7c:	e9c0 440c 	strd	r4, r4, [r0, #48]	; 0x30
 8008e80:	e9c0 440e 	strd	r4, r4, [r0, #56]	; 0x38
 8008e84:	e9c0 4410 	strd	r4, r4, [r0, #64]	; 0x40
 8008e88:	e9c0 4412 	strd	r4, r4, [r0, #72]	; 0x48
 8008e8c:	6184      	str	r4, [r0, #24]
 8008e8e:	7704      	strb	r4, [r0, #28]
 8008e90:	6244      	str	r4, [r0, #36]	; 0x24
 8008e92:	6daa      	ldr	r2, [r5, #88]	; 0x58
 8008e94:	4639      	mov	r1, r7
 8008e96:	4630      	mov	r0, r6
 8008e98:	2301      	movs	r3, #1
 8008e9a:	e8bd 41f0 	ldmia.w	sp!, {r4, r5, r6, r7, r8, lr}
 8008e9e:	f000 b803 	b.w	8008ea8 <__strtok_r>
 8008ea2:	bf00      	nop
 8008ea4:	20000038 	.word	0x20000038

08008ea8 <__strtok_r>:
 8008ea8:	b5f0      	push	{r4, r5, r6, r7, lr}
 8008eaa:	b918      	cbnz	r0, 8008eb4 <__strtok_r+0xc>
 8008eac:	6810      	ldr	r0, [r2, #0]
 8008eae:	b908      	cbnz	r0, 8008eb4 <__strtok_r+0xc>
 8008eb0:	bdf0      	pop	{r4, r5, r6, r7, pc}
 8008eb2:	4620      	mov	r0, r4
 8008eb4:	4604      	mov	r4, r0
 8008eb6:	460f      	mov	r7, r1
 8008eb8:	f814 5b01 	ldrb.w	r5, [r4], #1
 8008ebc:	f817 6b01 	ldrb.w	r6, [r7], #1
 8008ec0:	b91e      	cbnz	r6, 8008eca <__strtok_r+0x22>
 8008ec2:	b96d      	cbnz	r5, 8008ee0 <__strtok_r+0x38>
 8008ec4:	6015      	str	r5, [r2, #0]
 8008ec6:	4628      	mov	r0, r5
 8008ec8:	e7f2      	b.n	8008eb0 <__strtok_r+0x8>
 8008eca:	42b5      	cmp	r5, r6
 8008ecc:	d1f6      	bne.n	8008ebc <__strtok_r+0x14>
 8008ece:	2b00      	cmp	r3, #0
 8008ed0:	d1ef      	bne.n	8008eb2 <__strtok_r+0xa>
 8008ed2:	6014      	str	r4, [r2, #0]
 8008ed4:	7003      	strb	r3, [r0, #0]
 8008ed6:	e7eb      	b.n	8008eb0 <__strtok_r+0x8>
 8008ed8:	462b      	mov	r3, r5
 8008eda:	e00d      	b.n	8008ef8 <__strtok_r+0x50>
 8008edc:	b926      	cbnz	r6, 8008ee8 <__strtok_r+0x40>
 8008ede:	461c      	mov	r4, r3
 8008ee0:	4623      	mov	r3, r4
 8008ee2:	460f      	mov	r7, r1
 8008ee4:	f813 5b01 	ldrb.w	r5, [r3], #1
 8008ee8:	f817 6b01 	ldrb.w	r6, [r7], #1
 8008eec:	42b5      	cmp	r5, r6
 8008eee:	d1f5      	bne.n	8008edc <__strtok_r+0x34>
 8008ef0:	2d00      	cmp	r5, #0
 8008ef2:	d0f1      	beq.n	8008ed8 <__strtok_r+0x30>
 8008ef4:	2100      	movs	r1, #0
 8008ef6:	7021      	strb	r1, [r4, #0]
 8008ef8:	6013      	str	r3, [r2, #0]
 8008efa:	e7d9      	b.n	8008eb0 <__strtok_r+0x8>

08008efc <__malloc_lock>:
 8008efc:	4770      	bx	lr

08008efe <__malloc_unlock>:
 8008efe:	4770      	bx	lr

08008f00 <__ssputs_r>:
 8008f00:	e92d 47f0 	stmdb	sp!, {r4, r5, r6, r7, r8, r9, sl, lr}
 8008f04:	688e      	ldr	r6, [r1, #8]
 8008f06:	429e      	cmp	r6, r3
 8008f08:	4682      	mov	sl, r0
 8008f0a:	460c      	mov	r4, r1
 8008f0c:	4690      	mov	r8, r2
 8008f0e:	4699      	mov	r9, r3
 8008f10:	d837      	bhi.n	8008f82 <__ssputs_r+0x82>
 8008f12:	898a      	ldrh	r2, [r1, #12]
 8008f14:	f412 6f90 	tst.w	r2, #1152	; 0x480
 8008f18:	d031      	beq.n	8008f7e <__ssputs_r+0x7e>
 8008f1a:	6825      	ldr	r5, [r4, #0]
 8008f1c:	6909      	ldr	r1, [r1, #16]
 8008f1e:	1a6f      	subs	r7, r5, r1
 8008f20:	6965      	ldr	r5, [r4, #20]
 8008f22:	2302      	movs	r3, #2
 8008f24:	eb05 0545 	add.w	r5, r5, r5, lsl #1
 8008f28:	fb95 f5f3 	sdiv	r5, r5, r3
 8008f2c:	f109 0301 	add.w	r3, r9, #1
 8008f30:	443b      	add	r3, r7
 8008f32:	429d      	cmp	r5, r3
 8008f34:	bf38      	it	cc
 8008f36:	461d      	movcc	r5, r3
 8008f38:	0553      	lsls	r3, r2, #21
 8008f3a:	d530      	bpl.n	8008f9e <__ssputs_r+0x9e>
 8008f3c:	4629      	mov	r1, r5
 8008f3e:	f7ff fed3 	bl	8008ce8 <_malloc_r>
 8008f42:	4606      	mov	r6, r0
 8008f44:	b950      	cbnz	r0, 8008f5c <__ssputs_r+0x5c>
 8008f46:	230c      	movs	r3, #12
 8008f48:	f8ca 3000 	str.w	r3, [sl]
 8008f4c:	89a3      	ldrh	r3, [r4, #12]
 8008f4e:	f043 0340 	orr.w	r3, r3, #64	; 0x40
 8008f52:	81a3      	strh	r3, [r4, #12]
 8008f54:	f04f 30ff 	mov.w	r0, #4294967295
 8008f58:	e8bd 87f0 	ldmia.w	sp!, {r4, r5, r6, r7, r8, r9, sl, pc}
 8008f5c:	463a      	mov	r2, r7
 8008f5e:	6921      	ldr	r1, [r4, #16]
 8008f60:	f7ff fe61 	bl	8008c26 <memcpy>
 8008f64:	89a3      	ldrh	r3, [r4, #12]
 8008f66:	f423 6390 	bic.w	r3, r3, #1152	; 0x480
 8008f6a:	f043 0380 	orr.w	r3, r3, #128	; 0x80
 8008f6e:	81a3      	strh	r3, [r4, #12]
 8008f70:	6126      	str	r6, [r4, #16]
 8008f72:	6165      	str	r5, [r4, #20]
 8008f74:	443e      	add	r6, r7
 8008f76:	1bed      	subs	r5, r5, r7
 8008f78:	6026      	str	r6, [r4, #0]
 8008f7a:	60a5      	str	r5, [r4, #8]
 8008f7c:	464e      	mov	r6, r9
 8008f7e:	454e      	cmp	r6, r9
 8008f80:	d900      	bls.n	8008f84 <__ssputs_r+0x84>
 8008f82:	464e      	mov	r6, r9
 8008f84:	4632      	mov	r2, r6
 8008f86:	4641      	mov	r1, r8
 8008f88:	6820      	ldr	r0, [r4, #0]
 8008f8a:	f000 fa93 	bl	80094b4 <memmove>
 8008f8e:	68a3      	ldr	r3, [r4, #8]
 8008f90:	1b9b      	subs	r3, r3, r6
 8008f92:	60a3      	str	r3, [r4, #8]
 8008f94:	6823      	ldr	r3, [r4, #0]
 8008f96:	441e      	add	r6, r3
 8008f98:	6026      	str	r6, [r4, #0]
 8008f9a:	2000      	movs	r0, #0
 8008f9c:	e7dc      	b.n	8008f58 <__ssputs_r+0x58>
 8008f9e:	462a      	mov	r2, r5
 8008fa0:	f000 faa1 	bl	80094e6 <_realloc_r>
 8008fa4:	4606      	mov	r6, r0
 8008fa6:	2800      	cmp	r0, #0
 8008fa8:	d1e2      	bne.n	8008f70 <__ssputs_r+0x70>
 8008faa:	6921      	ldr	r1, [r4, #16]
 8008fac:	4650      	mov	r0, sl
 8008fae:	f7ff fe4d 	bl	8008c4c <_free_r>
 8008fb2:	e7c8      	b.n	8008f46 <__ssputs_r+0x46>

08008fb4 <_svfiprintf_r>:
 8008fb4:	e92d 4ff0 	stmdb	sp!, {r4, r5, r6, r7, r8, r9, sl, fp, lr}
 8008fb8:	461d      	mov	r5, r3
 8008fba:	898b      	ldrh	r3, [r1, #12]
 8008fbc:	061f      	lsls	r7, r3, #24
 8008fbe:	b09d      	sub	sp, #116	; 0x74
 8008fc0:	4680      	mov	r8, r0
 8008fc2:	460c      	mov	r4, r1
 8008fc4:	4616      	mov	r6, r2
 8008fc6:	d50f      	bpl.n	8008fe8 <_svfiprintf_r+0x34>
 8008fc8:	690b      	ldr	r3, [r1, #16]
 8008fca:	b96b      	cbnz	r3, 8008fe8 <_svfiprintf_r+0x34>
 8008fcc:	2140      	movs	r1, #64	; 0x40
 8008fce:	f7ff fe8b 	bl	8008ce8 <_malloc_r>
 8008fd2:	6020      	str	r0, [r4, #0]
 8008fd4:	6120      	str	r0, [r4, #16]
 8008fd6:	b928      	cbnz	r0, 8008fe4 <_svfiprintf_r+0x30>
 8008fd8:	230c      	movs	r3, #12
 8008fda:	f8c8 3000 	str.w	r3, [r8]
 8008fde:	f04f 30ff 	mov.w	r0, #4294967295
 8008fe2:	e0c8      	b.n	8009176 <_svfiprintf_r+0x1c2>
 8008fe4:	2340      	movs	r3, #64	; 0x40
 8008fe6:	6163      	str	r3, [r4, #20]
 8008fe8:	2300      	movs	r3, #0
 8008fea:	9309      	str	r3, [sp, #36]	; 0x24
 8008fec:	2320      	movs	r3, #32
 8008fee:	f88d 3029 	strb.w	r3, [sp, #41]	; 0x29
 8008ff2:	2330      	movs	r3, #48	; 0x30
 8008ff4:	f88d 302a 	strb.w	r3, [sp, #42]	; 0x2a
 8008ff8:	9503      	str	r5, [sp, #12]
 8008ffa:	f04f 0b01 	mov.w	fp, #1
 8008ffe:	4637      	mov	r7, r6
 8009000:	463d      	mov	r5, r7
 8009002:	f815 3b01 	ldrb.w	r3, [r5], #1
 8009006:	b10b      	cbz	r3, 800900c <_svfiprintf_r+0x58>
 8009008:	2b25      	cmp	r3, #37	; 0x25
 800900a:	d13e      	bne.n	800908a <_svfiprintf_r+0xd6>
 800900c:	ebb7 0a06 	subs.w	sl, r7, r6
 8009010:	d00b      	beq.n	800902a <_svfiprintf_r+0x76>
 8009012:	4653      	mov	r3, sl
 8009014:	4632      	mov	r2, r6
 8009016:	4621      	mov	r1, r4
 8009018:	4640      	mov	r0, r8
 800901a:	f7ff ff71 	bl	8008f00 <__ssputs_r>
 800901e:	3001      	adds	r0, #1
 8009020:	f000 80a4 	beq.w	800916c <_svfiprintf_r+0x1b8>
 8009024:	9b09      	ldr	r3, [sp, #36]	; 0x24
 8009026:	4453      	add	r3, sl
 8009028:	9309      	str	r3, [sp, #36]	; 0x24
 800902a:	783b      	ldrb	r3, [r7, #0]
 800902c:	2b00      	cmp	r3, #0
 800902e:	f000 809d 	beq.w	800916c <_svfiprintf_r+0x1b8>
 8009032:	2300      	movs	r3, #0
 8009034:	f04f 32ff 	mov.w	r2, #4294967295
 8009038:	e9cd 2305 	strd	r2, r3, [sp, #20]
 800903c:	9304      	str	r3, [sp, #16]
 800903e:	9307      	str	r3, [sp, #28]
 8009040:	f88d 3053 	strb.w	r3, [sp, #83]	; 0x53
 8009044:	931a      	str	r3, [sp, #104]	; 0x68
 8009046:	462f      	mov	r7, r5
 8009048:	2205      	movs	r2, #5
 800904a:	f817 1b01 	ldrb.w	r1, [r7], #1
 800904e:	4850      	ldr	r0, [pc, #320]	; (8009190 <_svfiprintf_r+0x1dc>)
 8009050:	f7f7 f8d6 	bl	8000200 <memchr>
 8009054:	9b04      	ldr	r3, [sp, #16]
 8009056:	b9d0      	cbnz	r0, 800908e <_svfiprintf_r+0xda>
 8009058:	06d9      	lsls	r1, r3, #27
 800905a:	bf44      	itt	mi
 800905c:	2220      	movmi	r2, #32
 800905e:	f88d 2053 	strbmi.w	r2, [sp, #83]	; 0x53
 8009062:	071a      	lsls	r2, r3, #28
 8009064:	bf44      	itt	mi
 8009066:	222b      	movmi	r2, #43	; 0x2b
 8009068:	f88d 2053 	strbmi.w	r2, [sp, #83]	; 0x53
 800906c:	782a      	ldrb	r2, [r5, #0]
 800906e:	2a2a      	cmp	r2, #42	; 0x2a
 8009070:	d015      	beq.n	800909e <_svfiprintf_r+0xea>
 8009072:	9a07      	ldr	r2, [sp, #28]
 8009074:	462f      	mov	r7, r5
 8009076:	2000      	movs	r0, #0
 8009078:	250a      	movs	r5, #10
 800907a:	4639      	mov	r1, r7
 800907c:	f811 3b01 	ldrb.w	r3, [r1], #1
 8009080:	3b30      	subs	r3, #48	; 0x30
 8009082:	2b09      	cmp	r3, #9
 8009084:	d94d      	bls.n	8009122 <_svfiprintf_r+0x16e>
 8009086:	b1b8      	cbz	r0, 80090b8 <_svfiprintf_r+0x104>
 8009088:	e00f      	b.n	80090aa <_svfiprintf_r+0xf6>
 800908a:	462f      	mov	r7, r5
 800908c:	e7b8      	b.n	8009000 <_svfiprintf_r+0x4c>
 800908e:	4a40      	ldr	r2, [pc, #256]	; (8009190 <_svfiprintf_r+0x1dc>)
 8009090:	1a80      	subs	r0, r0, r2
 8009092:	fa0b f000 	lsl.w	r0, fp, r0
 8009096:	4318      	orrs	r0, r3
 8009098:	9004      	str	r0, [sp, #16]
 800909a:	463d      	mov	r5, r7
 800909c:	e7d3      	b.n	8009046 <_svfiprintf_r+0x92>
 800909e:	9a03      	ldr	r2, [sp, #12]
 80090a0:	1d11      	adds	r1, r2, #4
 80090a2:	6812      	ldr	r2, [r2, #0]
 80090a4:	9103      	str	r1, [sp, #12]
 80090a6:	2a00      	cmp	r2, #0
 80090a8:	db01      	blt.n	80090ae <_svfiprintf_r+0xfa>
 80090aa:	9207      	str	r2, [sp, #28]
 80090ac:	e004      	b.n	80090b8 <_svfiprintf_r+0x104>
 80090ae:	4252      	negs	r2, r2
 80090b0:	f043 0302 	orr.w	r3, r3, #2
 80090b4:	9207      	str	r2, [sp, #28]
 80090b6:	9304      	str	r3, [sp, #16]
 80090b8:	783b      	ldrb	r3, [r7, #0]
 80090ba:	2b2e      	cmp	r3, #46	; 0x2e
 80090bc:	d10c      	bne.n	80090d8 <_svfiprintf_r+0x124>
 80090be:	787b      	ldrb	r3, [r7, #1]
 80090c0:	2b2a      	cmp	r3, #42	; 0x2a
 80090c2:	d133      	bne.n	800912c <_svfiprintf_r+0x178>
 80090c4:	9b03      	ldr	r3, [sp, #12]
 80090c6:	1d1a      	adds	r2, r3, #4
 80090c8:	681b      	ldr	r3, [r3, #0]
 80090ca:	9203      	str	r2, [sp, #12]
 80090cc:	2b00      	cmp	r3, #0
 80090ce:	bfb8      	it	lt
 80090d0:	f04f 33ff 	movlt.w	r3, #4294967295
 80090d4:	3702      	adds	r7, #2
 80090d6:	9305      	str	r3, [sp, #20]
 80090d8:	4d2e      	ldr	r5, [pc, #184]	; (8009194 <_svfiprintf_r+0x1e0>)
 80090da:	7839      	ldrb	r1, [r7, #0]
 80090dc:	2203      	movs	r2, #3
 80090de:	4628      	mov	r0, r5
 80090e0:	f7f7 f88e 	bl	8000200 <memchr>
 80090e4:	b138      	cbz	r0, 80090f6 <_svfiprintf_r+0x142>
 80090e6:	2340      	movs	r3, #64	; 0x40
 80090e8:	1b40      	subs	r0, r0, r5
 80090ea:	fa03 f000 	lsl.w	r0, r3, r0
 80090ee:	9b04      	ldr	r3, [sp, #16]
 80090f0:	4303      	orrs	r3, r0
 80090f2:	3701      	adds	r7, #1
 80090f4:	9304      	str	r3, [sp, #16]
 80090f6:	7839      	ldrb	r1, [r7, #0]
 80090f8:	4827      	ldr	r0, [pc, #156]	; (8009198 <_svfiprintf_r+0x1e4>)
 80090fa:	f88d 1028 	strb.w	r1, [sp, #40]	; 0x28
 80090fe:	2206      	movs	r2, #6
 8009100:	1c7e      	adds	r6, r7, #1
 8009102:	f7f7 f87d 	bl	8000200 <memchr>
 8009106:	2800      	cmp	r0, #0
 8009108:	d038      	beq.n	800917c <_svfiprintf_r+0x1c8>
 800910a:	4b24      	ldr	r3, [pc, #144]	; (800919c <_svfiprintf_r+0x1e8>)
 800910c:	bb13      	cbnz	r3, 8009154 <_svfiprintf_r+0x1a0>
 800910e:	9b03      	ldr	r3, [sp, #12]
 8009110:	3307      	adds	r3, #7
 8009112:	f023 0307 	bic.w	r3, r3, #7
 8009116:	3308      	adds	r3, #8
 8009118:	9303      	str	r3, [sp, #12]
 800911a:	9b09      	ldr	r3, [sp, #36]	; 0x24
 800911c:	444b      	add	r3, r9
 800911e:	9309      	str	r3, [sp, #36]	; 0x24
 8009120:	e76d      	b.n	8008ffe <_svfiprintf_r+0x4a>
 8009122:	fb05 3202 	mla	r2, r5, r2, r3
 8009126:	2001      	movs	r0, #1
 8009128:	460f      	mov	r7, r1
 800912a:	e7a6      	b.n	800907a <_svfiprintf_r+0xc6>
 800912c:	2300      	movs	r3, #0
 800912e:	3701      	adds	r7, #1
 8009130:	9305      	str	r3, [sp, #20]
 8009132:	4619      	mov	r1, r3
 8009134:	250a      	movs	r5, #10
 8009136:	4638      	mov	r0, r7
 8009138:	f810 2b01 	ldrb.w	r2, [r0], #1
 800913c:	3a30      	subs	r2, #48	; 0x30
 800913e:	2a09      	cmp	r2, #9
 8009140:	d903      	bls.n	800914a <_svfiprintf_r+0x196>
 8009142:	2b00      	cmp	r3, #0
 8009144:	d0c8      	beq.n	80090d8 <_svfiprintf_r+0x124>
 8009146:	9105      	str	r1, [sp, #20]
 8009148:	e7c6      	b.n	80090d8 <_svfiprintf_r+0x124>
 800914a:	fb05 2101 	mla	r1, r5, r1, r2
 800914e:	2301      	movs	r3, #1
 8009150:	4607      	mov	r7, r0
 8009152:	e7f0      	b.n	8009136 <_svfiprintf_r+0x182>
 8009154:	ab03      	add	r3, sp, #12
 8009156:	9300      	str	r3, [sp, #0]
 8009158:	4622      	mov	r2, r4
 800915a:	4b11      	ldr	r3, [pc, #68]	; (80091a0 <_svfiprintf_r+0x1ec>)
 800915c:	a904      	add	r1, sp, #16
 800915e:	4640      	mov	r0, r8
 8009160:	f3af 8000 	nop.w
 8009164:	f1b0 3fff 	cmp.w	r0, #4294967295
 8009168:	4681      	mov	r9, r0
 800916a:	d1d6      	bne.n	800911a <_svfiprintf_r+0x166>
 800916c:	89a3      	ldrh	r3, [r4, #12]
 800916e:	065b      	lsls	r3, r3, #25
 8009170:	f53f af35 	bmi.w	8008fde <_svfiprintf_r+0x2a>
 8009174:	9809      	ldr	r0, [sp, #36]	; 0x24
 8009176:	b01d      	add	sp, #116	; 0x74
 8009178:	e8bd 8ff0 	ldmia.w	sp!, {r4, r5, r6, r7, r8, r9, sl, fp, pc}
 800917c:	ab03      	add	r3, sp, #12
 800917e:	9300      	str	r3, [sp, #0]
 8009180:	4622      	mov	r2, r4
 8009182:	4b07      	ldr	r3, [pc, #28]	; (80091a0 <_svfiprintf_r+0x1ec>)
 8009184:	a904      	add	r1, sp, #16
 8009186:	4640      	mov	r0, r8
 8009188:	f000 f882 	bl	8009290 <_printf_i>
 800918c:	e7ea      	b.n	8009164 <_svfiprintf_r+0x1b0>
 800918e:	bf00      	nop
 8009190:	0800a5a3 	.word	0x0800a5a3
 8009194:	0800a5a9 	.word	0x0800a5a9
 8009198:	0800a5ad 	.word	0x0800a5ad
 800919c:	00000000 	.word	0x00000000
 80091a0:	08008f01 	.word	0x08008f01

080091a4 <_printf_common>:
 80091a4:	e92d 47f0 	stmdb	sp!, {r4, r5, r6, r7, r8, r9, sl, lr}
 80091a8:	4691      	mov	r9, r2
 80091aa:	461f      	mov	r7, r3
 80091ac:	688a      	ldr	r2, [r1, #8]
 80091ae:	690b      	ldr	r3, [r1, #16]
 80091b0:	f8dd 8020 	ldr.w	r8, [sp, #32]
 80091b4:	4293      	cmp	r3, r2
 80091b6:	bfb8      	it	lt
 80091b8:	4613      	movlt	r3, r2
 80091ba:	f8c9 3000 	str.w	r3, [r9]
 80091be:	f891 2043 	ldrb.w	r2, [r1, #67]	; 0x43
 80091c2:	4606      	mov	r6, r0
 80091c4:	460c      	mov	r4, r1
 80091c6:	b112      	cbz	r2, 80091ce <_printf_common+0x2a>
 80091c8:	3301      	adds	r3, #1
 80091ca:	f8c9 3000 	str.w	r3, [r9]
 80091ce:	6823      	ldr	r3, [r4, #0]
 80091d0:	0699      	lsls	r1, r3, #26
 80091d2:	bf42      	ittt	mi
 80091d4:	f8d9 3000 	ldrmi.w	r3, [r9]
 80091d8:	3302      	addmi	r3, #2
 80091da:	f8c9 3000 	strmi.w	r3, [r9]
 80091de:	6825      	ldr	r5, [r4, #0]
 80091e0:	f015 0506 	ands.w	r5, r5, #6
 80091e4:	d107      	bne.n	80091f6 <_printf_common+0x52>
 80091e6:	f104 0a19 	add.w	sl, r4, #25
 80091ea:	68e3      	ldr	r3, [r4, #12]
 80091ec:	f8d9 2000 	ldr.w	r2, [r9]
 80091f0:	1a9b      	subs	r3, r3, r2
 80091f2:	42ab      	cmp	r3, r5
 80091f4:	dc28      	bgt.n	8009248 <_printf_common+0xa4>
 80091f6:	f894 3043 	ldrb.w	r3, [r4, #67]	; 0x43
 80091fa:	6822      	ldr	r2, [r4, #0]
 80091fc:	3300      	adds	r3, #0
 80091fe:	bf18      	it	ne
 8009200:	2301      	movne	r3, #1
 8009202:	0692      	lsls	r2, r2, #26
 8009204:	d42d      	bmi.n	8009262 <_printf_common+0xbe>
 8009206:	f104 0243 	add.w	r2, r4, #67	; 0x43
 800920a:	4639      	mov	r1, r7
 800920c:	4630      	mov	r0, r6
 800920e:	47c0      	blx	r8
 8009210:	3001      	adds	r0, #1
 8009212:	d020      	beq.n	8009256 <_printf_common+0xb2>
 8009214:	6823      	ldr	r3, [r4, #0]
 8009216:	68e5      	ldr	r5, [r4, #12]
 8009218:	f8d9 2000 	ldr.w	r2, [r9]
 800921c:	f003 0306 	and.w	r3, r3, #6
 8009220:	2b04      	cmp	r3, #4
 8009222:	bf08      	it	eq
 8009224:	1aad      	subeq	r5, r5, r2
 8009226:	68a3      	ldr	r3, [r4, #8]
 8009228:	6922      	ldr	r2, [r4, #16]
 800922a:	bf0c      	ite	eq
 800922c:	ea25 75e5 	biceq.w	r5, r5, r5, asr #31
 8009230:	2500      	movne	r5, #0
 8009232:	4293      	cmp	r3, r2
 8009234:	bfc4      	itt	gt
 8009236:	1a9b      	subgt	r3, r3, r2
 8009238:	18ed      	addgt	r5, r5, r3
 800923a:	f04f 0900 	mov.w	r9, #0
 800923e:	341a      	adds	r4, #26
 8009240:	454d      	cmp	r5, r9
 8009242:	d11a      	bne.n	800927a <_printf_common+0xd6>
 8009244:	2000      	movs	r0, #0
 8009246:	e008      	b.n	800925a <_printf_common+0xb6>
 8009248:	2301      	movs	r3, #1
 800924a:	4652      	mov	r2, sl
 800924c:	4639      	mov	r1, r7
 800924e:	4630      	mov	r0, r6
 8009250:	47c0      	blx	r8
 8009252:	3001      	adds	r0, #1
 8009254:	d103      	bne.n	800925e <_printf_common+0xba>
 8009256:	f04f 30ff 	mov.w	r0, #4294967295
 800925a:	e8bd 87f0 	ldmia.w	sp!, {r4, r5, r6, r7, r8, r9, sl, pc}
 800925e:	3501      	adds	r5, #1
 8009260:	e7c3      	b.n	80091ea <_printf_common+0x46>
 8009262:	18e1      	adds	r1, r4, r3
 8009264:	1c5a      	adds	r2, r3, #1
 8009266:	2030      	movs	r0, #48	; 0x30
 8009268:	f881 0043 	strb.w	r0, [r1, #67]	; 0x43
 800926c:	4422      	add	r2, r4
 800926e:	f894 1045 	ldrb.w	r1, [r4, #69]	; 0x45
 8009272:	f882 1043 	strb.w	r1, [r2, #67]	; 0x43
 8009276:	3302      	adds	r3, #2
 8009278:	e7c5      	b.n	8009206 <_printf_common+0x62>
 800927a:	2301      	movs	r3, #1
 800927c:	4622      	mov	r2, r4
 800927e:	4639      	mov	r1, r7
 8009280:	4630      	mov	r0, r6
 8009282:	47c0      	blx	r8
 8009284:	3001      	adds	r0, #1
 8009286:	d0e6      	beq.n	8009256 <_printf_common+0xb2>
 8009288:	f109 0901 	add.w	r9, r9, #1
 800928c:	e7d8      	b.n	8009240 <_printf_common+0x9c>
	...

08009290 <_printf_i>:
 8009290:	e92d 43f0 	stmdb	sp!, {r4, r5, r6, r7, r8, r9, lr}
 8009294:	f101 0c43 	add.w	ip, r1, #67	; 0x43
 8009298:	460c      	mov	r4, r1
 800929a:	7e09      	ldrb	r1, [r1, #24]
 800929c:	b085      	sub	sp, #20
 800929e:	296e      	cmp	r1, #110	; 0x6e
 80092a0:	4617      	mov	r7, r2
 80092a2:	4606      	mov	r6, r0
 80092a4:	4698      	mov	r8, r3
 80092a6:	9a0c      	ldr	r2, [sp, #48]	; 0x30
 80092a8:	f000 80b3 	beq.w	8009412 <_printf_i+0x182>
 80092ac:	d822      	bhi.n	80092f4 <_printf_i+0x64>
 80092ae:	2963      	cmp	r1, #99	; 0x63
 80092b0:	d036      	beq.n	8009320 <_printf_i+0x90>
 80092b2:	d80a      	bhi.n	80092ca <_printf_i+0x3a>
 80092b4:	2900      	cmp	r1, #0
 80092b6:	f000 80b9 	beq.w	800942c <_printf_i+0x19c>
 80092ba:	2958      	cmp	r1, #88	; 0x58
 80092bc:	f000 8083 	beq.w	80093c6 <_printf_i+0x136>
 80092c0:	f104 0542 	add.w	r5, r4, #66	; 0x42
 80092c4:	f884 1042 	strb.w	r1, [r4, #66]	; 0x42
 80092c8:	e032      	b.n	8009330 <_printf_i+0xa0>
 80092ca:	2964      	cmp	r1, #100	; 0x64
 80092cc:	d001      	beq.n	80092d2 <_printf_i+0x42>
 80092ce:	2969      	cmp	r1, #105	; 0x69
 80092d0:	d1f6      	bne.n	80092c0 <_printf_i+0x30>
 80092d2:	6820      	ldr	r0, [r4, #0]
 80092d4:	6813      	ldr	r3, [r2, #0]
 80092d6:	0605      	lsls	r5, r0, #24
 80092d8:	f103 0104 	add.w	r1, r3, #4
 80092dc:	d52a      	bpl.n	8009334 <_printf_i+0xa4>
 80092de:	681b      	ldr	r3, [r3, #0]
 80092e0:	6011      	str	r1, [r2, #0]
 80092e2:	2b00      	cmp	r3, #0
 80092e4:	da03      	bge.n	80092ee <_printf_i+0x5e>
 80092e6:	222d      	movs	r2, #45	; 0x2d
 80092e8:	425b      	negs	r3, r3
 80092ea:	f884 2043 	strb.w	r2, [r4, #67]	; 0x43
 80092ee:	486f      	ldr	r0, [pc, #444]	; (80094ac <_printf_i+0x21c>)
 80092f0:	220a      	movs	r2, #10
 80092f2:	e039      	b.n	8009368 <_printf_i+0xd8>
 80092f4:	2973      	cmp	r1, #115	; 0x73
 80092f6:	f000 809d 	beq.w	8009434 <_printf_i+0x1a4>
 80092fa:	d808      	bhi.n	800930e <_printf_i+0x7e>
 80092fc:	296f      	cmp	r1, #111	; 0x6f
 80092fe:	d020      	beq.n	8009342 <_printf_i+0xb2>
 8009300:	2970      	cmp	r1, #112	; 0x70
 8009302:	d1dd      	bne.n	80092c0 <_printf_i+0x30>
 8009304:	6823      	ldr	r3, [r4, #0]
 8009306:	f043 0320 	orr.w	r3, r3, #32
 800930a:	6023      	str	r3, [r4, #0]
 800930c:	e003      	b.n	8009316 <_printf_i+0x86>
 800930e:	2975      	cmp	r1, #117	; 0x75
 8009310:	d017      	beq.n	8009342 <_printf_i+0xb2>
 8009312:	2978      	cmp	r1, #120	; 0x78
 8009314:	d1d4      	bne.n	80092c0 <_printf_i+0x30>
 8009316:	2378      	movs	r3, #120	; 0x78
 8009318:	f884 3045 	strb.w	r3, [r4, #69]	; 0x45
 800931c:	4864      	ldr	r0, [pc, #400]	; (80094b0 <_printf_i+0x220>)
 800931e:	e055      	b.n	80093cc <_printf_i+0x13c>
 8009320:	6813      	ldr	r3, [r2, #0]
 8009322:	1d19      	adds	r1, r3, #4
 8009324:	681b      	ldr	r3, [r3, #0]
 8009326:	6011      	str	r1, [r2, #0]
 8009328:	f104 0542 	add.w	r5, r4, #66	; 0x42
 800932c:	f884 3042 	strb.w	r3, [r4, #66]	; 0x42
 8009330:	2301      	movs	r3, #1
 8009332:	e08c      	b.n	800944e <_printf_i+0x1be>
 8009334:	681b      	ldr	r3, [r3, #0]
 8009336:	6011      	str	r1, [r2, #0]
 8009338:	f010 0f40 	tst.w	r0, #64	; 0x40
 800933c:	bf18      	it	ne
 800933e:	b21b      	sxthne	r3, r3
 8009340:	e7cf      	b.n	80092e2 <_printf_i+0x52>
 8009342:	6813      	ldr	r3, [r2, #0]
 8009344:	6825      	ldr	r5, [r4, #0]
 8009346:	1d18      	adds	r0, r3, #4
 8009348:	6010      	str	r0, [r2, #0]
 800934a:	0628      	lsls	r0, r5, #24
 800934c:	d501      	bpl.n	8009352 <_printf_i+0xc2>
 800934e:	681b      	ldr	r3, [r3, #0]
 8009350:	e002      	b.n	8009358 <_printf_i+0xc8>
 8009352:	0668      	lsls	r0, r5, #25
 8009354:	d5fb      	bpl.n	800934e <_printf_i+0xbe>
 8009356:	881b      	ldrh	r3, [r3, #0]
 8009358:	4854      	ldr	r0, [pc, #336]	; (80094ac <_printf_i+0x21c>)
 800935a:	296f      	cmp	r1, #111	; 0x6f
 800935c:	bf14      	ite	ne
 800935e:	220a      	movne	r2, #10
 8009360:	2208      	moveq	r2, #8
 8009362:	2100      	movs	r1, #0
 8009364:	f884 1043 	strb.w	r1, [r4, #67]	; 0x43
 8009368:	6865      	ldr	r5, [r4, #4]
 800936a:	60a5      	str	r5, [r4, #8]
 800936c:	2d00      	cmp	r5, #0
 800936e:	f2c0 8095 	blt.w	800949c <_printf_i+0x20c>
 8009372:	6821      	ldr	r1, [r4, #0]
 8009374:	f021 0104 	bic.w	r1, r1, #4
 8009378:	6021      	str	r1, [r4, #0]
 800937a:	2b00      	cmp	r3, #0
 800937c:	d13d      	bne.n	80093fa <_printf_i+0x16a>
 800937e:	2d00      	cmp	r5, #0
 8009380:	f040 808e 	bne.w	80094a0 <_printf_i+0x210>
 8009384:	4665      	mov	r5, ip
 8009386:	2a08      	cmp	r2, #8
 8009388:	d10b      	bne.n	80093a2 <_printf_i+0x112>
 800938a:	6823      	ldr	r3, [r4, #0]
 800938c:	07db      	lsls	r3, r3, #31
 800938e:	d508      	bpl.n	80093a2 <_printf_i+0x112>
 8009390:	6923      	ldr	r3, [r4, #16]
 8009392:	6862      	ldr	r2, [r4, #4]
 8009394:	429a      	cmp	r2, r3
 8009396:	bfde      	ittt	le
 8009398:	2330      	movle	r3, #48	; 0x30
 800939a:	f805 3c01 	strble.w	r3, [r5, #-1]
 800939e:	f105 35ff 	addle.w	r5, r5, #4294967295
 80093a2:	ebac 0305 	sub.w	r3, ip, r5
 80093a6:	6123      	str	r3, [r4, #16]
 80093a8:	f8cd 8000 	str.w	r8, [sp]
 80093ac:	463b      	mov	r3, r7
 80093ae:	aa03      	add	r2, sp, #12
 80093b0:	4621      	mov	r1, r4
 80093b2:	4630      	mov	r0, r6
 80093b4:	f7ff fef6 	bl	80091a4 <_printf_common>
 80093b8:	3001      	adds	r0, #1
 80093ba:	d14d      	bne.n	8009458 <_printf_i+0x1c8>
 80093bc:	f04f 30ff 	mov.w	r0, #4294967295
 80093c0:	b005      	add	sp, #20
 80093c2:	e8bd 83f0 	ldmia.w	sp!, {r4, r5, r6, r7, r8, r9, pc}
 80093c6:	4839      	ldr	r0, [pc, #228]	; (80094ac <_printf_i+0x21c>)
 80093c8:	f884 1045 	strb.w	r1, [r4, #69]	; 0x45
 80093cc:	6813      	ldr	r3, [r2, #0]
 80093ce:	6821      	ldr	r1, [r4, #0]
 80093d0:	1d1d      	adds	r5, r3, #4
 80093d2:	681b      	ldr	r3, [r3, #0]
 80093d4:	6015      	str	r5, [r2, #0]
 80093d6:	060a      	lsls	r2, r1, #24
 80093d8:	d50b      	bpl.n	80093f2 <_printf_i+0x162>
 80093da:	07ca      	lsls	r2, r1, #31
 80093dc:	bf44      	itt	mi
 80093de:	f041 0120 	orrmi.w	r1, r1, #32
 80093e2:	6021      	strmi	r1, [r4, #0]
 80093e4:	b91b      	cbnz	r3, 80093ee <_printf_i+0x15e>
 80093e6:	6822      	ldr	r2, [r4, #0]
 80093e8:	f022 0220 	bic.w	r2, r2, #32
 80093ec:	6022      	str	r2, [r4, #0]
 80093ee:	2210      	movs	r2, #16
 80093f0:	e7b7      	b.n	8009362 <_printf_i+0xd2>
 80093f2:	064d      	lsls	r5, r1, #25
 80093f4:	bf48      	it	mi
 80093f6:	b29b      	uxthmi	r3, r3
 80093f8:	e7ef      	b.n	80093da <_printf_i+0x14a>
 80093fa:	4665      	mov	r5, ip
 80093fc:	fbb3 f1f2 	udiv	r1, r3, r2
 8009400:	fb02 3311 	mls	r3, r2, r1, r3
 8009404:	5cc3      	ldrb	r3, [r0, r3]
 8009406:	f805 3d01 	strb.w	r3, [r5, #-1]!
 800940a:	460b      	mov	r3, r1
 800940c:	2900      	cmp	r1, #0
 800940e:	d1f5      	bne.n	80093fc <_printf_i+0x16c>
 8009410:	e7b9      	b.n	8009386 <_printf_i+0xf6>
 8009412:	6813      	ldr	r3, [r2, #0]
 8009414:	6825      	ldr	r5, [r4, #0]
 8009416:	6961      	ldr	r1, [r4, #20]
 8009418:	1d18      	adds	r0, r3, #4
 800941a:	6010      	str	r0, [r2, #0]
 800941c:	0628      	lsls	r0, r5, #24
 800941e:	681b      	ldr	r3, [r3, #0]
 8009420:	d501      	bpl.n	8009426 <_printf_i+0x196>
 8009422:	6019      	str	r1, [r3, #0]
 8009424:	e002      	b.n	800942c <_printf_i+0x19c>
 8009426:	066a      	lsls	r2, r5, #25
 8009428:	d5fb      	bpl.n	8009422 <_printf_i+0x192>
 800942a:	8019      	strh	r1, [r3, #0]
 800942c:	2300      	movs	r3, #0
 800942e:	6123      	str	r3, [r4, #16]
 8009430:	4665      	mov	r5, ip
 8009432:	e7b9      	b.n	80093a8 <_printf_i+0x118>
 8009434:	6813      	ldr	r3, [r2, #0]
 8009436:	1d19      	adds	r1, r3, #4
 8009438:	6011      	str	r1, [r2, #0]
 800943a:	681d      	ldr	r5, [r3, #0]
 800943c:	6862      	ldr	r2, [r4, #4]
 800943e:	2100      	movs	r1, #0
 8009440:	4628      	mov	r0, r5
 8009442:	f7f6 fedd 	bl	8000200 <memchr>
 8009446:	b108      	cbz	r0, 800944c <_printf_i+0x1bc>
 8009448:	1b40      	subs	r0, r0, r5
 800944a:	6060      	str	r0, [r4, #4]
 800944c:	6863      	ldr	r3, [r4, #4]
 800944e:	6123      	str	r3, [r4, #16]
 8009450:	2300      	movs	r3, #0
 8009452:	f884 3043 	strb.w	r3, [r4, #67]	; 0x43
 8009456:	e7a7      	b.n	80093a8 <_printf_i+0x118>
 8009458:	6923      	ldr	r3, [r4, #16]
 800945a:	462a      	mov	r2, r5
 800945c:	4639      	mov	r1, r7
 800945e:	4630      	mov	r0, r6
 8009460:	47c0      	blx	r8
 8009462:	3001      	adds	r0, #1
 8009464:	d0aa      	beq.n	80093bc <_printf_i+0x12c>
 8009466:	6823      	ldr	r3, [r4, #0]
 8009468:	079b      	lsls	r3, r3, #30
 800946a:	d413      	bmi.n	8009494 <_printf_i+0x204>
 800946c:	68e0      	ldr	r0, [r4, #12]
 800946e:	9b03      	ldr	r3, [sp, #12]
 8009470:	4298      	cmp	r0, r3
 8009472:	bfb8      	it	lt
 8009474:	4618      	movlt	r0, r3
 8009476:	e7a3      	b.n	80093c0 <_printf_i+0x130>
 8009478:	2301      	movs	r3, #1
 800947a:	464a      	mov	r2, r9
 800947c:	4639      	mov	r1, r7
 800947e:	4630      	mov	r0, r6
 8009480:	47c0      	blx	r8
 8009482:	3001      	adds	r0, #1
 8009484:	d09a      	beq.n	80093bc <_printf_i+0x12c>
 8009486:	3501      	adds	r5, #1
 8009488:	68e3      	ldr	r3, [r4, #12]
 800948a:	9a03      	ldr	r2, [sp, #12]
 800948c:	1a9b      	subs	r3, r3, r2
 800948e:	42ab      	cmp	r3, r5
 8009490:	dcf2      	bgt.n	8009478 <_printf_i+0x1e8>
 8009492:	e7eb      	b.n	800946c <_printf_i+0x1dc>
 8009494:	2500      	movs	r5, #0
 8009496:	f104 0919 	add.w	r9, r4, #25
 800949a:	e7f5      	b.n	8009488 <_printf_i+0x1f8>
 800949c:	2b00      	cmp	r3, #0
 800949e:	d1ac      	bne.n	80093fa <_printf_i+0x16a>
 80094a0:	7803      	ldrb	r3, [r0, #0]
 80094a2:	f884 3042 	strb.w	r3, [r4, #66]	; 0x42
 80094a6:	f104 0542 	add.w	r5, r4, #66	; 0x42
 80094aa:	e76c      	b.n	8009386 <_printf_i+0xf6>
 80094ac:	0800a5b4 	.word	0x0800a5b4
 80094b0:	0800a5c5 	.word	0x0800a5c5

080094b4 <memmove>:
 80094b4:	4288      	cmp	r0, r1
 80094b6:	b510      	push	{r4, lr}
 80094b8:	eb01 0302 	add.w	r3, r1, r2
 80094bc:	d807      	bhi.n	80094ce <memmove+0x1a>
 80094be:	1e42      	subs	r2, r0, #1
 80094c0:	4299      	cmp	r1, r3
 80094c2:	d00a      	beq.n	80094da <memmove+0x26>
 80094c4:	f811 4b01 	ldrb.w	r4, [r1], #1
 80094c8:	f802 4f01 	strb.w	r4, [r2, #1]!
 80094cc:	e7f8      	b.n	80094c0 <memmove+0xc>
 80094ce:	4283      	cmp	r3, r0
 80094d0:	d9f5      	bls.n	80094be <memmove+0xa>
 80094d2:	1881      	adds	r1, r0, r2
 80094d4:	1ad2      	subs	r2, r2, r3
 80094d6:	42d3      	cmn	r3, r2
 80094d8:	d100      	bne.n	80094dc <memmove+0x28>
 80094da:	bd10      	pop	{r4, pc}
 80094dc:	f813 4d01 	ldrb.w	r4, [r3, #-1]!
 80094e0:	f801 4d01 	strb.w	r4, [r1, #-1]!
 80094e4:	e7f7      	b.n	80094d6 <memmove+0x22>

080094e6 <_realloc_r>:
 80094e6:	b5f8      	push	{r3, r4, r5, r6, r7, lr}
 80094e8:	4607      	mov	r7, r0
 80094ea:	4614      	mov	r4, r2
 80094ec:	460e      	mov	r6, r1
 80094ee:	b921      	cbnz	r1, 80094fa <_realloc_r+0x14>
 80094f0:	4611      	mov	r1, r2
 80094f2:	e8bd 40f8 	ldmia.w	sp!, {r3, r4, r5, r6, r7, lr}
 80094f6:	f7ff bbf7 	b.w	8008ce8 <_malloc_r>
 80094fa:	b922      	cbnz	r2, 8009506 <_realloc_r+0x20>
 80094fc:	f7ff fba6 	bl	8008c4c <_free_r>
 8009500:	4625      	mov	r5, r4
 8009502:	4628      	mov	r0, r5
 8009504:	bdf8      	pop	{r3, r4, r5, r6, r7, pc}
 8009506:	f000 f814 	bl	8009532 <_malloc_usable_size_r>
 800950a:	42a0      	cmp	r0, r4
 800950c:	d20f      	bcs.n	800952e <_realloc_r+0x48>
 800950e:	4621      	mov	r1, r4
 8009510:	4638      	mov	r0, r7
 8009512:	f7ff fbe9 	bl	8008ce8 <_malloc_r>
 8009516:	4605      	mov	r5, r0
 8009518:	2800      	cmp	r0, #0
 800951a:	d0f2      	beq.n	8009502 <_realloc_r+0x1c>
 800951c:	4631      	mov	r1, r6
 800951e:	4622      	mov	r2, r4
 8009520:	f7ff fb81 	bl	8008c26 <memcpy>
 8009524:	4631      	mov	r1, r6
 8009526:	4638      	mov	r0, r7
 8009528:	f7ff fb90 	bl	8008c4c <_free_r>
 800952c:	e7e9      	b.n	8009502 <_realloc_r+0x1c>
 800952e:	4635      	mov	r5, r6
 8009530:	e7e7      	b.n	8009502 <_realloc_r+0x1c>

08009532 <_malloc_usable_size_r>:
 8009532:	f851 3c04 	ldr.w	r3, [r1, #-4]
 8009536:	1f18      	subs	r0, r3, #4
 8009538:	2b00      	cmp	r3, #0
 800953a:	bfbc      	itt	lt
 800953c:	580b      	ldrlt	r3, [r1, r0]
 800953e:	18c0      	addlt	r0, r0, r3
 8009540:	4770      	bx	lr
	...

08009544 <_init>:
 8009544:	b5f8      	push	{r3, r4, r5, r6, r7, lr}
 8009546:	bf00      	nop
 8009548:	bcf8      	pop	{r3, r4, r5, r6, r7}
 800954a:	bc08      	pop	{r3}
 800954c:	469e      	mov	lr, r3
 800954e:	4770      	bx	lr

08009550 <_fini>:
 8009550:	b5f8      	push	{r3, r4, r5, r6, r7, lr}
 8009552:	bf00      	nop
 8009554:	bcf8      	pop	{r3, r4, r5, r6, r7}
 8009556:	bc08      	pop	{r3}
 8009558:	469e      	mov	lr, r3
 800955a:	4770      	bx	lr
